---
triple:          'x86_64-apple-darwin'
binary-path:     tests.exe
relocations:
  - { offsetInCU: 0x5C, offset: 0x5C, size: 0x8, addend: 0x0, symName: __ZNSt3__119piecewise_constructE, symObjAddr: 0xE612, symBinAddr: 0x10004C6A4, symSize: 0x0 }
  - { offsetInCU: 0x4A37, offset: 0x4A37, size: 0x8, addend: 0x0, symName: __ZNSt3__124__put_character_sequenceB8ue170006IcNS_11char_traitsIcEEEERNS_13basic_ostreamIT_T0_EES7_PKS4_m, symObjAddr: 0x4D90, symBinAddr: 0x100005C70, symSize: 0x1F0 }
  - { offsetInCU: 0xB475, offset: 0xB475, size: 0x8, addend: 0x0, symName: __ZNSt3__17advanceB8ue170006INS_11__wrap_iterIPK4FileEEllvEEvRT_T0_, symObjAddr: 0xC7B0, symBinAddr: 0x10000D690, symSize: 0x30 }
  - { offsetInCU: 0xF16C, offset: 0xF16C, size: 0x8, addend: 0x0, symName: __ZNSt3__1lsB8ue170006INS_11char_traitsIcEEEERNS_13basic_ostreamIcT_EES6_PKc, symObjAddr: 0x430, symBinAddr: 0x100001310, symSize: 0x40 }
  - { offsetInCU: 0xF1B2, offset: 0xF1B2, size: 0x8, addend: 0x0, symName: __ZNSt3__1eqB8ue170006IcNS_11char_traitsIcEENS_9allocatorIcEEEEbRKNS_12basic_stringIT_T0_T1_EEPKS6_, symObjAddr: 0x1240, symBinAddr: 0x100002120, symSize: 0x90 }
  - { offsetInCU: 0xF86C, offset: 0xF86C, size: 0x8, addend: 0x0, symName: __ZNSt3__111lower_boundB8ue170006INS_11__wrap_iterIPK4FileEEj12LowerFunctorEET_S7_S7_RKT0_T1_, symObjAddr: 0x2B60, symBinAddr: 0x100003A40, symSize: 0x60 }
  - { offsetInCU: 0xF8EB, offset: 0xF8EB, size: 0x8, addend: 0x0, symName: __ZNSt3__111upper_boundB8ue170006INS_11__wrap_iterIPK4FileEEj12UpperFunctorEET_S7_S7_RKT0_T1_, symObjAddr: 0x2C20, symBinAddr: 0x100003B00, symSize: 0x50 }
  - { offsetInCU: 0xF95C, offset: 0xF95C, size: 0x8, addend: 0x0, symName: __ZNSt3__18distanceB8ue170006INS_11__wrap_iterIPK4FileEEEENS_15iterator_traitsIT_E15difference_typeES7_S7_, symObjAddr: 0x2C70, symBinAddr: 0x100003B50, symSize: 0x40 }
  - { offsetInCU: 0xF99F, offset: 0xF99F, size: 0x8, addend: 0x0, symName: __ZNSt3__1neB8ue170006ERKNS_21__hash_const_iteratorIPNS_11__hash_nodeIjPvEEEES7_, symObjAddr: 0x3A70, symBinAddr: 0x100004950, symSize: 0x30 }
  - { offsetInCU: 0xF9DC, offset: 0xF9DC, size: 0x8, addend: 0x0, symName: __ZNSt3__112__to_addressB8ue170006INS_12basic_stringIcNS_11char_traitsIcEENS_9allocatorIcEEEEEEPT_S8_, symObjAddr: 0x4280, symBinAddr: 0x100005160, symSize: 0x10 }
  - { offsetInCU: 0xFA11, offset: 0xFA11, size: 0x8, addend: 0x0, symName: __ZNSt3__119__libcpp_deallocateB8ue170006EPvmm, symObjAddr: 0x4370, symBinAddr: 0x100005250, symSize: 0x60 }
  - { offsetInCU: 0xFA76, offset: 0xFA76, size: 0x8, addend: 0x0, symName: __ZNSt3__124__is_overaligned_for_newB8ue170006Em, symObjAddr: 0x43D0, symBinAddr: 0x1000052B0, symSize: 0x20 }
  - { offsetInCU: 0xFAA4, offset: 0xFAA4, size: 0x8, addend: 0x0, symName: __ZNSt3__127__do_deallocate_handle_sizeB8ue170006IJSt11align_val_tEEEvPvmDpT_, symObjAddr: 0x43F0, symBinAddr: 0x1000052D0, symSize: 0x30 }
  - { offsetInCU: 0xFAF7, offset: 0xFAF7, size: 0x8, addend: 0x0, symName: __ZNSt3__127__do_deallocate_handle_sizeB8ue170006IJEEEvPvmDpT_, symObjAddr: 0x4420, symBinAddr: 0x100005300, symSize: 0x20 }
  - { offsetInCU: 0xFB35, offset: 0xFB35, size: 0x8, addend: 0x0, symName: __ZNSt3__124__libcpp_operator_deleteB8ue170006IJPvSt11align_val_tEEEvDpT_, symObjAddr: 0x4440, symBinAddr: 0x100005320, symSize: 0x30 }
  - { offsetInCU: 0xFB7E, offset: 0xFB7E, size: 0x8, addend: 0x0, symName: __ZNSt3__124__libcpp_operator_deleteB8ue170006IJPvEEEvDpT_, symObjAddr: 0x4470, symBinAddr: 0x100005350, symSize: 0x20 }
  - { offsetInCU: 0xFBB3, offset: 0xFBB3, size: 0x8, addend: 0x0, symName: __ZNSt3__1lsB8ue170006IcNS_11char_traitsIcEENS_9allocatorIcEEEERNS_13basic_ostreamIT_T0_EES9_RKNS_12basic_stringIS6_S7_T1_EE, symObjAddr: 0x4C10, symBinAddr: 0x100005AF0, symSize: 0x50 }
  - { offsetInCU: 0xFC0B, offset: 0xFC0B, size: 0x8, addend: 0x0, symName: __ZNSt3__1neB8ue170006ERKNS_19__hash_map_iteratorINS_15__hash_iteratorIPNS_11__hash_nodeINS_17__hash_value_typeINS_12basic_stringIcNS_11char_traitsIcEENS_9allocatorIcEEEENS_6vectorIjNS7_IjEEEEEEPvEEEEEESK_, symObjAddr: 0x4C60, symBinAddr: 0x100005B40, symSize: 0x30 }
  - { offsetInCU: 0xFC48, offset: 0xFC48, size: 0x8, addend: 0x0, symName: __ZNSt3__116__pad_and_outputB8ue170006IcNS_11char_traitsIcEEEENS_19ostreambuf_iteratorIT_T0_EES6_PKS4_S8_S8_RNS_8ios_baseES4_, symObjAddr: 0x5020, symBinAddr: 0x100005F00, symSize: 0x220 }
  - { offsetInCU: 0xFD18, offset: 0xFD18, size: 0x8, addend: 0x0, symName: __ZNSt3__112__to_addressB8ue170006IcEEPT_S2_, symObjAddr: 0x5540, symBinAddr: 0x100006420, symSize: 0x10 }
  - { offsetInCU: 0xFD80, offset: 0xFD80, size: 0x8, addend: 0x0, symName: __ZNSt3__19use_facetB8ue170006INS_5ctypeIcEEEERKT_RKNS_6localeE, symObjAddr: 0x57D0, symBinAddr: 0x1000066B0, symSize: 0x30 }
  - { offsetInCU: 0x1024D, offset: 0x1024D, size: 0x8, addend: 0x0, symName: __ZNSt3__112__to_addressB8ue170006IKcEEPT_S3_, symObjAddr: 0x5860, symBinAddr: 0x100006740, symSize: 0x10 }
  - { offsetInCU: 0x102B5, offset: 0x102B5, size: 0x8, addend: 0x0, symName: __ZNSt3__1neB8ue170006ERKNS_15__hash_iteratorIPNS_11__hash_nodeINS_17__hash_value_typeINS_12basic_stringIcNS_11char_traitsIcEENS_9allocatorIcEEEENS_6vectorIjNS6_IjEEEEEEPvEEEESI_, symObjAddr: 0x5970, symBinAddr: 0x100006850, symSize: 0x30 }
  - { offsetInCU: 0x102F2, offset: 0x102F2, size: 0x8, addend: 0x0, symName: __ZNSt3__1eqB8ue170006ERKNS_15__hash_iteratorIPNS_11__hash_nodeINS_17__hash_value_typeINS_12basic_stringIcNS_11char_traitsIcEENS_9allocatorIcEEEENS_6vectorIjNS6_IjEEEEEEPvEEEESI_, symObjAddr: 0x59A0, symBinAddr: 0x100006880, symSize: 0x30 }
  - { offsetInCU: 0x1032F, offset: 0x1032F, size: 0x8, addend: 0x0, symName: __ZNSt3__116__constrain_hashB8ue170006Emm, symObjAddr: 0x5C00, symBinAddr: 0x100006AE0, symSize: 0x80 }
  - { offsetInCU: 0x10369, offset: 0x10369, size: 0x8, addend: 0x0, symName: __ZNSt3__116__do_string_hashB8ue170006IPKcEEmT_S3_, symObjAddr: 0x5E40, symBinAddr: 0x100006D20, symSize: 0x40 }
  - { offsetInCU: 0x103AF, offset: 0x103AF, size: 0x8, addend: 0x0, symName: __ZNSt3__110__loadwordB8ue170006ImEET_PKv, symObjAddr: 0x6730, symBinAddr: 0x100007610, symSize: 0x20 }
  - { offsetInCU: 0x103F2, offset: 0x103F2, size: 0x8, addend: 0x0, symName: __ZNSt3__14swapB8ue170006ImEENS_9enable_ifIXaasr21is_move_constructibleIT_EE5valuesr18is_move_assignableIS2_EE5valueEvE4typeERS2_S5_, symObjAddr: 0x68F0, symBinAddr: 0x1000077D0, symSize: 0x40 }
  - { offsetInCU: 0x10443, offset: 0x10443, size: 0x8, addend: 0x0, symName: __ZNSt3__110__loadwordB8ue170006IjEET_PKv, symObjAddr: 0x6980, symBinAddr: 0x100007860, symSize: 0x20 }
  - { offsetInCU: 0x10486, offset: 0x10486, size: 0x8, addend: 0x0, symName: __ZNSt3__1eqB8ue170006INS_9allocatorIcEEEEbRKNS_12basic_stringIcNS_11char_traitsIcEET_EES9_, symObjAddr: 0x6C20, symBinAddr: 0x100007B00, symSize: 0x110 }
  - { offsetInCU: 0x104F9, offset: 0x104F9, size: 0x8, addend: 0x0, symName: __ZNSt3__17launderB8ue170006IKNS_4pairIKNS_12basic_stringIcNS_11char_traitsIcEENS_9allocatorIcEEEENS_6vectorIjNS5_IjEEEEEEEEPT_SF_, symObjAddr: 0x6D60, symBinAddr: 0x100007C40, symSize: 0x20 }
  - { offsetInCU: 0x10530, offset: 0x10530, size: 0x8, addend: 0x0, symName: __ZNSt3__19__launderB8ue170006IKNS_4pairIKNS_12basic_stringIcNS_11char_traitsIcEENS_9allocatorIcEEEENS_6vectorIjNS5_IjEEEEEEEEPT_SF_, symObjAddr: 0x6D80, symBinAddr: 0x100007C60, symSize: 0x10 }
  - { offsetInCU: 0x105D1, offset: 0x105D1, size: 0x8, addend: 0x0, symName: __ZNSt3__116forward_as_tupleB8ue170006IJRKNS_12basic_stringIcNS_11char_traitsIcEENS_9allocatorIcEEEEEEENS_5tupleIJDpOT_EEESC_, symObjAddr: 0x73B0, symBinAddr: 0x100008290, symSize: 0x30 }
  - { offsetInCU: 0x1060A, offset: 0x1060A, size: 0x8, addend: 0x0, symName: __ZNSt3__116forward_as_tupleB8ue170006IJEEENS_5tupleIJDpOT_EEES4_, symObjAddr: 0x73E0, symBinAddr: 0x1000082C0, symSize: 0x10 }
  - { offsetInCU: 0x1062E, offset: 0x1062E, size: 0x8, addend: 0x0, symName: __ZNSt3__13maxB8ue170006ImEERKT_S3_S3_, symObjAddr: 0x7600, symBinAddr: 0x1000084E0, symSize: 0x30 }
  - { offsetInCU: 0x10671, offset: 0x10671, size: 0x8, addend: 0x0, symName: __ZNSt3__116__is_hash_power2B8ue170006Em, symObjAddr: 0x7630, symBinAddr: 0x100008510, symSize: 0x40 }
  - { offsetInCU: 0x106BB, offset: 0x106BB, size: 0x8, addend: 0x0, symName: __ZNSt3__117__libcpp_allocateB8ue170006Emm, symObjAddr: 0x79C0, symBinAddr: 0x1000088A0, symSize: 0x60 }
  - { offsetInCU: 0x10715, offset: 0x10715, size: 0x8, addend: 0x0, symName: __ZNSt3__121__libcpp_operator_newB8ue170006IJmSt11align_val_tEEEPvDpT_, symObjAddr: 0x7A40, symBinAddr: 0x100008920, symSize: 0x30 }
  - { offsetInCU: 0x10762, offset: 0x10762, size: 0x8, addend: 0x0, symName: __ZNSt3__121__libcpp_operator_newB8ue170006IJmEEEPvDpT_, symObjAddr: 0x7A70, symBinAddr: 0x100008950, symSize: 0x20 }
  - { offsetInCU: 0x107A6, offset: 0x107A6, size: 0x8, addend: 0x0, symName: __ZNSt3__13getB8ue170006ILm0EJRKNS_12basic_stringIcNS_11char_traitsIcEENS_9allocatorIcEEEEEEERNS_13tuple_elementIXT_ENS_5tupleIJDpT0_EEEE4typeERSD_, symObjAddr: 0x7CB0, symBinAddr: 0x100008B90, symSize: 0x20 }
  - { offsetInCU: 0x107E9, offset: 0x107E9, size: 0x8, addend: 0x0, symName: __ZNSt3__116__next_hash_pow2B8ue170006Em, symObjAddr: 0x8350, symBinAddr: 0x100009230, symSize: 0x60 }
  - { offsetInCU: 0x10831, offset: 0x10831, size: 0x8, addend: 0x0, symName: __ZNSt3__112__libcpp_clzB8ue170006Em, symObjAddr: 0x86B0, symBinAddr: 0x100009590, symSize: 0x20 }
  - { offsetInCU: 0x1085D, offset: 0x1085D, size: 0x8, addend: 0x0, symName: __ZNSt3__13maxB8ue170006ImNS_6__lessIvvEEEERKT_S5_S5_T0_, symObjAddr: 0x86D0, symBinAddr: 0x1000095B0, symSize: 0x50 }
  - { offsetInCU: 0x108FC, offset: 0x108FC, size: 0x8, addend: 0x0, symName: __ZNSt3__112__to_addressB8ue170006IjEEPT_S2_, symObjAddr: 0x8CB0, symBinAddr: 0x100009B90, symSize: 0x10 }
  - { offsetInCU: 0x10988, offset: 0x10988, size: 0x8, addend: 0x0, symName: __ZNSt3__17launderB8ue170006INS_4pairIKNS_12basic_stringIcNS_11char_traitsIcEENS_9allocatorIcEEEENS_6vectorIjNS5_IjEEEEEEEEPT_SE_, symObjAddr: 0x8F30, symBinAddr: 0x100009E10, symSize: 0x20 }
  - { offsetInCU: 0x109BF, offset: 0x109BF, size: 0x8, addend: 0x0, symName: __ZNSt3__19__launderB8ue170006INS_4pairIKNS_12basic_stringIcNS_11char_traitsIcEENS_9allocatorIcEEEENS_6vectorIjNS5_IjEEEEEEEEPT_SE_, symObjAddr: 0x8F50, symBinAddr: 0x100009E30, symSize: 0x10 }
  - { offsetInCU: 0x109F6, offset: 0x109F6, size: 0x8, addend: 0x0, symName: __ZNSt3__112__to_addressB8ue170006I4FileEEPT_S3_, symObjAddr: 0x92F0, symBinAddr: 0x10000A1D0, symSize: 0x10 }
  - { offsetInCU: 0x10A2B, offset: 0x10A2B, size: 0x8, addend: 0x0, symName: __ZNSt3__122__make_exception_guardB8ue170006INS_6vectorINS_12basic_stringIcNS_11char_traitsIcEENS_9allocatorIcEEEENS5_IS7_EEE16__destroy_vectorEEENS_28__exception_guard_exceptionsIT_EESC_, symObjAddr: 0x9900, symBinAddr: 0x10000A7E0, symSize: 0x40 }
  - { offsetInCU: 0x10A60, offset: 0x10A60, size: 0x8, addend: 0x0, symName: __ZNSt3__119__allocate_at_leastB8ue170006INS_9allocatorINS_12basic_stringIcNS_11char_traitsIcEENS1_IcEEEEEEEENS_19__allocation_resultINS_16allocator_traitsIT_E7pointerEEERSA_m, symObjAddr: 0x9B80, symBinAddr: 0x10000AA60, symSize: 0x40 }
  - { offsetInCU: 0x10AA3, offset: 0x10AA3, size: 0x8, addend: 0x0, symName: __ZNSt3__13minB8ue170006ImEERKT_S3_S3_, symObjAddr: 0x9C80, symBinAddr: 0x10000AB60, symSize: 0x30 }
  - { offsetInCU: 0x10CD0, offset: 0x10CD0, size: 0x8, addend: 0x0, symName: __ZNSt3__13minB8ue170006ImNS_6__lessIvvEEEERKT_S5_S5_T0_, symObjAddr: 0x9CE0, symBinAddr: 0x10000ABC0, symSize: 0x50 }
  - { offsetInCU: 0x10D2A, offset: 0x10D2A, size: 0x8, addend: 0x0, symName: __ZNSt3__120__throw_length_errorB8ue170006EPKc, symObjAddr: 0x9D60, symBinAddr: 0x10000AC40, symSize: 0x70 }
  - { offsetInCU: 0x10D54, offset: 0x10D54, size: 0x8, addend: 0x0, symName: __ZNSt3__130__uninitialized_allocator_copyB8ue170006INS_9allocatorINS_12basic_stringIcNS_11char_traitsIcEENS1_IcEEEEEEPS6_S8_S8_EET2_RT_T0_T1_S9_, symObjAddr: 0x9EF0, symBinAddr: 0x10000ADD0, symSize: 0x80 }
  - { offsetInCU: 0x10DF1, offset: 0x10DF1, size: 0x8, addend: 0x0, symName: __ZNSt3__114__unwrap_rangeB8ue170006IPNS_12basic_stringIcNS_11char_traitsIcEENS_9allocatorIcEEEES7_EENS_4pairIT0_S9_EET_SB_, symObjAddr: 0x9FD0, symBinAddr: 0x10000AEB0, symSize: 0x50 }
  - { offsetInCU: 0x10E3D, offset: 0x10E3D, size: 0x8, addend: 0x0, symName: __ZNSt3__135__uninitialized_allocator_copy_implB8ue170006INS_9allocatorINS_12basic_stringIcNS_11char_traitsIcEENS1_IcEEEEEEPS6_S8_S8_EET2_RT_T0_T1_S9_, symObjAddr: 0xA020, symBinAddr: 0x10000AF00, symSize: 0x100 }
  - { offsetInCU: 0x10EDB, offset: 0x10EDB, size: 0x8, addend: 0x0, symName: __ZNSt3__113__unwrap_iterB8ue170006IPNS_12basic_stringIcNS_11char_traitsIcEENS_9allocatorIcEEEENS_18__unwrap_iter_implIS7_Lb1EEELi0EEEDTclsrT0_8__unwrapclsr3stdE7declvalIT_EEEESB_, symObjAddr: 0xA120, symBinAddr: 0x10000B000, symSize: 0x20 }
  - { offsetInCU: 0x10F1F, offset: 0x10F1F, size: 0x8, addend: 0x0, symName: __ZNSt3__113__rewrap_iterB8ue170006IPNS_12basic_stringIcNS_11char_traitsIcEENS_9allocatorIcEEEES7_NS_18__unwrap_iter_implIS7_Lb1EEEEET_SA_T0_, symObjAddr: 0xA140, symBinAddr: 0x10000B020, symSize: 0x40 }
  - { offsetInCU: 0x10F74, offset: 0x10F74, size: 0x8, addend: 0x0, symName: __ZNSt3__19make_pairB8ue170006IPNS_12basic_stringIcNS_11char_traitsIcEENS_9allocatorIcEEEES7_EENS_4pairINS_18__unwrap_ref_decayIT_E4typeENS9_IT0_E4typeEEEOSA_OSD_, symObjAddr: 0xA180, symBinAddr: 0x10000B060, symSize: 0x30 }
  - { offsetInCU: 0x11097, offset: 0x11097, size: 0x8, addend: 0x0, symName: __ZNSt3__122__make_exception_guardB8ue170006INS_29_AllocatorDestroyRangeReverseINS_9allocatorINS_12basic_stringIcNS_11char_traitsIcEENS2_IcEEEEEEPS7_EEEENS_28__exception_guard_exceptionsIT_EESC_, symObjAddr: 0xA210, symBinAddr: 0x10000B0F0, symSize: 0x60 }
  - { offsetInCU: 0x110CC, offset: 0x110CC, size: 0x8, addend: 0x0, symName: __ZNSt3__119__allocator_destroyB8ue170006INS_9allocatorINS_12basic_stringIcNS_11char_traitsIcEENS1_IcEEEEEENS_16reverse_iteratorIPS6_EESA_EEvRT_T0_T1_, symObjAddr: 0xA4A0, symBinAddr: 0x10000B380, symSize: 0x70 }
  - { offsetInCU: 0x1112F, offset: 0x1112F, size: 0x8, addend: 0x0, symName: __ZNSt3__1neB8ue170006IPNS_12basic_stringIcNS_11char_traitsIcEENS_9allocatorIcEEEES7_EEbRKNS_16reverse_iteratorIT_EERKNS8_IT0_EE, symObjAddr: 0xA540, symBinAddr: 0x10000B420, symSize: 0x40 }
  - { offsetInCU: 0x1117B, offset: 0x1117B, size: 0x8, addend: 0x0, symName: __ZNSt3__112__to_addressB8ue170006INS_16reverse_iteratorIPNS_12basic_stringIcNS_11char_traitsIcEENS_9allocatorIcEEEEEEvEEu7__decayIDTclsr19__to_address_helperIT_EE6__callclsr3stdE7declvalIRKSA_EEEEESC_, symObjAddr: 0xA580, symBinAddr: 0x10000B460, symSize: 0x20 }
  - { offsetInCU: 0x1122D, offset: 0x1122D, size: 0x8, addend: 0x0, symName: __ZNSt3__110__distanceB8ue170006INS_11__wrap_iterIPK4FileEEEENS_15iterator_traitsIT_E15difference_typeES7_S7_NS_26random_access_iterator_tagE, symObjAddr: 0xA870, symBinAddr: 0x10000B750, symSize: 0x30 }
  - { offsetInCU: 0x1127A, offset: 0x1127A, size: 0x8, addend: 0x0, symName: __ZNSt3__1miB8ue170006IPK4FileS3_EEDTmicldtfp_4baseEcldtfp0_4baseEERKNS_11__wrap_iterIT_EERKNS5_IT0_EE, symObjAddr: 0xA8A0, symBinAddr: 0x10000B780, symSize: 0x40 }
  - { offsetInCU: 0x112C6, offset: 0x112C6, size: 0x8, addend: 0x0, symName: __ZNSt3__119__allocate_at_leastB8ue170006INS_9allocatorIjEEEENS_19__allocation_resultINS_16allocator_traitsIT_E7pointerEEERS5_m, symObjAddr: 0xB070, symBinAddr: 0x10000BF50, symSize: 0x40 }
  - { offsetInCU: 0x11309, offset: 0x11309, size: 0x8, addend: 0x0, symName: __ZNSt3__142__uninitialized_allocator_move_if_noexceptB8ue170006INS_9allocatorIjEENS_16reverse_iteratorIPjEES5_jvEET1_RT_T0_S9_S6_, symObjAddr: 0xB200, symBinAddr: 0x10000C0E0, symSize: 0x70 }
  - { offsetInCU: 0x11385, offset: 0x11385, size: 0x8, addend: 0x0, symName: __ZNSt3__14swapB8ue170006IPjEENS_9enable_ifIXaasr21is_move_constructibleIT_EE5valuesr18is_move_assignableIS3_EE5valueEvE4typeERS3_S6_, symObjAddr: 0xB2C0, symBinAddr: 0x10000C1A0, symSize: 0x40 }
  - { offsetInCU: 0x113D6, offset: 0x113D6, size: 0x8, addend: 0x0, symName: __ZNSt3__14moveB8ue170006INS_16reverse_iteratorIPjEES3_EET0_T_S5_S4_, symObjAddr: 0xB3B0, symBinAddr: 0x10000C290, symSize: 0x80 }
  - { offsetInCU: 0x11430, offset: 0x11430, size: 0x8, addend: 0x0, symName: __ZNSt3__16__moveB8ue170006INS_17_ClassicAlgPolicyENS_16reverse_iteratorIPjEES4_S4_EENS_4pairIT0_T2_EES6_T1_S7_, symObjAddr: 0xB430, symBinAddr: 0x10000C310, symSize: 0x90 }
  - { offsetInCU: 0x1149C, offset: 0x1149C, size: 0x8, addend: 0x0, symName: __ZNSt3__123__dispatch_copy_or_moveB8ue170006INS_17_ClassicAlgPolicyENS_11__move_loopIS1_EENS_14__move_trivialENS_16reverse_iteratorIPjEES7_S7_EENS_4pairIT2_T4_EES9_T3_SA_, symObjAddr: 0xB4C0, symBinAddr: 0x10000C3A0, symSize: 0x90 }
  - { offsetInCU: 0x1151A, offset: 0x1151A, size: 0x8, addend: 0x0, symName: __ZNSt3__121__unwrap_and_dispatchB8ue170006INS_10__overloadINS_11__move_loopINS_17_ClassicAlgPolicyEEENS_14__move_trivialEEENS_16reverse_iteratorIPjEES9_S9_Li0EEENS_4pairIT0_T2_EESB_T1_SC_, symObjAddr: 0xB550, symBinAddr: 0x10000C430, symSize: 0x210 }
  - { offsetInCU: 0x115A9, offset: 0x115A9, size: 0x8, addend: 0x0, symName: __ZNSt3__114__unwrap_rangeB8ue170006INS_16reverse_iteratorIPjEES3_EENS_4pairIT0_S5_EET_S7_, symObjAddr: 0xB760, symBinAddr: 0x10000C640, symSize: 0x90 }
  - { offsetInCU: 0x11724, offset: 0x11724, size: 0x8, addend: 0x0, symName: __ZNSt3__113__unwrap_iterB8ue170006INS_16reverse_iteratorIPjEENS_18__unwrap_iter_implIS3_Lb0EEELi0EEEDTclsrT0_8__unwrapclsr3stdE7declvalIT_EEEES7_, symObjAddr: 0xB890, symBinAddr: 0x10000C770, symSize: 0x40 }
  - { offsetInCU: 0x11768, offset: 0x11768, size: 0x8, addend: 0x0, symName: __ZNSt3__19make_pairB8ue170006INS_16reverse_iteratorIPjEES3_EENS_4pairINS_18__unwrap_ref_decayIT_E4typeENS5_IT0_E4typeEEEOS6_OS9_, symObjAddr: 0xB8D0, symBinAddr: 0x10000C7B0, symSize: 0x30 }
  - { offsetInCU: 0x117B7, offset: 0x117B7, size: 0x8, addend: 0x0, symName: __ZNSt3__114__rewrap_rangeB8ue170006INS_16reverse_iteratorIPjEES3_EET_S4_T0_, symObjAddr: 0xB900, symBinAddr: 0x10000C7E0, symSize: 0x60 }
  - { offsetInCU: 0x11803, offset: 0x11803, size: 0x8, addend: 0x0, symName: __ZNSt3__113__rewrap_iterB8ue170006INS_16reverse_iteratorIPjEES3_NS_18__unwrap_iter_implIS3_Lb0EEEEET_S6_T0_, symObjAddr: 0xB960, symBinAddr: 0x10000C840, symSize: 0x70 }
  - { offsetInCU: 0x11858, offset: 0x11858, size: 0x8, addend: 0x0, symName: __ZNSt3__1neB8ue170006IPjS1_EEbRKNS_16reverse_iteratorIT_EERKNS2_IT0_EE, symObjAddr: 0xB9D0, symBinAddr: 0x10000C8B0, symSize: 0x40 }
  - { offsetInCU: 0x119C4, offset: 0x119C4, size: 0x8, addend: 0x0, symName: __ZNSt3__118__constexpr_strlenB8ue170006EPKc, symObjAddr: 0xC110, symBinAddr: 0x10000CFF0, symSize: 0x20 }
  - { offsetInCU: 0x119F0, offset: 0x119F0, size: 0x8, addend: 0x0, symName: __ZNSt3__113__lower_boundB8ue170006INS_17_ClassicAlgPolicyENS_11__wrap_iterIPK4FileEES6_jNS_10__identityE12LowerFunctorEET0_S9_T1_RKT2_RT4_RT3_, symObjAddr: 0xC570, symBinAddr: 0x10000D450, symSize: 0x100 }
  - { offsetInCU: 0x11AC4, offset: 0x11AC4, size: 0x8, addend: 0x0, symName: __ZNSt3__115__half_positiveB8ue170006IlEENS_9enable_ifIXsr11is_integralIT_EE5valueES2_E4typeES2_, symObjAddr: 0xC6B0, symBinAddr: 0x10000D590, symSize: 0x20 }
  - { offsetInCU: 0x11AF9, offset: 0x11AF9, size: 0x8, addend: 0x0, symName: __ZNSt3__18__invokeB8ue170006IR12LowerFunctorJRK4FileRKjEEEDTclclsr3stdE7declvalIT_EEspclsr3stdE7declvalIT0_EEEEOS8_DpOS9_, symObjAddr: 0xC700, symBinAddr: 0x10000D5E0, symSize: 0x40 }
  - { offsetInCU: 0x11B5E, offset: 0x11B5E, size: 0x8, addend: 0x0, symName: __ZNSt3__18__invokeB8ue170006IRNS_10__identityEJRK4FileEEEDTclclsr3stdE7declvalIT_EEspclsr3stdE7declvalIT0_EEEEOS6_DpOS7_, symObjAddr: 0xC740, symBinAddr: 0x10000D620, symSize: 0x30 }
  - { offsetInCU: 0x11BAF, offset: 0x11BAF, size: 0x8, addend: 0x0, symName: __ZNSt3__121__convert_to_integralB8ue170006El, symObjAddr: 0xC7E0, symBinAddr: 0x10000D6C0, symSize: 0x10 }
  - { offsetInCU: 0x11BDB, offset: 0x11BDB, size: 0x8, addend: 0x0, symName: __ZNSt3__19__advanceB8ue170006INS_11__wrap_iterIPK4FileEEEEvRT_NS_15iterator_traitsIS6_E15difference_typeENS_26random_access_iterator_tagE, symObjAddr: 0xC7F0, symBinAddr: 0x10000D6D0, symSize: 0x30 }
  - { offsetInCU: 0x11C51, offset: 0x11C51, size: 0x8, addend: 0x0, symName: __ZNSt3__113__upper_boundB8ue170006INS_17_ClassicAlgPolicyE12UpperFunctorNS_11__wrap_iterIPK4FileEES7_jNS_10__identityEEET1_S9_T2_RKT3_OT0_OT4_, symObjAddr: 0xC890, symBinAddr: 0x10000D770, symSize: 0x100 }
  - { offsetInCU: 0x11D25, offset: 0x11D25, size: 0x8, addend: 0x0, symName: __ZNSt3__18__invokeB8ue170006IR12UpperFunctorJRKjRK4FileEEEDTclclsr3stdE7declvalIT_EEspclsr3stdE7declvalIT0_EEEEOS8_DpOS9_, symObjAddr: 0xC9D0, symBinAddr: 0x10000D8B0, symSize: 0x40 }
  - { offsetInCU: 0x11D8A, offset: 0x11D8A, size: 0x8, addend: 0x0, symName: __ZNSt3__14nextB8ue170006INS_11__wrap_iterIPK4FileEEEENS_9enable_ifIXsr29__has_input_iterator_categoryIT_EE5valueES7_E4typeES7_NS_15iterator_traitsIS7_E15difference_typeE, symObjAddr: 0xCA10, symBinAddr: 0x10000D8F0, symSize: 0x30 }
  - { offsetInCU: 0x11E8D, offset: 0x11E8D, size: 0x8, addend: 0x0, symName: __ZNSt3__1eqB8ue170006ERKNS_21__hash_const_iteratorIPNS_11__hash_nodeIjPvEEEES7_, symObjAddr: 0xD510, symBinAddr: 0x10000E3F0, symSize: 0x30 }
  - { offsetInCU: 0x12399, offset: 0x12399, size: 0x8, addend: 0x0, symName: __ZSt28__throw_bad_array_new_lengthB8ue170006v, symObjAddr: 0x7980, symBinAddr: 0x100008860, symSize: 0x40 }
  - { offsetInCU: 0x132D3, offset: 0x132D3, size: 0x8, addend: 0x0, symName: __ZNSt3__16vectorIjNS_9allocatorIjEEE26__swap_out_circular_bufferERNS_14__split_bufferIjRS2_EE, symObjAddr: 0xAD20, symBinAddr: 0x10000BC00, symSize: 0x120 }
  - { offsetInCU: 0x15A2C, offset: 0x15A2C, size: 0x8, addend: 0x0, symName: __Z9make_fileNSt3__112basic_stringIcNS_11char_traitsIcEENS_9allocatorIcEEEEyb, symObjAddr: 0x0, symBinAddr: 0x100000EE0, symSize: 0xB0 }
  - { offsetInCU: 0x15A85, offset: 0x15A85, size: 0x8, addend: 0x0, symName: __ZN4FileC1Ev, symObjAddr: 0xB0, symBinAddr: 0x100000F90, symSize: 0x20 }
  - { offsetInCU: 0x15AAF, offset: 0x15AAF, size: 0x8, addend: 0x0, symName: __ZN4FileD1Ev, symObjAddr: 0xD0, symBinAddr: 0x100000FB0, symSize: 0x20 }
  - { offsetInCU: 0x15ADA, offset: 0x15ADA, size: 0x8, addend: 0x0, symName: __Z22test_empty_masterfilesv, symObjAddr: 0xF0, symBinAddr: 0x100000FD0, symSize: 0x160 }
  - { offsetInCU: 0x15DD4, offset: 0x15DD4, size: 0x8, addend: 0x0, symName: __ZN11MasterFilesC1Ev, symObjAddr: 0x250, symBinAddr: 0x100001130, symSize: 0x20 }
  - { offsetInCU: 0x15DFE, offset: 0x15DFE, size: 0x8, addend: 0x0, symName: __ZNK11MasterFiles9get_filesEv, symObjAddr: 0x270, symBinAddr: 0x100001150, symSize: 0x20 }
  - { offsetInCU: 0x15E24, offset: 0x15E24, size: 0x8, addend: 0x0, symName: __ZNKSt3__16vectorI4FileNS_9allocatorIS1_EEE4sizeB8ue170006Ev, symObjAddr: 0x290, symBinAddr: 0x100001170, symSize: 0x30 }
  - { offsetInCU: 0x15E4A, offset: 0x15E4A, size: 0x8, addend: 0x0, symName: __ZN11MasterFiles13get_num_dupesERKNSt3__112basic_stringIcNS0_11char_traitsIcEENS0_9allocatorIcEEEE, symObjAddr: 0x2C0, symBinAddr: 0x1000011A0, symSize: 0x140 }
  - { offsetInCU: 0x15E91, offset: 0x15E91, size: 0x8, addend: 0x0, symName: __ZNSt3__112basic_stringIcNS_11char_traitsIcEENS_9allocatorIcEEEC1B8ue170006ILi0EEEPKc, symObjAddr: 0x400, symBinAddr: 0x1000012E0, symSize: 0x30 }
  - { offsetInCU: 0x15ED0, offset: 0x15ED0, size: 0x8, addend: 0x0, symName: __ZN11MasterFilesD1Ev, symObjAddr: 0x470, symBinAddr: 0x100001350, symSize: 0x20 }
  - { offsetInCU: 0x15EFB, offset: 0x15EFB, size: 0x8, addend: 0x0, symName: __Z24test_duplicate_filenamesv, symObjAddr: 0x490, symBinAddr: 0x100001370, symSize: 0x300 }
  - { offsetInCU: 0x15F42, offset: 0x15F42, size: 0x8, addend: 0x0, symName: __ZN4FileC1ERKS_, symObjAddr: 0x790, symBinAddr: 0x100001670, symSize: 0x30 }
  - { offsetInCU: 0x15F76, offset: 0x15F76, size: 0x8, addend: 0x0, symName: __Z25test_invalid_index_accessv, symObjAddr: 0x7C0, symBinAddr: 0x1000016A0, symSize: 0xE0 }
  - { offsetInCU: 0x15F9F, offset: 0x15F9F, size: 0x8, addend: 0x0, symName: __ZN11MasterFiles15print_filenamesEji, symObjAddr: 0x8A0, symBinAddr: 0x100001780, symSize: 0x100 }
  - { offsetInCU: 0x15FFC, offset: 0x15FFC, size: 0x8, addend: 0x0, symName: __Z23test_timestamp_creationv, symObjAddr: 0x9B0, symBinAddr: 0x100001890, symSize: 0x1C0 }
  - { offsetInCU: 0x16025, offset: 0x16025, size: 0x8, addend: 0x0, symName: __ZN11MasterFiles16create_timestampEjjj, symObjAddr: 0xB70, symBinAddr: 0x100001A50, symSize: 0x1D0 }
  - { offsetInCU: 0x160A4, offset: 0x160A4, size: 0x8, addend: 0x0, symName: __Z21test_sorting_behaviorv, symObjAddr: 0xD40, symBinAddr: 0x100001C20, symSize: 0x500 }
  - { offsetInCU: 0x160FA, offset: 0x160FA, size: 0x8, addend: 0x0, symName: __ZN11MasterFiles8get_nameEj, symObjAddr: 0x12D0, symBinAddr: 0x1000021B0, symSize: 0x50 }
  - { offsetInCU: 0x1612D, offset: 0x1612D, size: 0x8, addend: 0x0, symName: __Z27test_sorting_same_timestampv, symObjAddr: 0x1320, symBinAddr: 0x100002200, symSize: 0x500 }
  - { offsetInCU: 0x16182, offset: 0x16182, size: 0x8, addend: 0x0, symName: __Z31test_sorting_multiple_favoritesv, symObjAddr: 0x1820, symBinAddr: 0x100002700, symSize: 0x690 }
  - { offsetInCU: 0x161E6, offset: 0x161E6, size: 0x8, addend: 0x0, symName: __Z19test_search_by_dateRNSt3__112basic_stringIcNS_11char_traitsIcEENS_9allocatorIcEEEE, symObjAddr: 0x1EB0, symBinAddr: 0x100002D90, symSize: 0x590 }
  - { offsetInCU: 0x16319, offset: 0x16319, size: 0x8, addend: 0x0, symName: __ZNSt3__119basic_istringstreamIcNS_11char_traitsIcEENS_9allocatorIcEEEC1B8ue170006ERKNS_12basic_stringIcS2_S4_EEj, symObjAddr: 0x2440, symBinAddr: 0x100003320, symSize: 0xE0 }
  - { offsetInCU: 0x16361, offset: 0x16361, size: 0x8, addend: 0x0, symName: __ZNSt3__19basic_iosIcNS_11char_traitsIcEEE5rdbufB8ue170006EPNS_15basic_streambufIcS2_EE, symObjAddr: 0x2520, symBinAddr: 0x100003400, symSize: 0x40 }
  - { offsetInCU: 0x163A7, offset: 0x163A7, size: 0x8, addend: 0x0, symName: __ZNKSt3__119basic_istringstreamIcNS_11char_traitsIcEENS_9allocatorIcEEE5rdbufB8ue170006Ev, symObjAddr: 0x2560, symBinAddr: 0x100003440, symSize: 0x20 }
  - { offsetInCU: 0x163D2, offset: 0x163D2, size: 0x8, addend: 0x0, symName: __ZNSt3__119basic_istringstreamIcNS_11char_traitsIcEENS_9allocatorIcEEED1Ev, symObjAddr: 0x2580, symBinAddr: 0x100003460, symSize: 0x40 }
  - { offsetInCU: 0x163FE, offset: 0x163FE, size: 0x8, addend: 0x0, symName: __Z31test_search_boundary_conditionsv, symObjAddr: 0x25C0, symBinAddr: 0x1000034A0, symSize: 0x5A0 }
  - { offsetInCU: 0x16490, offset: 0x16490, size: 0x8, addend: 0x0, symName: __ZNKSt3__16vectorI4FileNS_9allocatorIS1_EEE5beginB8ue170006Ev, symObjAddr: 0x2BC0, symBinAddr: 0x100003AA0, symSize: 0x30 }
  - { offsetInCU: 0x164B8, offset: 0x164B8, size: 0x8, addend: 0x0, symName: __ZNKSt3__16vectorI4FileNS_9allocatorIS1_EEE3endB8ue170006Ev, symObjAddr: 0x2BF0, symBinAddr: 0x100003AD0, symSize: 0x30 }
  - { offsetInCU: 0x164DF, offset: 0x164DF, size: 0x8, addend: 0x0, symName: __Z19test_update_indicesv, symObjAddr: 0x2CB0, symBinAddr: 0x100003B90, symSize: 0x3B0 }
  - { offsetInCU: 0x16526, offset: 0x16526, size: 0x8, addend: 0x0, symName: __ZN11MasterFiles14update_indicesEj, symObjAddr: 0x3060, symBinAddr: 0x100003F40, symSize: 0x170 }
  - { offsetInCU: 0x16598, offset: 0x16598, size: 0x8, addend: 0x0, symName: __Z21test_search_wildcardsv, symObjAddr: 0x31D0, symBinAddr: 0x1000040B0, symSize: 0x820 }
  - { offsetInCU: 0x16698, offset: 0x16698, size: 0x8, addend: 0x0, symName: __ZNSt3__113unordered_setIjNS_4hashIjEENS_8equal_toIjEENS_9allocatorIjEEEC1B8ue170006Ev, symObjAddr: 0x39F0, symBinAddr: 0x1000048D0, symSize: 0x20 }
  - { offsetInCU: 0x166C2, offset: 0x166C2, size: 0x8, addend: 0x0, symName: __ZNSt3__113unordered_setIjNS_4hashIjEENS_8equal_toIjEENS_9allocatorIjEEE5beginB8ue170006Ev, symObjAddr: 0x3A10, symBinAddr: 0x1000048F0, symSize: 0x30 }
  - { offsetInCU: 0x166E8, offset: 0x166E8, size: 0x8, addend: 0x0, symName: __ZNSt3__113unordered_setIjNS_4hashIjEENS_8equal_toIjEENS_9allocatorIjEEE3endB8ue170006Ev, symObjAddr: 0x3A40, symBinAddr: 0x100004920, symSize: 0x30 }
  - { offsetInCU: 0x1670E, offset: 0x1670E, size: 0x8, addend: 0x0, symName: __ZNKSt3__121__hash_const_iteratorIPNS_11__hash_nodeIjPvEEEdeB8ue170006Ev, symObjAddr: 0x3AA0, symBinAddr: 0x100004980, symSize: 0x30 }
  - { offsetInCU: 0x16734, offset: 0x16734, size: 0x8, addend: 0x0, symName: __ZNSt3__121__hash_const_iteratorIPNS_11__hash_nodeIjPvEEEppB8ue170006Ev, symObjAddr: 0x3AD0, symBinAddr: 0x1000049B0, symSize: 0x20 }
  - { offsetInCU: 0x1675A, offset: 0x1675A, size: 0x8, addend: 0x0, symName: __ZNKSt3__113unordered_setIjNS_4hashIjEENS_8equal_toIjEENS_9allocatorIjEEE4sizeB8ue170006Ev, symObjAddr: 0x3AF0, symBinAddr: 0x1000049D0, symSize: 0x20 }
  - { offsetInCU: 0x16780, offset: 0x16780, size: 0x8, addend: 0x0, symName: __ZNSt3__113unordered_setIjNS_4hashIjEENS_8equal_toIjEENS_9allocatorIjEEE5clearB8ue170006Ev, symObjAddr: 0x3B10, symBinAddr: 0x1000049F0, symSize: 0x20 }
  - { offsetInCU: 0x167A6, offset: 0x167A6, size: 0x8, addend: 0x0, symName: __ZNSt3__113unordered_setIjNS_4hashIjEENS_8equal_toIjEENS_9allocatorIjEEED1B8ue170006Ev, symObjAddr: 0x3B30, symBinAddr: 0x100004A10, symSize: 0x20 }
  - { offsetInCU: 0x167D0, offset: 0x167D0, size: 0x8, addend: 0x0, symName: _main, symObjAddr: 0x3B50, symBinAddr: 0x100004A30, symSize: 0x1A0 }
  - { offsetInCU: 0x16815, offset: 0x16815, size: 0x8, addend: 0x0, symName: __ZNSt3__112basic_stringIcNS_11char_traitsIcEENS_9allocatorIcEEEaSB8ue170006EPKc, symObjAddr: 0x3CF0, symBinAddr: 0x100004BD0, symSize: 0x30 }
  - { offsetInCU: 0x1684A, offset: 0x1684A, size: 0x8, addend: 0x0, symName: __ZN4FileC2Ev, symObjAddr: 0x3D20, symBinAddr: 0x100004C00, symSize: 0x90 }
  - { offsetInCU: 0x16874, offset: 0x16874, size: 0x8, addend: 0x0, symName: __ZNSt3__16vectorINS_12basic_stringIcNS_11char_traitsIcEENS_9allocatorIcEEEENS4_IS6_EEEC1B8ue170006Ev, symObjAddr: 0x3DB0, symBinAddr: 0x100004C90, symSize: 0x20 }
  - { offsetInCU: 0x1689E, offset: 0x1689E, size: 0x8, addend: 0x0, symName: __ZNSt3__16vectorINS_12basic_stringIcNS_11char_traitsIcEENS_9allocatorIcEEEENS4_IS6_EEEC2B8ue170006Ev, symObjAddr: 0x3DD0, symBinAddr: 0x100004CB0, symSize: 0x50 }
  - { offsetInCU: 0x168D4, offset: 0x168D4, size: 0x8, addend: 0x0, symName: __ZNSt3__117__compressed_pairIPNS_12basic_stringIcNS_11char_traitsIcEENS_9allocatorIcEEEENS4_IS6_EEEC1B8ue170006IDnNS_18__default_init_tagEEEOT_OT0_, symObjAddr: 0x3E20, symBinAddr: 0x100004D00, symSize: 0x30 }
  - { offsetInCU: 0x1692C, offset: 0x1692C, size: 0x8, addend: 0x0, symName: __ZNSt3__117__compressed_pairIPNS_12basic_stringIcNS_11char_traitsIcEENS_9allocatorIcEEEENS4_IS6_EEEC2B8ue170006IDnNS_18__default_init_tagEEEOT_OT0_, symObjAddr: 0x3E50, symBinAddr: 0x100004D30, symSize: 0x40 }
  - { offsetInCU: 0x16984, offset: 0x16984, size: 0x8, addend: 0x0, symName: __ZNSt3__122__compressed_pair_elemIPNS_12basic_stringIcNS_11char_traitsIcEENS_9allocatorIcEEEELi0ELb0EEC2B8ue170006IDnvEEOT_, symObjAddr: 0x3E90, symBinAddr: 0x100004D70, symSize: 0x20 }
  - { offsetInCU: 0x169C6, offset: 0x169C6, size: 0x8, addend: 0x0, symName: __ZNSt3__122__compressed_pair_elemINS_9allocatorINS_12basic_stringIcNS_11char_traitsIcEENS1_IcEEEEEELi1ELb1EEC2B8ue170006ENS_18__default_init_tagE, symObjAddr: 0x3EB0, symBinAddr: 0x100004D90, symSize: 0x20 }
  - { offsetInCU: 0x169FA, offset: 0x169FA, size: 0x8, addend: 0x0, symName: __ZNSt3__19allocatorINS_12basic_stringIcNS_11char_traitsIcEENS0_IcEEEEEC2B8ue170006Ev, symObjAddr: 0x3ED0, symBinAddr: 0x100004DB0, symSize: 0x20 }
  - { offsetInCU: 0x16A24, offset: 0x16A24, size: 0x8, addend: 0x0, symName: __ZNSt3__116__non_trivial_ifILb1ENS_9allocatorINS_12basic_stringIcNS_11char_traitsIcEENS1_IcEEEEEEEC2B8ue170006Ev, symObjAddr: 0x3EF0, symBinAddr: 0x100004DD0, symSize: 0x10 }
  - { offsetInCU: 0x16A4E, offset: 0x16A4E, size: 0x8, addend: 0x0, symName: __ZN4FileD2Ev, symObjAddr: 0x3F00, symBinAddr: 0x100004DE0, symSize: 0x40 }
  - { offsetInCU: 0x16A7A, offset: 0x16A7A, size: 0x8, addend: 0x0, symName: __ZNSt3__16vectorINS_12basic_stringIcNS_11char_traitsIcEENS_9allocatorIcEEEENS4_IS6_EEED1B8ue170006Ev, symObjAddr: 0x3F40, symBinAddr: 0x100004E20, symSize: 0x20 }
  - { offsetInCU: 0x16AA4, offset: 0x16AA4, size: 0x8, addend: 0x0, symName: __ZNSt3__16vectorINS_12basic_stringIcNS_11char_traitsIcEENS_9allocatorIcEEEENS4_IS6_EEED2B8ue170006Ev, symObjAddr: 0x3F60, symBinAddr: 0x100004E40, symSize: 0x40 }
  - { offsetInCU: 0x16ACE, offset: 0x16ACE, size: 0x8, addend: 0x0, symName: __ZNSt3__16vectorINS_12basic_stringIcNS_11char_traitsIcEENS_9allocatorIcEEEENS4_IS6_EEE16__destroy_vectorC1B8ue170006ERS8_, symObjAddr: 0x3FA0, symBinAddr: 0x100004E80, symSize: 0x30 }
  - { offsetInCU: 0x16B07, offset: 0x16B07, size: 0x8, addend: 0x0, symName: __ZNSt3__16vectorINS_12basic_stringIcNS_11char_traitsIcEENS_9allocatorIcEEEENS4_IS6_EEE16__destroy_vectorclB8ue170006Ev, symObjAddr: 0x3FD0, symBinAddr: 0x100004EB0, symSize: 0x80 }
  - { offsetInCU: 0x16B2D, offset: 0x16B2D, size: 0x8, addend: 0x0, symName: __ZNSt3__16vectorINS_12basic_stringIcNS_11char_traitsIcEENS_9allocatorIcEEEENS4_IS6_EEE16__destroy_vectorC2B8ue170006ERS8_, symObjAddr: 0x4050, symBinAddr: 0x100004F30, symSize: 0x20 }
  - { offsetInCU: 0x16B66, offset: 0x16B66, size: 0x8, addend: 0x0, symName: __ZNSt3__16vectorINS_12basic_stringIcNS_11char_traitsIcEENS_9allocatorIcEEEENS4_IS6_EEE7__clearB8ue170006Ev, symObjAddr: 0x4070, symBinAddr: 0x100004F50, symSize: 0x20 }
  - { offsetInCU: 0x16B8C, offset: 0x16B8C, size: 0x8, addend: 0x0, symName: __ZNKSt3__16vectorINS_12basic_stringIcNS_11char_traitsIcEENS_9allocatorIcEEEENS4_IS6_EEE17__annotate_deleteB8ue170006Ev, symObjAddr: 0x4090, symBinAddr: 0x100004F70, symSize: 0xB0 }
  - { offsetInCU: 0x16BB2, offset: 0x16BB2, size: 0x8, addend: 0x0, symName: __ZNSt3__116allocator_traitsINS_9allocatorINS_12basic_stringIcNS_11char_traitsIcEENS1_IcEEEEEEE10deallocateB8ue170006ERS7_PS6_m, symObjAddr: 0x4140, symBinAddr: 0x100005020, symSize: 0x30 }
  - { offsetInCU: 0x16BF4, offset: 0x16BF4, size: 0x8, addend: 0x0, symName: __ZNSt3__16vectorINS_12basic_stringIcNS_11char_traitsIcEENS_9allocatorIcEEEENS4_IS6_EEE7__allocB8ue170006Ev, symObjAddr: 0x4170, symBinAddr: 0x100005050, symSize: 0x20 }
  - { offsetInCU: 0x16C1A, offset: 0x16C1A, size: 0x8, addend: 0x0, symName: __ZNKSt3__16vectorINS_12basic_stringIcNS_11char_traitsIcEENS_9allocatorIcEEEENS4_IS6_EEE8capacityB8ue170006Ev, symObjAddr: 0x4190, symBinAddr: 0x100005070, symSize: 0x40 }
  - { offsetInCU: 0x16C40, offset: 0x16C40, size: 0x8, addend: 0x0, symName: __ZNSt3__16vectorINS_12basic_stringIcNS_11char_traitsIcEENS_9allocatorIcEEEENS4_IS6_EEE22__base_destruct_at_endB8ue170006EPS6_, symObjAddr: 0x41D0, symBinAddr: 0x1000050B0, symSize: 0x80 }
  - { offsetInCU: 0x16C84, offset: 0x16C84, size: 0x8, addend: 0x0, symName: __ZNSt3__116allocator_traitsINS_9allocatorINS_12basic_stringIcNS_11char_traitsIcEENS1_IcEEEEEEE7destroyB8ue170006IS6_vEEvRS7_PT_, symObjAddr: 0x4250, symBinAddr: 0x100005130, symSize: 0x30 }
  - { offsetInCU: 0x16CC1, offset: 0x16CC1, size: 0x8, addend: 0x0, symName: __ZNSt3__19allocatorINS_12basic_stringIcNS_11char_traitsIcEENS0_IcEEEEE7destroyB8ue170006EPS5_, symObjAddr: 0x4290, symBinAddr: 0x100005170, symSize: 0x20 }
  - { offsetInCU: 0x16CF5, offset: 0x16CF5, size: 0x8, addend: 0x0, symName: __ZNKSt3__16vectorINS_12basic_stringIcNS_11char_traitsIcEENS_9allocatorIcEEEENS4_IS6_EEE31__annotate_contiguous_containerB8ue170006EPKvSA_SA_SA_, symObjAddr: 0x42B0, symBinAddr: 0x100005190, symSize: 0x20 }
  - { offsetInCU: 0x16D47, offset: 0x16D47, size: 0x8, addend: 0x0, symName: __ZNKSt3__16vectorINS_12basic_stringIcNS_11char_traitsIcEENS_9allocatorIcEEEENS4_IS6_EEE4dataB8ue170006Ev, symObjAddr: 0x42D0, symBinAddr: 0x1000051B0, symSize: 0x20 }
  - { offsetInCU: 0x16D6D, offset: 0x16D6D, size: 0x8, addend: 0x0, symName: __ZNKSt3__16vectorINS_12basic_stringIcNS_11char_traitsIcEENS_9allocatorIcEEEENS4_IS6_EEE4sizeB8ue170006Ev, symObjAddr: 0x42F0, symBinAddr: 0x1000051D0, symSize: 0x30 }
  - { offsetInCU: 0x16D93, offset: 0x16D93, size: 0x8, addend: 0x0, symName: __ZNSt3__19allocatorINS_12basic_stringIcNS_11char_traitsIcEENS0_IcEEEEE10deallocateB8ue170006EPS5_m, symObjAddr: 0x4320, symBinAddr: 0x100005200, symSize: 0x50 }
  - { offsetInCU: 0x16DD5, offset: 0x16DD5, size: 0x8, addend: 0x0, symName: __ZNSt3__117__compressed_pairIPNS_12basic_stringIcNS_11char_traitsIcEENS_9allocatorIcEEEENS4_IS6_EEE6secondB8ue170006Ev, symObjAddr: 0x4490, symBinAddr: 0x100005370, symSize: 0x20 }
  - { offsetInCU: 0x16DFB, offset: 0x16DFB, size: 0x8, addend: 0x0, symName: __ZNSt3__122__compressed_pair_elemINS_9allocatorINS_12basic_stringIcNS_11char_traitsIcEENS1_IcEEEEEELi1ELb1EE5__getB8ue170006Ev, symObjAddr: 0x44B0, symBinAddr: 0x100005390, symSize: 0x10 }
  - { offsetInCU: 0x16E21, offset: 0x16E21, size: 0x8, addend: 0x0, symName: __ZNKSt3__16vectorINS_12basic_stringIcNS_11char_traitsIcEENS_9allocatorIcEEEENS4_IS6_EEE9__end_capB8ue170006Ev, symObjAddr: 0x44C0, symBinAddr: 0x1000053A0, symSize: 0x20 }
  - { offsetInCU: 0x16E47, offset: 0x16E47, size: 0x8, addend: 0x0, symName: __ZNKSt3__117__compressed_pairIPNS_12basic_stringIcNS_11char_traitsIcEENS_9allocatorIcEEEENS4_IS6_EEE5firstB8ue170006Ev, symObjAddr: 0x44E0, symBinAddr: 0x1000053C0, symSize: 0x20 }
  - { offsetInCU: 0x16E6D, offset: 0x16E6D, size: 0x8, addend: 0x0, symName: __ZNKSt3__122__compressed_pair_elemIPNS_12basic_stringIcNS_11char_traitsIcEENS_9allocatorIcEEEELi0ELb0EE5__getB8ue170006Ev, symObjAddr: 0x4500, symBinAddr: 0x1000053E0, symSize: 0x10 }
  - { offsetInCU: 0x16E93, offset: 0x16E93, size: 0x8, addend: 0x0, symName: __ZN11MasterFilesC2Ev, symObjAddr: 0x4510, symBinAddr: 0x1000053F0, symSize: 0x30 }
  - { offsetInCU: 0x16EBD, offset: 0x16EBD, size: 0x8, addend: 0x0, symName: __ZNSt3__113unordered_mapINS_12basic_stringIcNS_11char_traitsIcEENS_9allocatorIcEEEENS_6vectorIjNS4_IjEEEENS_4hashIS6_EENS_8equal_toIS6_EENS4_INS_4pairIKS6_S9_EEEEEC1B8ue170006Ev, symObjAddr: 0x4540, symBinAddr: 0x100005420, symSize: 0x20 }
  - { offsetInCU: 0x16EE7, offset: 0x16EE7, size: 0x8, addend: 0x0, symName: __ZNSt3__16vectorI4FileNS_9allocatorIS1_EEEC1B8ue170006Ev, symObjAddr: 0x4560, symBinAddr: 0x100005440, symSize: 0x20 }
  - { offsetInCU: 0x16F11, offset: 0x16F11, size: 0x8, addend: 0x0, symName: __ZNSt3__113unordered_mapINS_12basic_stringIcNS_11char_traitsIcEENS_9allocatorIcEEEENS_6vectorIjNS4_IjEEEENS_4hashIS6_EENS_8equal_toIS6_EENS4_INS_4pairIKS6_S9_EEEEEC2B8ue170006Ev, symObjAddr: 0x4580, symBinAddr: 0x100005460, symSize: 0x20 }
  - { offsetInCU: 0x16F3B, offset: 0x16F3B, size: 0x8, addend: 0x0, symName: __ZNSt3__112__hash_tableINS_17__hash_value_typeINS_12basic_stringIcNS_11char_traitsIcEENS_9allocatorIcEEEENS_6vectorIjNS5_IjEEEEEENS_22__unordered_map_hasherIS7_SB_NS_4hashIS7_EENS_8equal_toIS7_EELb1EEENS_21__unordered_map_equalIS7_SB_SG_SE_Lb1EEENS5_ISB_EEEC1Ev, symObjAddr: 0x45A0, symBinAddr: 0x100005480, symSize: 0x20 }
  - { offsetInCU: 0x16F67, offset: 0x16F67, size: 0x8, addend: 0x0, symName: __ZNSt3__112__hash_tableINS_17__hash_value_typeINS_12basic_stringIcNS_11char_traitsIcEENS_9allocatorIcEEEENS_6vectorIjNS5_IjEEEEEENS_22__unordered_map_hasherIS7_SB_NS_4hashIS7_EENS_8equal_toIS7_EELb1EEENS_21__unordered_map_equalIS7_SB_SG_SE_Lb1EEENS5_ISB_EEEC2Ev, symObjAddr: 0x45C0, symBinAddr: 0x1000054A0, symSize: 0x80 }
  - { offsetInCU: 0x16F93, offset: 0x16F93, size: 0x8, addend: 0x0, symName: __ZNSt3__110unique_ptrIA_PNS_16__hash_node_baseIPNS_11__hash_nodeINS_17__hash_value_typeINS_12basic_stringIcNS_11char_traitsIcEENS_9allocatorIcEEEENS_6vectorIjNS7_IjEEEEEEPvEEEENS_25__bucket_list_deallocatorINS7_ISI_EEEEEC1B8ue170006ILb1EvEEv, symObjAddr: 0x4640, symBinAddr: 0x100005520, symSize: 0x20 }
  - { offsetInCU: 0x16FC8, offset: 0x16FC8, size: 0x8, addend: 0x0, symName: __ZNSt3__117__compressed_pairINS_16__hash_node_baseIPNS_11__hash_nodeINS_17__hash_value_typeINS_12basic_stringIcNS_11char_traitsIcEENS_9allocatorIcEEEENS_6vectorIjNS7_IjEEEEEEPvEEEENS7_ISF_EEEC1B8ue170006ILb1EvEEv, symObjAddr: 0x4660, symBinAddr: 0x100005540, symSize: 0x20 }
  - { offsetInCU: 0x17003, offset: 0x17003, size: 0x8, addend: 0x0, symName: __ZNSt3__117__compressed_pairImNS_22__unordered_map_hasherINS_12basic_stringIcNS_11char_traitsIcEENS_9allocatorIcEEEENS_17__hash_value_typeIS7_NS_6vectorIjNS5_IjEEEEEENS_4hashIS7_EENS_8equal_toIS7_EELb1EEEEC1B8ue170006IiNS_18__default_init_tagEEEOT_OT0_, symObjAddr: 0x4680, symBinAddr: 0x100005560, symSize: 0x30 }
  - { offsetInCU: 0x17061, offset: 0x17061, size: 0x8, addend: 0x0, symName: __ZNSt3__117__compressed_pairIfNS_21__unordered_map_equalINS_12basic_stringIcNS_11char_traitsIcEENS_9allocatorIcEEEENS_17__hash_value_typeIS7_NS_6vectorIjNS5_IjEEEEEENS_8equal_toIS7_EENS_4hashIS7_EELb1EEEEC1B8ue170006IfNS_18__default_init_tagEEEOT_OT0_, symObjAddr: 0x46B0, symBinAddr: 0x100005590, symSize: 0x30 }
  - { offsetInCU: 0x170B9, offset: 0x170B9, size: 0x8, addend: 0x0, symName: __ZNSt3__110unique_ptrIA_PNS_16__hash_node_baseIPNS_11__hash_nodeINS_17__hash_value_typeINS_12basic_stringIcNS_11char_traitsIcEENS_9allocatorIcEEEENS_6vectorIjNS7_IjEEEEEEPvEEEENS_25__bucket_list_deallocatorINS7_ISI_EEEEEC2B8ue170006ILb1EvEEv, symObjAddr: 0x46E0, symBinAddr: 0x1000055C0, symSize: 0x30 }
  - { offsetInCU: 0x170F4, offset: 0x170F4, size: 0x8, addend: 0x0, symName: __ZNSt3__117__compressed_pairIPPNS_16__hash_node_baseIPNS_11__hash_nodeINS_17__hash_value_typeINS_12basic_stringIcNS_11char_traitsIcEENS_9allocatorIcEEEENS_6vectorIjNS7_IjEEEEEEPvEEEENS_25__bucket_list_deallocatorINS7_ISI_EEEEEC1B8ue170006INS_16__value_init_tagESP_EEOT_OT0_, symObjAddr: 0x4710, symBinAddr: 0x1000055F0, symSize: 0x30 }
  - { offsetInCU: 0x1714C, offset: 0x1714C, size: 0x8, addend: 0x0, symName: __ZNSt3__117__compressed_pairIPPNS_16__hash_node_baseIPNS_11__hash_nodeINS_17__hash_value_typeINS_12basic_stringIcNS_11char_traitsIcEENS_9allocatorIcEEEENS_6vectorIjNS7_IjEEEEEEPvEEEENS_25__bucket_list_deallocatorINS7_ISI_EEEEEC2B8ue170006INS_16__value_init_tagESP_EEOT_OT0_, symObjAddr: 0x4740, symBinAddr: 0x100005620, symSize: 0x40 }
  - { offsetInCU: 0x171A4, offset: 0x171A4, size: 0x8, addend: 0x0, symName: __ZNSt3__122__compressed_pair_elemIPPNS_16__hash_node_baseIPNS_11__hash_nodeINS_17__hash_value_typeINS_12basic_stringIcNS_11char_traitsIcEENS_9allocatorIcEEEENS_6vectorIjNS7_IjEEEEEEPvEEEELi0ELb0EEC2B8ue170006ENS_16__value_init_tagE, symObjAddr: 0x4780, symBinAddr: 0x100005660, symSize: 0x20 }
  - { offsetInCU: 0x171D8, offset: 0x171D8, size: 0x8, addend: 0x0, symName: __ZNSt3__122__compressed_pair_elemINS_25__bucket_list_deallocatorINS_9allocatorIPNS_16__hash_node_baseIPNS_11__hash_nodeINS_17__hash_value_typeINS_12basic_stringIcNS_11char_traitsIcEENS2_IcEEEENS_6vectorIjNS2_IjEEEEEEPvEEEEEEEELi1ELb0EEC2B8ue170006ENS_16__value_init_tagE, symObjAddr: 0x47A0, symBinAddr: 0x100005680, symSize: 0x20 }
  - { offsetInCU: 0x1720C, offset: 0x1720C, size: 0x8, addend: 0x0, symName: __ZNSt3__125__bucket_list_deallocatorINS_9allocatorIPNS_16__hash_node_baseIPNS_11__hash_nodeINS_17__hash_value_typeINS_12basic_stringIcNS_11char_traitsIcEENS1_IcEEEENS_6vectorIjNS1_IjEEEEEEPvEEEEEEEC1B8ue170006Ev, symObjAddr: 0x47C0, symBinAddr: 0x1000056A0, symSize: 0x20 }
  - { offsetInCU: 0x17236, offset: 0x17236, size: 0x8, addend: 0x0, symName: __ZNSt3__125__bucket_list_deallocatorINS_9allocatorIPNS_16__hash_node_baseIPNS_11__hash_nodeINS_17__hash_value_typeINS_12basic_stringIcNS_11char_traitsIcEENS1_IcEEEENS_6vectorIjNS1_IjEEEEEEPvEEEEEEEC2B8ue170006Ev, symObjAddr: 0x47E0, symBinAddr: 0x1000056C0, symSize: 0x40 }
  - { offsetInCU: 0x17260, offset: 0x17260, size: 0x8, addend: 0x0, symName: __ZNSt3__117__compressed_pairImNS_9allocatorIPNS_16__hash_node_baseIPNS_11__hash_nodeINS_17__hash_value_typeINS_12basic_stringIcNS_11char_traitsIcEENS1_IcEEEENS_6vectorIjNS1_IjEEEEEEPvEEEEEEEC1B8ue170006IiNS_18__default_init_tagEEEOT_OT0_, symObjAddr: 0x4820, symBinAddr: 0x100005700, symSize: 0x30 }
  - { offsetInCU: 0x172B8, offset: 0x172B8, size: 0x8, addend: 0x0, symName: __ZNSt3__117__compressed_pairImNS_9allocatorIPNS_16__hash_node_baseIPNS_11__hash_nodeINS_17__hash_value_typeINS_12basic_stringIcNS_11char_traitsIcEENS1_IcEEEENS_6vectorIjNS1_IjEEEEEEPvEEEEEEEC2B8ue170006IiNS_18__default_init_tagEEEOT_OT0_, symObjAddr: 0x4850, symBinAddr: 0x100005730, symSize: 0x40 }
  - { offsetInCU: 0x17310, offset: 0x17310, size: 0x8, addend: 0x0, symName: __ZNSt3__122__compressed_pair_elemImLi0ELb0EEC2B8ue170006IivEEOT_, symObjAddr: 0x4890, symBinAddr: 0x100005770, symSize: 0x20 }
  - { offsetInCU: 0x17352, offset: 0x17352, size: 0x8, addend: 0x0, symName: __ZNSt3__122__compressed_pair_elemINS_9allocatorIPNS_16__hash_node_baseIPNS_11__hash_nodeINS_17__hash_value_typeINS_12basic_stringIcNS_11char_traitsIcEENS1_IcEEEENS_6vectorIjNS1_IjEEEEEEPvEEEEEELi1ELb1EEC2B8ue170006ENS_18__default_init_tagE, symObjAddr: 0x48B0, symBinAddr: 0x100005790, symSize: 0x20 }
  - { offsetInCU: 0x17386, offset: 0x17386, size: 0x8, addend: 0x0, symName: __ZNSt3__19allocatorIPNS_16__hash_node_baseIPNS_11__hash_nodeINS_17__hash_value_typeINS_12basic_stringIcNS_11char_traitsIcEENS0_IcEEEENS_6vectorIjNS0_IjEEEEEEPvEEEEEC2B8ue170006Ev, symObjAddr: 0x48D0, symBinAddr: 0x1000057B0, symSize: 0x20 }
  - { offsetInCU: 0x173B0, offset: 0x173B0, size: 0x8, addend: 0x0, symName: __ZNSt3__116__non_trivial_ifILb1ENS_9allocatorIPNS_16__hash_node_baseIPNS_11__hash_nodeINS_17__hash_value_typeINS_12basic_stringIcNS_11char_traitsIcEENS1_IcEEEENS_6vectorIjNS1_IjEEEEEEPvEEEEEEEC2B8ue170006Ev, symObjAddr: 0x48F0, symBinAddr: 0x1000057D0, symSize: 0x10 }
  - { offsetInCU: 0x173DA, offset: 0x173DA, size: 0x8, addend: 0x0, symName: __ZNSt3__117__compressed_pairINS_16__hash_node_baseIPNS_11__hash_nodeINS_17__hash_value_typeINS_12basic_stringIcNS_11char_traitsIcEENS_9allocatorIcEEEENS_6vectorIjNS7_IjEEEEEEPvEEEENS7_ISF_EEEC2B8ue170006ILb1EvEEv, symObjAddr: 0x4900, symBinAddr: 0x1000057E0, symSize: 0x30 }
  - { offsetInCU: 0x1740F, offset: 0x1740F, size: 0x8, addend: 0x0, symName: __ZNSt3__122__compressed_pair_elemINS_16__hash_node_baseIPNS_11__hash_nodeINS_17__hash_value_typeINS_12basic_stringIcNS_11char_traitsIcEENS_9allocatorIcEEEENS_6vectorIjNS7_IjEEEEEEPvEEEELi0ELb0EEC2B8ue170006ENS_16__value_init_tagE, symObjAddr: 0x4930, symBinAddr: 0x100005810, symSize: 0x20 }
  - { offsetInCU: 0x17443, offset: 0x17443, size: 0x8, addend: 0x0, symName: __ZNSt3__122__compressed_pair_elemINS_9allocatorINS_11__hash_nodeINS_17__hash_value_typeINS_12basic_stringIcNS_11char_traitsIcEENS1_IcEEEENS_6vectorIjNS1_IjEEEEEEPvEEEELi1ELb1EEC2B8ue170006ENS_16__value_init_tagE, symObjAddr: 0x4950, symBinAddr: 0x100005830, symSize: 0x20 }
  - { offsetInCU: 0x17477, offset: 0x17477, size: 0x8, addend: 0x0, symName: __ZNSt3__116__hash_node_baseIPNS_11__hash_nodeINS_17__hash_value_typeINS_12basic_stringIcNS_11char_traitsIcEENS_9allocatorIcEEEENS_6vectorIjNS6_IjEEEEEEPvEEEC1B8ue170006Ev, symObjAddr: 0x4970, symBinAddr: 0x100005850, symSize: 0x20 }
  - { offsetInCU: 0x174A1, offset: 0x174A1, size: 0x8, addend: 0x0, symName: __ZNSt3__116__hash_node_baseIPNS_11__hash_nodeINS_17__hash_value_typeINS_12basic_stringIcNS_11char_traitsIcEENS_9allocatorIcEEEENS_6vectorIjNS6_IjEEEEEEPvEEEC2B8ue170006Ev, symObjAddr: 0x4990, symBinAddr: 0x100005870, symSize: 0x20 }
  - { offsetInCU: 0x174CB, offset: 0x174CB, size: 0x8, addend: 0x0, symName: __ZNSt3__19allocatorINS_11__hash_nodeINS_17__hash_value_typeINS_12basic_stringIcNS_11char_traitsIcEENS0_IcEEEENS_6vectorIjNS0_IjEEEEEEPvEEEC2B8ue170006Ev, symObjAddr: 0x49B0, symBinAddr: 0x100005890, symSize: 0x20 }
  - { offsetInCU: 0x174F5, offset: 0x174F5, size: 0x8, addend: 0x0, symName: __ZNSt3__116__non_trivial_ifILb1ENS_9allocatorINS_11__hash_nodeINS_17__hash_value_typeINS_12basic_stringIcNS_11char_traitsIcEENS1_IcEEEENS_6vectorIjNS1_IjEEEEEEPvEEEEEC2B8ue170006Ev, symObjAddr: 0x49D0, symBinAddr: 0x1000058B0, symSize: 0x10 }
  - { offsetInCU: 0x1751F, offset: 0x1751F, size: 0x8, addend: 0x0, symName: __ZNSt3__117__compressed_pairImNS_22__unordered_map_hasherINS_12basic_stringIcNS_11char_traitsIcEENS_9allocatorIcEEEENS_17__hash_value_typeIS7_NS_6vectorIjNS5_IjEEEEEENS_4hashIS7_EENS_8equal_toIS7_EELb1EEEEC2B8ue170006IiNS_18__default_init_tagEEEOT_OT0_, symObjAddr: 0x49E0, symBinAddr: 0x1000058C0, symSize: 0x40 }
  - { offsetInCU: 0x17577, offset: 0x17577, size: 0x8, addend: 0x0, symName: __ZNSt3__122__compressed_pair_elemINS_22__unordered_map_hasherINS_12basic_stringIcNS_11char_traitsIcEENS_9allocatorIcEEEENS_17__hash_value_typeIS7_NS_6vectorIjNS5_IjEEEEEENS_4hashIS7_EENS_8equal_toIS7_EELb1EEELi1ELb1EEC2B8ue170006ENS_18__default_init_tagE, symObjAddr: 0x4A20, symBinAddr: 0x100005900, symSize: 0x20 }
  - { offsetInCU: 0x175AB, offset: 0x175AB, size: 0x8, addend: 0x0, symName: __ZNSt3__122__unordered_map_hasherINS_12basic_stringIcNS_11char_traitsIcEENS_9allocatorIcEEEENS_17__hash_value_typeIS6_NS_6vectorIjNS4_IjEEEEEENS_4hashIS6_EENS_8equal_toIS6_EELb1EEC2B8ue170006Ev, symObjAddr: 0x4A40, symBinAddr: 0x100005920, symSize: 0x10 }
  - { offsetInCU: 0x175D5, offset: 0x175D5, size: 0x8, addend: 0x0, symName: __ZNSt3__117__compressed_pairIfNS_21__unordered_map_equalINS_12basic_stringIcNS_11char_traitsIcEENS_9allocatorIcEEEENS_17__hash_value_typeIS7_NS_6vectorIjNS5_IjEEEEEENS_8equal_toIS7_EENS_4hashIS7_EELb1EEEEC2B8ue170006IfNS_18__default_init_tagEEEOT_OT0_, symObjAddr: 0x4A50, symBinAddr: 0x100005930, symSize: 0x40 }
  - { offsetInCU: 0x1762D, offset: 0x1762D, size: 0x8, addend: 0x0, symName: __ZNSt3__122__compressed_pair_elemIfLi0ELb0EEC2B8ue170006IfvEEOT_, symObjAddr: 0x4A90, symBinAddr: 0x100005970, symSize: 0x20 }
  - { offsetInCU: 0x1766F, offset: 0x1766F, size: 0x8, addend: 0x0, symName: __ZNSt3__122__compressed_pair_elemINS_21__unordered_map_equalINS_12basic_stringIcNS_11char_traitsIcEENS_9allocatorIcEEEENS_17__hash_value_typeIS7_NS_6vectorIjNS5_IjEEEEEENS_8equal_toIS7_EENS_4hashIS7_EELb1EEELi1ELb1EEC2B8ue170006ENS_18__default_init_tagE, symObjAddr: 0x4AB0, symBinAddr: 0x100005990, symSize: 0x20 }
  - { offsetInCU: 0x176A3, offset: 0x176A3, size: 0x8, addend: 0x0, symName: __ZNSt3__121__unordered_map_equalINS_12basic_stringIcNS_11char_traitsIcEENS_9allocatorIcEEEENS_17__hash_value_typeIS6_NS_6vectorIjNS4_IjEEEEEENS_8equal_toIS6_EENS_4hashIS6_EELb1EEC2B8ue170006Ev, symObjAddr: 0x4AD0, symBinAddr: 0x1000059B0, symSize: 0x10 }
  - { offsetInCU: 0x176CD, offset: 0x176CD, size: 0x8, addend: 0x0, symName: __ZNSt3__16vectorI4FileNS_9allocatorIS1_EEEC2B8ue170006Ev, symObjAddr: 0x4AE0, symBinAddr: 0x1000059C0, symSize: 0x50 }
  - { offsetInCU: 0x176F7, offset: 0x176F7, size: 0x8, addend: 0x0, symName: __ZNSt3__117__compressed_pairIP4FileNS_9allocatorIS1_EEEC1B8ue170006IDnNS_18__default_init_tagEEEOT_OT0_, symObjAddr: 0x4B30, symBinAddr: 0x100005A10, symSize: 0x30 }
  - { offsetInCU: 0x1774F, offset: 0x1774F, size: 0x8, addend: 0x0, symName: __ZNSt3__117__compressed_pairIP4FileNS_9allocatorIS1_EEEC2B8ue170006IDnNS_18__default_init_tagEEEOT_OT0_, symObjAddr: 0x4B60, symBinAddr: 0x100005A40, symSize: 0x40 }
  - { offsetInCU: 0x177A7, offset: 0x177A7, size: 0x8, addend: 0x0, symName: __ZNSt3__122__compressed_pair_elemIP4FileLi0ELb0EEC2B8ue170006IDnvEEOT_, symObjAddr: 0x4BA0, symBinAddr: 0x100005A80, symSize: 0x20 }
  - { offsetInCU: 0x177E9, offset: 0x177E9, size: 0x8, addend: 0x0, symName: __ZNSt3__122__compressed_pair_elemINS_9allocatorI4FileEELi1ELb1EEC2B8ue170006ENS_18__default_init_tagE, symObjAddr: 0x4BC0, symBinAddr: 0x100005AA0, symSize: 0x20 }
  - { offsetInCU: 0x1781D, offset: 0x1781D, size: 0x8, addend: 0x0, symName: __ZNSt3__19allocatorI4FileEC2B8ue170006Ev, symObjAddr: 0x4BE0, symBinAddr: 0x100005AC0, symSize: 0x20 }
  - { offsetInCU: 0x17847, offset: 0x17847, size: 0x8, addend: 0x0, symName: __ZNSt3__116__non_trivial_ifILb1ENS_9allocatorI4FileEEEC2B8ue170006Ev, symObjAddr: 0x4C00, symBinAddr: 0x100005AE0, symSize: 0x10 }
  - { offsetInCU: 0x17871, offset: 0x17871, size: 0x8, addend: 0x0, symName: __ZNSt3__113unordered_mapINS_12basic_stringIcNS_11char_traitsIcEENS_9allocatorIcEEEENS_6vectorIjNS4_IjEEEENS_4hashIS6_EENS_8equal_toIS6_EENS4_INS_4pairIKS6_S9_EEEEE4findB8ue170006ERSF_, symObjAddr: 0x4C90, symBinAddr: 0x100005B70, symSize: 0x40 }
  - { offsetInCU: 0x178A6, offset: 0x178A6, size: 0x8, addend: 0x0, symName: __ZNSt3__113unordered_mapINS_12basic_stringIcNS_11char_traitsIcEENS_9allocatorIcEEEENS_6vectorIjNS4_IjEEEENS_4hashIS6_EENS_8equal_toIS6_EENS4_INS_4pairIKS6_S9_EEEEE3endB8ue170006Ev, symObjAddr: 0x4CD0, symBinAddr: 0x100005BB0, symSize: 0x30 }
  - { offsetInCU: 0x178CC, offset: 0x178CC, size: 0x8, addend: 0x0, symName: __ZNSt3__113unordered_mapINS_12basic_stringIcNS_11char_traitsIcEENS_9allocatorIcEEEENS_6vectorIjNS4_IjEEEENS_4hashIS6_EENS_8equal_toIS6_EENS4_INS_4pairIKS6_S9_EEEEEixERSF_, symObjAddr: 0x4D00, symBinAddr: 0x100005BE0, symSize: 0x70 }
  - { offsetInCU: 0x17903, offset: 0x17903, size: 0x8, addend: 0x0, symName: __ZNKSt3__16vectorIjNS_9allocatorIjEEE4sizeB8ue170006Ev, symObjAddr: 0x4D70, symBinAddr: 0x100005C50, symSize: 0x20 }
  - { offsetInCU: 0x17929, offset: 0x17929, size: 0x8, addend: 0x0, symName: __ZNKSt3__112basic_stringIcNS_11char_traitsIcEENS_9allocatorIcEEE4dataB8ue170006Ev, symObjAddr: 0x4F80, symBinAddr: 0x100005E60, symSize: 0x30 }
  - { offsetInCU: 0x1794F, offset: 0x1794F, size: 0x8, addend: 0x0, symName: __ZNKSt3__112basic_stringIcNS_11char_traitsIcEENS_9allocatorIcEEE4sizeB8ue170006Ev, symObjAddr: 0x4FB0, symBinAddr: 0x100005E90, symSize: 0x50 }
  - { offsetInCU: 0x17993, offset: 0x17993, size: 0x8, addend: 0x0, symName: __ZNKSt3__113basic_ostreamIcNS_11char_traitsIcEEE6sentrycvbB8ue170006Ev, symObjAddr: 0x5000, symBinAddr: 0x100005EE0, symSize: 0x20 }
  - { offsetInCU: 0x179B9, offset: 0x179B9, size: 0x8, addend: 0x0, symName: __ZNSt3__119ostreambuf_iteratorIcNS_11char_traitsIcEEEC1B8ue170006ERNS_13basic_ostreamIcS2_EE, symObjAddr: 0x5240, symBinAddr: 0x100006120, symSize: 0x30 }
  - { offsetInCU: 0x179F1, offset: 0x179F1, size: 0x8, addend: 0x0, symName: __ZNKSt3__18ios_base5flagsB8ue170006Ev, symObjAddr: 0x5270, symBinAddr: 0x100006150, symSize: 0x20 }
  - { offsetInCU: 0x17A19, offset: 0x17A19, size: 0x8, addend: 0x0, symName: __ZNKSt3__19basic_iosIcNS_11char_traitsIcEEE4fillB8ue170006Ev, symObjAddr: 0x5290, symBinAddr: 0x100006170, symSize: 0x70 }
  - { offsetInCU: 0x17A41, offset: 0x17A41, size: 0x8, addend: 0x0, symName: __ZNKSt3__119ostreambuf_iteratorIcNS_11char_traitsIcEEE6failedB8ue170006Ev, symObjAddr: 0x5300, symBinAddr: 0x1000061E0, symSize: 0x20 }
  - { offsetInCU: 0x17A67, offset: 0x17A67, size: 0x8, addend: 0x0, symName: __ZNSt3__19basic_iosIcNS_11char_traitsIcEEE8setstateB8ue170006Ej, symObjAddr: 0x5320, symBinAddr: 0x100006200, symSize: 0x30 }
  - { offsetInCU: 0x17A9C, offset: 0x17A9C, size: 0x8, addend: 0x0, symName: __ZNKSt3__18ios_base5widthB8ue170006Ev, symObjAddr: 0x5350, symBinAddr: 0x100006230, symSize: 0x20 }
  - { offsetInCU: 0x17AC4, offset: 0x17AC4, size: 0x8, addend: 0x0, symName: __ZNSt3__115basic_streambufIcNS_11char_traitsIcEEE5sputnB8ue170006EPKcl, symObjAddr: 0x5370, symBinAddr: 0x100006250, symSize: 0x30 }
  - { offsetInCU: 0x17B06, offset: 0x17B06, size: 0x8, addend: 0x0, symName: __ZNSt3__112basic_stringIcNS_11char_traitsIcEENS_9allocatorIcEEEC1B8ue170006Emc, symObjAddr: 0x53A0, symBinAddr: 0x100006280, symSize: 0x30 }
  - { offsetInCU: 0x17B4E, offset: 0x17B4E, size: 0x8, addend: 0x0, symName: __ZNSt3__112basic_stringIcNS_11char_traitsIcEENS_9allocatorIcEEE4dataB8ue170006Ev, symObjAddr: 0x53D0, symBinAddr: 0x1000062B0, symSize: 0x30 }
  - { offsetInCU: 0x17B74, offset: 0x17B74, size: 0x8, addend: 0x0, symName: __ZNSt3__18ios_base5widthB8ue170006El, symObjAddr: 0x5400, symBinAddr: 0x1000062E0, symSize: 0x30 }
  - { offsetInCU: 0x17BBA, offset: 0x17BBA, size: 0x8, addend: 0x0, symName: __ZNSt3__112basic_stringIcNS_11char_traitsIcEENS_9allocatorIcEEEC2B8ue170006Emc, symObjAddr: 0x5430, symBinAddr: 0x100006310, symSize: 0x50 }
  - { offsetInCU: 0x17C02, offset: 0x17C02, size: 0x8, addend: 0x0, symName: __ZNSt3__117__compressed_pairINS_12basic_stringIcNS_11char_traitsIcEENS_9allocatorIcEEE5__repES5_EC1B8ue170006INS_18__default_init_tagESA_EEOT_OT0_, symObjAddr: 0x5480, symBinAddr: 0x100006360, symSize: 0x30 }
  - { offsetInCU: 0x17C5A, offset: 0x17C5A, size: 0x8, addend: 0x0, symName: __ZNSt3__117__compressed_pairINS_12basic_stringIcNS_11char_traitsIcEENS_9allocatorIcEEE5__repES5_EC2B8ue170006INS_18__default_init_tagESA_EEOT_OT0_, symObjAddr: 0x54B0, symBinAddr: 0x100006390, symSize: 0x30 }
  - { offsetInCU: 0x17CB2, offset: 0x17CB2, size: 0x8, addend: 0x0, symName: __ZNSt3__122__compressed_pair_elemINS_12basic_stringIcNS_11char_traitsIcEENS_9allocatorIcEEE5__repELi0ELb0EEC2B8ue170006ENS_18__default_init_tagE, symObjAddr: 0x54E0, symBinAddr: 0x1000063C0, symSize: 0x10 }
  - { offsetInCU: 0x17CE6, offset: 0x17CE6, size: 0x8, addend: 0x0, symName: __ZNSt3__122__compressed_pair_elemINS_9allocatorIcEELi1ELb1EEC2B8ue170006ENS_18__default_init_tagE, symObjAddr: 0x54F0, symBinAddr: 0x1000063D0, symSize: 0x20 }
  - { offsetInCU: 0x17D1A, offset: 0x17D1A, size: 0x8, addend: 0x0, symName: __ZNSt3__19allocatorIcEC2B8ue170006Ev, symObjAddr: 0x5510, symBinAddr: 0x1000063F0, symSize: 0x20 }
  - { offsetInCU: 0x17D44, offset: 0x17D44, size: 0x8, addend: 0x0, symName: __ZNSt3__116__non_trivial_ifILb1ENS_9allocatorIcEEEC2B8ue170006Ev, symObjAddr: 0x5530, symBinAddr: 0x100006410, symSize: 0x10 }
  - { offsetInCU: 0x17D6E, offset: 0x17D6E, size: 0x8, addend: 0x0, symName: __ZNSt3__112basic_stringIcNS_11char_traitsIcEENS_9allocatorIcEEE13__get_pointerB8ue170006Ev, symObjAddr: 0x5550, symBinAddr: 0x100006430, symSize: 0x50 }
  - { offsetInCU: 0x17D94, offset: 0x17D94, size: 0x8, addend: 0x0, symName: __ZNKSt3__112basic_stringIcNS_11char_traitsIcEENS_9allocatorIcEEE9__is_longB8ue170006Ev, symObjAddr: 0x55A0, symBinAddr: 0x100006480, symSize: 0x30 }
  - { offsetInCU: 0x17DBA, offset: 0x17DBA, size: 0x8, addend: 0x0, symName: __ZNSt3__112basic_stringIcNS_11char_traitsIcEENS_9allocatorIcEEE18__get_long_pointerB8ue170006Ev, symObjAddr: 0x55D0, symBinAddr: 0x1000064B0, symSize: 0x20 }
  - { offsetInCU: 0x17DE0, offset: 0x17DE0, size: 0x8, addend: 0x0, symName: __ZNSt3__112basic_stringIcNS_11char_traitsIcEENS_9allocatorIcEEE19__get_short_pointerB8ue170006Ev, symObjAddr: 0x55F0, symBinAddr: 0x1000064D0, symSize: 0x30 }
  - { offsetInCU: 0x17E06, offset: 0x17E06, size: 0x8, addend: 0x0, symName: __ZNKSt3__117__compressed_pairINS_12basic_stringIcNS_11char_traitsIcEENS_9allocatorIcEEE5__repES5_E5firstB8ue170006Ev, symObjAddr: 0x5620, symBinAddr: 0x100006500, symSize: 0x20 }
  - { offsetInCU: 0x17E2C, offset: 0x17E2C, size: 0x8, addend: 0x0, symName: __ZNKSt3__122__compressed_pair_elemINS_12basic_stringIcNS_11char_traitsIcEENS_9allocatorIcEEE5__repELi0ELb0EE5__getB8ue170006Ev, symObjAddr: 0x5640, symBinAddr: 0x100006520, symSize: 0x10 }
  - { offsetInCU: 0x17E52, offset: 0x17E52, size: 0x8, addend: 0x0, symName: __ZNSt3__117__compressed_pairINS_12basic_stringIcNS_11char_traitsIcEENS_9allocatorIcEEE5__repES5_E5firstB8ue170006Ev, symObjAddr: 0x5650, symBinAddr: 0x100006530, symSize: 0x20 }
  - { offsetInCU: 0x17E78, offset: 0x17E78, size: 0x8, addend: 0x0, symName: __ZNSt3__122__compressed_pair_elemINS_12basic_stringIcNS_11char_traitsIcEENS_9allocatorIcEEE5__repELi0ELb0EE5__getB8ue170006Ev, symObjAddr: 0x5670, symBinAddr: 0x100006550, symSize: 0x10 }
  - { offsetInCU: 0x17E9E, offset: 0x17E9E, size: 0x8, addend: 0x0, symName: __ZNSt3__114pointer_traitsIPcE10pointer_toB8ue170006ERc, symObjAddr: 0x5680, symBinAddr: 0x100006560, symSize: 0x10 }
  - { offsetInCU: 0x17EC1, offset: 0x17EC1, size: 0x8, addend: 0x0, symName: __ZNSt3__119ostreambuf_iteratorIcNS_11char_traitsIcEEEC2B8ue170006ERNS_13basic_ostreamIcS2_EE, symObjAddr: 0x5690, symBinAddr: 0x100006570, symSize: 0x50 }
  - { offsetInCU: 0x17EF9, offset: 0x17EF9, size: 0x8, addend: 0x0, symName: __ZNKSt3__19basic_iosIcNS_11char_traitsIcEEE5rdbufB8ue170006Ev, symObjAddr: 0x56E0, symBinAddr: 0x1000065C0, symSize: 0x20 }
  - { offsetInCU: 0x17F21, offset: 0x17F21, size: 0x8, addend: 0x0, symName: __ZNKSt3__18ios_base5rdbufB8ue170006Ev, symObjAddr: 0x5700, symBinAddr: 0x1000065E0, symSize: 0x20 }
  - { offsetInCU: 0x17F47, offset: 0x17F47, size: 0x8, addend: 0x0, symName: __ZNSt3__111char_traitsIcE11eq_int_typeB8ue170006Eii, symObjAddr: 0x5720, symBinAddr: 0x100006600, symSize: 0x20 }
  - { offsetInCU: 0x17F7A, offset: 0x17F7A, size: 0x8, addend: 0x0, symName: __ZNSt3__111char_traitsIcE3eofB8ue170006Ev, symObjAddr: 0x5740, symBinAddr: 0x100006620, symSize: 0x10 }
  - { offsetInCU: 0x17F8E, offset: 0x17F8E, size: 0x8, addend: 0x0, symName: __ZNKSt3__19basic_iosIcNS_11char_traitsIcEEE5widenB8ue170006Ec, symObjAddr: 0x5750, symBinAddr: 0x100006630, symSize: 0x80 }
  - { offsetInCU: 0x17FFC, offset: 0x17FFC, size: 0x8, addend: 0x0, symName: __ZNKSt3__15ctypeIcE5widenB8ue170006Ec, symObjAddr: 0x5800, symBinAddr: 0x1000066E0, symSize: 0x30 }
  - { offsetInCU: 0x18031, offset: 0x18031, size: 0x8, addend: 0x0, symName: __ZNSt3__18ios_base8setstateB8ue170006Ej, symObjAddr: 0x5830, symBinAddr: 0x100006710, symSize: 0x30 }
  - { offsetInCU: 0x18068, offset: 0x18068, size: 0x8, addend: 0x0, symName: __ZNKSt3__112basic_stringIcNS_11char_traitsIcEENS_9allocatorIcEEE13__get_pointerB8ue170006Ev, symObjAddr: 0x5870, symBinAddr: 0x100006750, symSize: 0x50 }
  - { offsetInCU: 0x1808E, offset: 0x1808E, size: 0x8, addend: 0x0, symName: __ZNKSt3__112basic_stringIcNS_11char_traitsIcEENS_9allocatorIcEEE18__get_long_pointerB8ue170006Ev, symObjAddr: 0x58C0, symBinAddr: 0x1000067A0, symSize: 0x20 }
  - { offsetInCU: 0x180B4, offset: 0x180B4, size: 0x8, addend: 0x0, symName: __ZNKSt3__112basic_stringIcNS_11char_traitsIcEENS_9allocatorIcEEE19__get_short_pointerB8ue170006Ev, symObjAddr: 0x58E0, symBinAddr: 0x1000067C0, symSize: 0x30 }
  - { offsetInCU: 0x180DA, offset: 0x180DA, size: 0x8, addend: 0x0, symName: __ZNSt3__114pointer_traitsIPKcE10pointer_toB8ue170006ERS1_, symObjAddr: 0x5910, symBinAddr: 0x1000067F0, symSize: 0x10 }
  - { offsetInCU: 0x180FD, offset: 0x180FD, size: 0x8, addend: 0x0, symName: __ZNKSt3__112basic_stringIcNS_11char_traitsIcEENS_9allocatorIcEEE15__get_long_sizeB8ue170006Ev, symObjAddr: 0x5920, symBinAddr: 0x100006800, symSize: 0x20 }
  - { offsetInCU: 0x18123, offset: 0x18123, size: 0x8, addend: 0x0, symName: __ZNKSt3__112basic_stringIcNS_11char_traitsIcEENS_9allocatorIcEEE16__get_short_sizeB8ue170006Ev, symObjAddr: 0x5940, symBinAddr: 0x100006820, symSize: 0x30 }
  - { offsetInCU: 0x18149, offset: 0x18149, size: 0x8, addend: 0x0, symName: __ZNSt3__112__hash_tableINS_17__hash_value_typeINS_12basic_stringIcNS_11char_traitsIcEENS_9allocatorIcEEEENS_6vectorIjNS5_IjEEEEEENS_22__unordered_map_hasherIS7_SB_NS_4hashIS7_EENS_8equal_toIS7_EELb1EEENS_21__unordered_map_equalIS7_SB_SG_SE_Lb1EEENS5_ISB_EEE4findIS7_EENS_15__hash_iteratorIPNS_11__hash_nodeISB_PvEEEERKT_, symObjAddr: 0x59D0, symBinAddr: 0x1000068B0, symSize: 0x180 }
  - { offsetInCU: 0x181D3, offset: 0x181D3, size: 0x8, addend: 0x0, symName: __ZNSt3__119__hash_map_iteratorINS_15__hash_iteratorIPNS_11__hash_nodeINS_17__hash_value_typeINS_12basic_stringIcNS_11char_traitsIcEENS_9allocatorIcEEEENS_6vectorIjNS7_IjEEEEEEPvEEEEEC1B8ue170006ESH_, symObjAddr: 0x5B50, symBinAddr: 0x100006A30, symSize: 0x30 }
  - { offsetInCU: 0x1820C, offset: 0x1820C, size: 0x8, addend: 0x0, symName: __ZNSt3__112__hash_tableINS_17__hash_value_typeINS_12basic_stringIcNS_11char_traitsIcEENS_9allocatorIcEEEENS_6vectorIjNS5_IjEEEEEENS_22__unordered_map_hasherIS7_SB_NS_4hashIS7_EENS_8equal_toIS7_EELb1EEENS_21__unordered_map_equalIS7_SB_SG_SE_Lb1EEENS5_ISB_EEE13hash_functionB8ue170006Ev, symObjAddr: 0x5B80, symBinAddr: 0x100006A60, symSize: 0x20 }
  - { offsetInCU: 0x18232, offset: 0x18232, size: 0x8, addend: 0x0, symName: __ZNKSt3__122__unordered_map_hasherINS_12basic_stringIcNS_11char_traitsIcEENS_9allocatorIcEEEENS_17__hash_value_typeIS6_NS_6vectorIjNS4_IjEEEEEENS_4hashIS6_EENS_8equal_toIS6_EELb1EEclB8ue170006ERKS6_, symObjAddr: 0x5BA0, symBinAddr: 0x100006A80, symSize: 0x30 }
  - { offsetInCU: 0x18267, offset: 0x18267, size: 0x8, addend: 0x0, symName: __ZNKSt3__112__hash_tableINS_17__hash_value_typeINS_12basic_stringIcNS_11char_traitsIcEENS_9allocatorIcEEEENS_6vectorIjNS5_IjEEEEEENS_22__unordered_map_hasherIS7_SB_NS_4hashIS7_EENS_8equal_toIS7_EELb1EEENS_21__unordered_map_equalIS7_SB_SG_SE_Lb1EEENS5_ISB_EEE12bucket_countB8ue170006Ev, symObjAddr: 0x5BD0, symBinAddr: 0x100006AB0, symSize: 0x30 }
  - { offsetInCU: 0x1828D, offset: 0x1828D, size: 0x8, addend: 0x0, symName: __ZNKSt3__110unique_ptrIA_PNS_16__hash_node_baseIPNS_11__hash_nodeINS_17__hash_value_typeINS_12basic_stringIcNS_11char_traitsIcEENS_9allocatorIcEEEENS_6vectorIjNS7_IjEEEEEEPvEEEENS_25__bucket_list_deallocatorINS7_ISI_EEEEEixB8ue170006Em, symObjAddr: 0x5C80, symBinAddr: 0x100006B60, symSize: 0x30 }
  - { offsetInCU: 0x182C2, offset: 0x182C2, size: 0x8, addend: 0x0, symName: __ZNKSt3__116__hash_node_baseIPNS_11__hash_nodeINS_17__hash_value_typeINS_12basic_stringIcNS_11char_traitsIcEENS_9allocatorIcEEEENS_6vectorIjNS6_IjEEEEEEPvEEE6__hashB8ue170006Ev, symObjAddr: 0x5CB0, symBinAddr: 0x100006B90, symSize: 0x20 }
  - { offsetInCU: 0x182E8, offset: 0x182E8, size: 0x8, addend: 0x0, symName: __ZNSt3__112__hash_tableINS_17__hash_value_typeINS_12basic_stringIcNS_11char_traitsIcEENS_9allocatorIcEEEENS_6vectorIjNS5_IjEEEEEENS_22__unordered_map_hasherIS7_SB_NS_4hashIS7_EENS_8equal_toIS7_EELb1EEENS_21__unordered_map_equalIS7_SB_SG_SE_Lb1EEENS5_ISB_EEE6key_eqB8ue170006Ev, symObjAddr: 0x5CD0, symBinAddr: 0x100006BB0, symSize: 0x20 }
  - { offsetInCU: 0x1830E, offset: 0x1830E, size: 0x8, addend: 0x0, symName: __ZNKSt3__121__unordered_map_equalINS_12basic_stringIcNS_11char_traitsIcEENS_9allocatorIcEEEENS_17__hash_value_typeIS6_NS_6vectorIjNS4_IjEEEEEENS_8equal_toIS6_EENS_4hashIS6_EELb1EEclB8ue170006ERKSB_RKS6_, symObjAddr: 0x5CF0, symBinAddr: 0x100006BD0, symSize: 0x40 }
  - { offsetInCU: 0x18352, offset: 0x18352, size: 0x8, addend: 0x0, symName: __ZNSt3__116__hash_node_baseIPNS_11__hash_nodeINS_17__hash_value_typeINS_12basic_stringIcNS_11char_traitsIcEENS_9allocatorIcEEEENS_6vectorIjNS6_IjEEEEEEPvEEE8__upcastB8ue170006Ev, symObjAddr: 0x5D30, symBinAddr: 0x100006C10, symSize: 0x20 }
  - { offsetInCU: 0x18378, offset: 0x18378, size: 0x8, addend: 0x0, symName: __ZNSt3__115__hash_iteratorIPNS_11__hash_nodeINS_17__hash_value_typeINS_12basic_stringIcNS_11char_traitsIcEENS_9allocatorIcEEEENS_6vectorIjNS6_IjEEEEEEPvEEEC1B8ue170006EPNS_16__hash_node_baseISF_EE, symObjAddr: 0x5D50, symBinAddr: 0x100006C30, symSize: 0x30 }
  - { offsetInCU: 0x183B1, offset: 0x183B1, size: 0x8, addend: 0x0, symName: __ZNSt3__112__hash_tableINS_17__hash_value_typeINS_12basic_stringIcNS_11char_traitsIcEENS_9allocatorIcEEEENS_6vectorIjNS5_IjEEEEEENS_22__unordered_map_hasherIS7_SB_NS_4hashIS7_EENS_8equal_toIS7_EELb1EEENS_21__unordered_map_equalIS7_SB_SG_SE_Lb1EEENS5_ISB_EEE3endEv, symObjAddr: 0x5D80, symBinAddr: 0x100006C60, symSize: 0x30 }
  - { offsetInCU: 0x183D9, offset: 0x183D9, size: 0x8, addend: 0x0, symName: __ZNSt3__117__compressed_pairImNS_22__unordered_map_hasherINS_12basic_stringIcNS_11char_traitsIcEENS_9allocatorIcEEEENS_17__hash_value_typeIS7_NS_6vectorIjNS5_IjEEEEEENS_4hashIS7_EENS_8equal_toIS7_EELb1EEEE6secondB8ue170006Ev, symObjAddr: 0x5DB0, symBinAddr: 0x100006C90, symSize: 0x20 }
  - { offsetInCU: 0x183FF, offset: 0x183FF, size: 0x8, addend: 0x0, symName: __ZNSt3__122__compressed_pair_elemINS_22__unordered_map_hasherINS_12basic_stringIcNS_11char_traitsIcEENS_9allocatorIcEEEENS_17__hash_value_typeIS7_NS_6vectorIjNS5_IjEEEEEENS_4hashIS7_EENS_8equal_toIS7_EELb1EEELi1ELb1EE5__getB8ue170006Ev, symObjAddr: 0x5DD0, symBinAddr: 0x100006CB0, symSize: 0x10 }
  - { offsetInCU: 0x18425, offset: 0x18425, size: 0x8, addend: 0x0, symName: __ZNKSt3__113__string_hashIcNS_9allocatorIcEEEclB8ue170006ERKNS_12basic_stringIcNS_11char_traitsIcEES2_EE, symObjAddr: 0x5DE0, symBinAddr: 0x100006CC0, symSize: 0x60 }
  - { offsetInCU: 0x1845A, offset: 0x1845A, size: 0x8, addend: 0x0, symName: __ZNKSt3__121__murmur2_or_cityhashImLm64EEclB8ue170006EPKvm, symObjAddr: 0x5E80, symBinAddr: 0x100006D60, symSize: 0x3D0 }
  - { offsetInCU: 0x184F2, offset: 0x184F2, size: 0x8, addend: 0x0, symName: __ZNSt3__121__murmur2_or_cityhashImLm64EE18__hash_len_0_to_16B8ue170006EPKcm, symObjAddr: 0x6250, symBinAddr: 0x100007130, symSize: 0x180 }
  - { offsetInCU: 0x185CB, offset: 0x185CB, size: 0x8, addend: 0x0, symName: __ZNSt3__121__murmur2_or_cityhashImLm64EE19__hash_len_17_to_32B8ue170006EPKcm, symObjAddr: 0x63D0, symBinAddr: 0x1000072B0, symSize: 0x100 }
  - { offsetInCU: 0x18634, offset: 0x18634, size: 0x8, addend: 0x0, symName: __ZNSt3__121__murmur2_or_cityhashImLm64EE19__hash_len_33_to_64B8ue170006EPKcm, symObjAddr: 0x64D0, symBinAddr: 0x1000073B0, symSize: 0x260 }
  - { offsetInCU: 0x186E9, offset: 0x186E9, size: 0x8, addend: 0x0, symName: __ZNSt3__121__murmur2_or_cityhashImLm64EE13__hash_len_16B8ue170006Emm, symObjAddr: 0x6750, symBinAddr: 0x100007630, symSize: 0x90 }
  - { offsetInCU: 0x18744, offset: 0x18744, size: 0x8, addend: 0x0, symName: __ZNSt3__121__murmur2_or_cityhashImLm64EE29__weak_hash_len_32_with_seedsB8ue170006EPKcmm, symObjAddr: 0x67E0, symBinAddr: 0x1000076C0, symSize: 0x90 }
  - { offsetInCU: 0x18783, offset: 0x18783, size: 0x8, addend: 0x0, symName: __ZNSt3__121__murmur2_or_cityhashImLm64EE8__rotateB8ue170006Emi, symObjAddr: 0x6870, symBinAddr: 0x100007750, symSize: 0x50 }
  - { offsetInCU: 0x187B4, offset: 0x187B4, size: 0x8, addend: 0x0, symName: __ZNSt3__14pairImmEaSB8ue170006EOS1_, symObjAddr: 0x68C0, symBinAddr: 0x1000077A0, symSize: 0x30 }
  - { offsetInCU: 0x187E9, offset: 0x187E9, size: 0x8, addend: 0x0, symName: __ZNSt3__121__murmur2_or_cityhashImLm64EE11__shift_mixB8ue170006Em, symObjAddr: 0x6930, symBinAddr: 0x100007810, symSize: 0x20 }
  - { offsetInCU: 0x1880C, offset: 0x1880C, size: 0x8, addend: 0x0, symName: __ZNSt3__121__murmur2_or_cityhashImLm64EE22__rotate_by_at_least_1B8ue170006Emi, symObjAddr: 0x6950, symBinAddr: 0x100007830, symSize: 0x30 }
  - { offsetInCU: 0x1883D, offset: 0x1883D, size: 0x8, addend: 0x0, symName: __ZNSt3__121__murmur2_or_cityhashImLm64EE29__weak_hash_len_32_with_seedsB8ue170006Emmmmmm, symObjAddr: 0x69A0, symBinAddr: 0x100007880, symSize: 0xD0 }
  - { offsetInCU: 0x188BB, offset: 0x188BB, size: 0x8, addend: 0x0, symName: __ZNSt3__14pairImmEC1B8ue170006ImmLPv0EEEOT_OT0_, symObjAddr: 0x6A70, symBinAddr: 0x100007950, symSize: 0x30 }
  - { offsetInCU: 0x18919, offset: 0x18919, size: 0x8, addend: 0x0, symName: __ZNSt3__14pairImmEC2B8ue170006ImmLPv0EEEOT_OT0_, symObjAddr: 0x6AA0, symBinAddr: 0x100007980, symSize: 0x30 }
  - { offsetInCU: 0x18977, offset: 0x18977, size: 0x8, addend: 0x0, symName: __ZNKSt3__110unique_ptrIA_PNS_16__hash_node_baseIPNS_11__hash_nodeINS_17__hash_value_typeINS_12basic_stringIcNS_11char_traitsIcEENS_9allocatorIcEEEENS_6vectorIjNS7_IjEEEEEEPvEEEENS_25__bucket_list_deallocatorINS7_ISI_EEEEE11get_deleterB8ue170006Ev, symObjAddr: 0x6AD0, symBinAddr: 0x1000079B0, symSize: 0x20 }
  - { offsetInCU: 0x1899D, offset: 0x1899D, size: 0x8, addend: 0x0, symName: __ZNKSt3__125__bucket_list_deallocatorINS_9allocatorIPNS_16__hash_node_baseIPNS_11__hash_nodeINS_17__hash_value_typeINS_12basic_stringIcNS_11char_traitsIcEENS1_IcEEEENS_6vectorIjNS1_IjEEEEEEPvEEEEEEE4sizeB8ue170006Ev, symObjAddr: 0x6AF0, symBinAddr: 0x1000079D0, symSize: 0x20 }
  - { offsetInCU: 0x189C3, offset: 0x189C3, size: 0x8, addend: 0x0, symName: __ZNKSt3__117__compressed_pairIPPNS_16__hash_node_baseIPNS_11__hash_nodeINS_17__hash_value_typeINS_12basic_stringIcNS_11char_traitsIcEENS_9allocatorIcEEEENS_6vectorIjNS7_IjEEEEEEPvEEEENS_25__bucket_list_deallocatorINS7_ISI_EEEEE6secondB8ue170006Ev, symObjAddr: 0x6B10, symBinAddr: 0x1000079F0, symSize: 0x20 }
  - { offsetInCU: 0x189E9, offset: 0x189E9, size: 0x8, addend: 0x0, symName: __ZNKSt3__122__compressed_pair_elemINS_25__bucket_list_deallocatorINS_9allocatorIPNS_16__hash_node_baseIPNS_11__hash_nodeINS_17__hash_value_typeINS_12basic_stringIcNS_11char_traitsIcEENS2_IcEEEENS_6vectorIjNS2_IjEEEEEEPvEEEEEEEELi1ELb0EE5__getB8ue170006Ev, symObjAddr: 0x6B30, symBinAddr: 0x100007A10, symSize: 0x10 }
  - { offsetInCU: 0x18A0F, offset: 0x18A0F, size: 0x8, addend: 0x0, symName: __ZNKSt3__117__compressed_pairImNS_9allocatorIPNS_16__hash_node_baseIPNS_11__hash_nodeINS_17__hash_value_typeINS_12basic_stringIcNS_11char_traitsIcEENS1_IcEEEENS_6vectorIjNS1_IjEEEEEEPvEEEEEEE5firstB8ue170006Ev, symObjAddr: 0x6B40, symBinAddr: 0x100007A20, symSize: 0x20 }
  - { offsetInCU: 0x18A35, offset: 0x18A35, size: 0x8, addend: 0x0, symName: __ZNKSt3__122__compressed_pair_elemImLi0ELb0EE5__getB8ue170006Ev, symObjAddr: 0x6B60, symBinAddr: 0x100007A40, symSize: 0x10 }
  - { offsetInCU: 0x18A5B, offset: 0x18A5B, size: 0x8, addend: 0x0, symName: __ZNKSt3__117__compressed_pairIPPNS_16__hash_node_baseIPNS_11__hash_nodeINS_17__hash_value_typeINS_12basic_stringIcNS_11char_traitsIcEENS_9allocatorIcEEEENS_6vectorIjNS7_IjEEEEEEPvEEEENS_25__bucket_list_deallocatorINS7_ISI_EEEEE5firstB8ue170006Ev, symObjAddr: 0x6B70, symBinAddr: 0x100007A50, symSize: 0x20 }
  - { offsetInCU: 0x18A81, offset: 0x18A81, size: 0x8, addend: 0x0, symName: __ZNKSt3__122__compressed_pair_elemIPPNS_16__hash_node_baseIPNS_11__hash_nodeINS_17__hash_value_typeINS_12basic_stringIcNS_11char_traitsIcEENS_9allocatorIcEEEENS_6vectorIjNS7_IjEEEEEEPvEEEELi0ELb0EE5__getB8ue170006Ev, symObjAddr: 0x6B90, symBinAddr: 0x100007A70, symSize: 0x10 }
  - { offsetInCU: 0x18AA7, offset: 0x18AA7, size: 0x8, addend: 0x0, symName: __ZNSt3__117__compressed_pairIfNS_21__unordered_map_equalINS_12basic_stringIcNS_11char_traitsIcEENS_9allocatorIcEEEENS_17__hash_value_typeIS7_NS_6vectorIjNS5_IjEEEEEENS_8equal_toIS7_EENS_4hashIS7_EELb1EEEE6secondB8ue170006Ev, symObjAddr: 0x6BA0, symBinAddr: 0x100007A80, symSize: 0x20 }
  - { offsetInCU: 0x18ACD, offset: 0x18ACD, size: 0x8, addend: 0x0, symName: __ZNSt3__122__compressed_pair_elemINS_21__unordered_map_equalINS_12basic_stringIcNS_11char_traitsIcEENS_9allocatorIcEEEENS_17__hash_value_typeIS7_NS_6vectorIjNS5_IjEEEEEENS_8equal_toIS7_EENS_4hashIS7_EELb1EEELi1ELb1EE5__getB8ue170006Ev, symObjAddr: 0x6BC0, symBinAddr: 0x100007AA0, symSize: 0x10 }
  - { offsetInCU: 0x18AF3, offset: 0x18AF3, size: 0x8, addend: 0x0, symName: __ZNKSt3__18equal_toINS_12basic_stringIcNS_11char_traitsIcEENS_9allocatorIcEEEEEclB8ue170006ERKS6_S9_, symObjAddr: 0x6BD0, symBinAddr: 0x100007AB0, symSize: 0x30 }
  - { offsetInCU: 0x18B37, offset: 0x18B37, size: 0x8, addend: 0x0, symName: __ZNKSt3__117__hash_value_typeINS_12basic_stringIcNS_11char_traitsIcEENS_9allocatorIcEEEENS_6vectorIjNS4_IjEEEEE11__get_valueB8ue170006Ev, symObjAddr: 0x6C00, symBinAddr: 0x100007AE0, symSize: 0x20 }
  - { offsetInCU: 0x18B5D, offset: 0x18B5D, size: 0x8, addend: 0x0, symName: __ZNSt3__111char_traitsIcE7compareB8ue170006EPKcS3_m, symObjAddr: 0x6D30, symBinAddr: 0x100007C10, symSize: 0x30 }
  - { offsetInCU: 0x18B9C, offset: 0x18B9C, size: 0x8, addend: 0x0, symName: __ZNSt3__114pointer_traitsIPNS_16__hash_node_baseIPNS_11__hash_nodeINS_17__hash_value_typeINS_12basic_stringIcNS_11char_traitsIcEENS_9allocatorIcEEEENS_6vectorIjNS7_IjEEEEEEPvEEEEE10pointer_toB8ue170006ERSH_, symObjAddr: 0x6D90, symBinAddr: 0x100007C70, symSize: 0x10 }
  - { offsetInCU: 0x18BBF, offset: 0x18BBF, size: 0x8, addend: 0x0, symName: __ZNSt3__115__hash_iteratorIPNS_11__hash_nodeINS_17__hash_value_typeINS_12basic_stringIcNS_11char_traitsIcEENS_9allocatorIcEEEENS_6vectorIjNS6_IjEEEEEEPvEEEC2B8ue170006EPNS_16__hash_node_baseISF_EE, symObjAddr: 0x6DA0, symBinAddr: 0x100007C80, symSize: 0x20 }
  - { offsetInCU: 0x18BF8, offset: 0x18BF8, size: 0x8, addend: 0x0, symName: __ZNSt3__119__hash_map_iteratorINS_15__hash_iteratorIPNS_11__hash_nodeINS_17__hash_value_typeINS_12basic_stringIcNS_11char_traitsIcEENS_9allocatorIcEEEENS_6vectorIjNS7_IjEEEEEEPvEEEEEC2B8ue170006ESH_, symObjAddr: 0x6DC0, symBinAddr: 0x100007CA0, symSize: 0x20 }
  - { offsetInCU: 0x18C46, offset: 0x18C46, size: 0x8, addend: 0x0, symName: __ZNSt3__112__hash_tableINS_17__hash_value_typeINS_12basic_stringIcNS_11char_traitsIcEENS_9allocatorIcEEEENS_6vectorIjNS5_IjEEEEEENS_22__unordered_map_hasherIS7_SB_NS_4hashIS7_EENS_8equal_toIS7_EELb1EEENS_21__unordered_map_equalIS7_SB_SG_SE_Lb1EEENS5_ISB_EEE25__emplace_unique_key_argsIS7_JRKNS_21piecewise_construct_tENS_5tupleIJRKS7_EEENSQ_IJEEEEEENS_4pairINS_15__hash_iteratorIPNS_11__hash_nodeISB_PvEEEEbEERKT_DpOT0_, symObjAddr: 0x6DE0, symBinAddr: 0x100007CC0, symSize: 0x5D0 }
  - { offsetInCU: 0x18D4E, offset: 0x18D4E, size: 0x8, addend: 0x0, symName: __ZNKSt3__115__hash_iteratorIPNS_11__hash_nodeINS_17__hash_value_typeINS_12basic_stringIcNS_11char_traitsIcEENS_9allocatorIcEEEENS_6vectorIjNS6_IjEEEEEEPvEEEptB8ue170006Ev, symObjAddr: 0x73F0, symBinAddr: 0x1000082D0, symSize: 0x30 }
  - { offsetInCU: 0x18D74, offset: 0x18D74, size: 0x8, addend: 0x0, symName: __ZNSt3__117__hash_value_typeINS_12basic_stringIcNS_11char_traitsIcEENS_9allocatorIcEEEENS_6vectorIjNS4_IjEEEEE11__get_valueB8ue170006Ev, symObjAddr: 0x7420, symBinAddr: 0x100008300, symSize: 0x20 }
  - { offsetInCU: 0x18D9A, offset: 0x18D9A, size: 0x8, addend: 0x0, symName: __ZNSt3__112__hash_tableINS_17__hash_value_typeINS_12basic_stringIcNS_11char_traitsIcEENS_9allocatorIcEEEENS_6vectorIjNS5_IjEEEEEENS_22__unordered_map_hasherIS7_SB_NS_4hashIS7_EENS_8equal_toIS7_EELb1EEENS_21__unordered_map_equalIS7_SB_SG_SE_Lb1EEENS5_ISB_EEE21__construct_node_hashIRKNS_21piecewise_construct_tEJNS_5tupleIJRKS7_EEENSQ_IJEEEEEENS_10unique_ptrINS_11__hash_nodeISB_PvEENS_22__hash_node_destructorINS5_ISY_EEEEEEmOT_DpOT0_, symObjAddr: 0x7440, symBinAddr: 0x100008320, symSize: 0x150 }
  - { offsetInCU: 0x18E36, offset: 0x18E36, size: 0x8, addend: 0x0, symName: __ZNSt3__112__hash_tableINS_17__hash_value_typeINS_12basic_stringIcNS_11char_traitsIcEENS_9allocatorIcEEEENS_6vectorIjNS5_IjEEEEEENS_22__unordered_map_hasherIS7_SB_NS_4hashIS7_EENS_8equal_toIS7_EELb1EEENS_21__unordered_map_equalIS7_SB_SG_SE_Lb1EEENS5_ISB_EEE4sizeB8ue170006Ev, symObjAddr: 0x7590, symBinAddr: 0x100008470, symSize: 0x20 }
  - { offsetInCU: 0x18E5C, offset: 0x18E5C, size: 0x8, addend: 0x0, symName: __ZNSt3__112__hash_tableINS_17__hash_value_typeINS_12basic_stringIcNS_11char_traitsIcEENS_9allocatorIcEEEENS_6vectorIjNS5_IjEEEEEENS_22__unordered_map_hasherIS7_SB_NS_4hashIS7_EENS_8equal_toIS7_EELb1EEENS_21__unordered_map_equalIS7_SB_SG_SE_Lb1EEENS5_ISB_EEE15max_load_factorB8ue170006Ev, symObjAddr: 0x75B0, symBinAddr: 0x100008490, symSize: 0x20 }
  - { offsetInCU: 0x18E82, offset: 0x18E82, size: 0x8, addend: 0x0, symName: __ZNSt3__112__hash_tableINS_17__hash_value_typeINS_12basic_stringIcNS_11char_traitsIcEENS_9allocatorIcEEEENS_6vectorIjNS5_IjEEEEEENS_22__unordered_map_hasherIS7_SB_NS_4hashIS7_EENS_8equal_toIS7_EELb1EEENS_21__unordered_map_equalIS7_SB_SG_SE_Lb1EEENS5_ISB_EEE15__rehash_uniqueB8ue170006Em, symObjAddr: 0x75D0, symBinAddr: 0x1000084B0, symSize: 0x30 }
  - { offsetInCU: 0x18EB6, offset: 0x18EB6, size: 0x8, addend: 0x0, symName: __Z4ceilB8ue170006f, symObjAddr: 0x7670, symBinAddr: 0x100008550, symSize: 0x20 }
  - { offsetInCU: 0x18EE5, offset: 0x18EE5, size: 0x8, addend: 0x0, symName: __ZNSt3__117__compressed_pairINS_16__hash_node_baseIPNS_11__hash_nodeINS_17__hash_value_typeINS_12basic_stringIcNS_11char_traitsIcEENS_9allocatorIcEEEENS_6vectorIjNS7_IjEEEEEEPvEEEENS7_ISF_EEE5firstB8ue170006Ev, symObjAddr: 0x7690, symBinAddr: 0x100008570, symSize: 0x20 }
  - { offsetInCU: 0x18F0B, offset: 0x18F0B, size: 0x8, addend: 0x0, symName: __ZNSt3__116__hash_node_baseIPNS_11__hash_nodeINS_17__hash_value_typeINS_12basic_stringIcNS_11char_traitsIcEENS_9allocatorIcEEEENS_6vectorIjNS6_IjEEEEEEPvEEE5__ptrB8ue170006Ev, symObjAddr: 0x76B0, symBinAddr: 0x100008590, symSize: 0x20 }
  - { offsetInCU: 0x18F31, offset: 0x18F31, size: 0x8, addend: 0x0, symName: __ZNKSt3__110unique_ptrINS_11__hash_nodeINS_17__hash_value_typeINS_12basic_stringIcNS_11char_traitsIcEENS_9allocatorIcEEEENS_6vectorIjNS6_IjEEEEEEPvEENS_22__hash_node_destructorINS6_ISE_EEEEEptB8ue170006Ev, symObjAddr: 0x76D0, symBinAddr: 0x1000085B0, symSize: 0x20 }
  - { offsetInCU: 0x18F57, offset: 0x18F57, size: 0x8, addend: 0x0, symName: __ZNKSt3__110unique_ptrINS_11__hash_nodeINS_17__hash_value_typeINS_12basic_stringIcNS_11char_traitsIcEENS_9allocatorIcEEEENS_6vectorIjNS6_IjEEEEEEPvEENS_22__hash_node_destructorINS6_ISE_EEEEE3getB8ue170006Ev, symObjAddr: 0x76F0, symBinAddr: 0x1000085D0, symSize: 0x20 }
  - { offsetInCU: 0x18F7D, offset: 0x18F7D, size: 0x8, addend: 0x0, symName: __ZNSt3__110unique_ptrINS_11__hash_nodeINS_17__hash_value_typeINS_12basic_stringIcNS_11char_traitsIcEENS_9allocatorIcEEEENS_6vectorIjNS6_IjEEEEEEPvEENS_22__hash_node_destructorINS6_ISE_EEEEE7releaseB8ue170006Ev, symObjAddr: 0x7710, symBinAddr: 0x1000085F0, symSize: 0x40 }
  - { offsetInCU: 0x18FB2, offset: 0x18FB2, size: 0x8, addend: 0x0, symName: __ZNSt3__110unique_ptrINS_11__hash_nodeINS_17__hash_value_typeINS_12basic_stringIcNS_11char_traitsIcEENS_9allocatorIcEEEENS_6vectorIjNS6_IjEEEEEEPvEENS_22__hash_node_destructorINS6_ISE_EEEEED1B8ue170006Ev, symObjAddr: 0x7750, symBinAddr: 0x100008630, symSize: 0x20 }
  - { offsetInCU: 0x18FE2, offset: 0x18FE2, size: 0x8, addend: 0x0, symName: __ZNSt3__14pairINS_15__hash_iteratorIPNS_11__hash_nodeINS_17__hash_value_typeINS_12basic_stringIcNS_11char_traitsIcEENS_9allocatorIcEEEENS_6vectorIjNS7_IjEEEEEEPvEEEEbEC1B8ue170006ISH_RbLSE_0EEEOT_OT0_, symObjAddr: 0x7770, symBinAddr: 0x100008650, symSize: 0x30 }
  - { offsetInCU: 0x19040, offset: 0x19040, size: 0x8, addend: 0x0, symName: __ZNSt3__112__hash_tableINS_17__hash_value_typeINS_12basic_stringIcNS_11char_traitsIcEENS_9allocatorIcEEEENS_6vectorIjNS5_IjEEEEEENS_22__unordered_map_hasherIS7_SB_NS_4hashIS7_EENS_8equal_toIS7_EELb1EEENS_21__unordered_map_equalIS7_SB_SG_SE_Lb1EEENS5_ISB_EEE12__node_allocB8ue170006Ev, symObjAddr: 0x77A0, symBinAddr: 0x100008680, symSize: 0x20 }
  - { offsetInCU: 0x19066, offset: 0x19066, size: 0x8, addend: 0x0, symName: __ZNSt3__116allocator_traitsINS_9allocatorINS_11__hash_nodeINS_17__hash_value_typeINS_12basic_stringIcNS_11char_traitsIcEENS1_IcEEEENS_6vectorIjNS1_IjEEEEEEPvEEEEE8allocateB8ue170006ERSF_m, symObjAddr: 0x77C0, symBinAddr: 0x1000086A0, symSize: 0x30 }
  - { offsetInCU: 0x19099, offset: 0x19099, size: 0x8, addend: 0x0, symName: __ZNSt3__122__hash_node_destructorINS_9allocatorINS_11__hash_nodeINS_17__hash_value_typeINS_12basic_stringIcNS_11char_traitsIcEENS1_IcEEEENS_6vectorIjNS1_IjEEEEEEPvEEEEEC1B8ue170006ERSF_b, symObjAddr: 0x77F0, symBinAddr: 0x1000086D0, symSize: 0x40 }
  - { offsetInCU: 0x190E7, offset: 0x190E7, size: 0x8, addend: 0x0, symName: __ZNSt3__110unique_ptrINS_11__hash_nodeINS_17__hash_value_typeINS_12basic_stringIcNS_11char_traitsIcEENS_9allocatorIcEEEENS_6vectorIjNS6_IjEEEEEEPvEENS_22__hash_node_destructorINS6_ISE_EEEEEC1B8ue170006ILb1EvEEPSE_NS_16__dependent_typeINS_27__unique_ptr_deleter_sfinaeISH_EEXT_EE20__good_rval_ref_typeE, symObjAddr: 0x7830, symBinAddr: 0x100008710, symSize: 0x30 }
  - { offsetInCU: 0x19138, offset: 0x19138, size: 0x8, addend: 0x0, symName: __ZNSt3__116allocator_traitsINS_9allocatorINS_11__hash_nodeINS_17__hash_value_typeINS_12basic_stringIcNS_11char_traitsIcEENS1_IcEEEENS_6vectorIjNS1_IjEEEEEEPvEEEEE9constructB8ue170006INS_4pairIKS8_SB_EEJRKNS_21piecewise_construct_tENS_5tupleIJRSJ_EEENSO_IJEEEEvEEvRSF_PT_DpOT0_, symObjAddr: 0x7860, symBinAddr: 0x100008740, symSize: 0x40 }
  - { offsetInCU: 0x191B7, offset: 0x191B7, size: 0x8, addend: 0x0, symName: __ZNSt3__122__hash_key_value_typesINS_17__hash_value_typeINS_12basic_stringIcNS_11char_traitsIcEENS_9allocatorIcEEEENS_6vectorIjNS5_IjEEEEEEE9__get_ptrB8ue170006ERSB_, symObjAddr: 0x78A0, symBinAddr: 0x100008780, symSize: 0x20 }
  - { offsetInCU: 0x191DA, offset: 0x191DA, size: 0x8, addend: 0x0, symName: __ZNSt3__110unique_ptrINS_11__hash_nodeINS_17__hash_value_typeINS_12basic_stringIcNS_11char_traitsIcEENS_9allocatorIcEEEENS_6vectorIjNS6_IjEEEEEEPvEENS_22__hash_node_destructorINS6_ISE_EEEEE11get_deleterB8ue170006Ev, symObjAddr: 0x78C0, symBinAddr: 0x1000087A0, symSize: 0x20 }
  - { offsetInCU: 0x19200, offset: 0x19200, size: 0x8, addend: 0x0, symName: __ZNSt3__117__compressed_pairINS_16__hash_node_baseIPNS_11__hash_nodeINS_17__hash_value_typeINS_12basic_stringIcNS_11char_traitsIcEENS_9allocatorIcEEEENS_6vectorIjNS7_IjEEEEEEPvEEEENS7_ISF_EEE6secondB8ue170006Ev, symObjAddr: 0x78E0, symBinAddr: 0x1000087C0, symSize: 0x20 }
  - { offsetInCU: 0x19226, offset: 0x19226, size: 0x8, addend: 0x0, symName: __ZNSt3__122__compressed_pair_elemINS_9allocatorINS_11__hash_nodeINS_17__hash_value_typeINS_12basic_stringIcNS_11char_traitsIcEENS1_IcEEEENS_6vectorIjNS1_IjEEEEEEPvEEEELi1ELb1EE5__getB8ue170006Ev, symObjAddr: 0x7900, symBinAddr: 0x1000087E0, symSize: 0x10 }
  - { offsetInCU: 0x1924C, offset: 0x1924C, size: 0x8, addend: 0x0, symName: __ZNSt3__19allocatorINS_11__hash_nodeINS_17__hash_value_typeINS_12basic_stringIcNS_11char_traitsIcEENS0_IcEEEENS_6vectorIjNS0_IjEEEEEEPvEEE8allocateB8ue170006Em, symObjAddr: 0x7910, symBinAddr: 0x1000087F0, symSize: 0x50 }
  - { offsetInCU: 0x1928A, offset: 0x1928A, size: 0x8, addend: 0x0, symName: __ZNSt3__116allocator_traitsINS_9allocatorINS_11__hash_nodeINS_17__hash_value_typeINS_12basic_stringIcNS_11char_traitsIcEENS1_IcEEEENS_6vectorIjNS1_IjEEEEEEPvEEEEE8max_sizeB8ue170006ISF_vEEmRKSF_, symObjAddr: 0x7960, symBinAddr: 0x100008840, symSize: 0x20 }
  - { offsetInCU: 0x192B8, offset: 0x192B8, size: 0x8, addend: 0x0, symName: __ZNKSt3__19allocatorINS_11__hash_nodeINS_17__hash_value_typeINS_12basic_stringIcNS_11char_traitsIcEENS0_IcEEEENS_6vectorIjNS0_IjEEEEEEPvEEE8max_sizeB8ue170006Ev, symObjAddr: 0x7A20, symBinAddr: 0x100008900, symSize: 0x20 }
  - { offsetInCU: 0x192DE, offset: 0x192DE, size: 0x8, addend: 0x0, symName: __ZNSt3__122__hash_node_destructorINS_9allocatorINS_11__hash_nodeINS_17__hash_value_typeINS_12basic_stringIcNS_11char_traitsIcEENS1_IcEEEENS_6vectorIjNS1_IjEEEEEEPvEEEEEC2B8ue170006ERSF_b, symObjAddr: 0x7A90, symBinAddr: 0x100008970, symSize: 0x30 }
  - { offsetInCU: 0x19326, offset: 0x19326, size: 0x8, addend: 0x0, symName: __ZNSt3__110unique_ptrINS_11__hash_nodeINS_17__hash_value_typeINS_12basic_stringIcNS_11char_traitsIcEENS_9allocatorIcEEEENS_6vectorIjNS6_IjEEEEEEPvEENS_22__hash_node_destructorINS6_ISE_EEEEEC2B8ue170006ILb1EvEEPSE_NS_16__dependent_typeINS_27__unique_ptr_deleter_sfinaeISH_EEXT_EE20__good_rval_ref_typeE, symObjAddr: 0x7AC0, symBinAddr: 0x1000089A0, symSize: 0x40 }
  - { offsetInCU: 0x19377, offset: 0x19377, size: 0x8, addend: 0x0, symName: __ZNSt3__117__compressed_pairIPNS_11__hash_nodeINS_17__hash_value_typeINS_12basic_stringIcNS_11char_traitsIcEENS_9allocatorIcEEEENS_6vectorIjNS6_IjEEEEEEPvEENS_22__hash_node_destructorINS6_ISE_EEEEEC1B8ue170006IRSF_SI_EEOT_OT0_, symObjAddr: 0x7B00, symBinAddr: 0x1000089E0, symSize: 0x30 }
  - { offsetInCU: 0x193CF, offset: 0x193CF, size: 0x8, addend: 0x0, symName: __ZNSt3__117__compressed_pairIPNS_11__hash_nodeINS_17__hash_value_typeINS_12basic_stringIcNS_11char_traitsIcEENS_9allocatorIcEEEENS_6vectorIjNS6_IjEEEEEEPvEENS_22__hash_node_destructorINS6_ISE_EEEEEC2B8ue170006IRSF_SI_EEOT_OT0_, symObjAddr: 0x7B30, symBinAddr: 0x100008A10, symSize: 0x40 }
  - { offsetInCU: 0x19427, offset: 0x19427, size: 0x8, addend: 0x0, symName: __ZNSt3__122__compressed_pair_elemIPNS_11__hash_nodeINS_17__hash_value_typeINS_12basic_stringIcNS_11char_traitsIcEENS_9allocatorIcEEEENS_6vectorIjNS6_IjEEEEEEPvEELi0ELb0EEC2B8ue170006IRSF_vEEOT_, symObjAddr: 0x7B70, symBinAddr: 0x100008A50, symSize: 0x20 }
  - { offsetInCU: 0x19469, offset: 0x19469, size: 0x8, addend: 0x0, symName: __ZNSt3__122__compressed_pair_elemINS_22__hash_node_destructorINS_9allocatorINS_11__hash_nodeINS_17__hash_value_typeINS_12basic_stringIcNS_11char_traitsIcEENS2_IcEEEENS_6vectorIjNS2_IjEEEEEEPvEEEEEELi1ELb0EEC2B8ue170006ISH_vEEOT_, symObjAddr: 0x7B90, symBinAddr: 0x100008A70, symSize: 0x30 }
  - { offsetInCU: 0x194AB, offset: 0x194AB, size: 0x8, addend: 0x0, symName: __ZNSt3__19allocatorINS_11__hash_nodeINS_17__hash_value_typeINS_12basic_stringIcNS_11char_traitsIcEENS0_IcEEEENS_6vectorIjNS0_IjEEEEEEPvEEE9constructB8ue170006INS_4pairIKS7_SA_EEJRKNS_21piecewise_construct_tENS_5tupleIJRSH_EEENSM_IJEEEEEEvPT_DpOT0_, symObjAddr: 0x7BC0, symBinAddr: 0x100008AA0, symSize: 0x40 }
  - { offsetInCU: 0x19527, offset: 0x19527, size: 0x8, addend: 0x0, symName: __ZNSt3__14pairIKNS_12basic_stringIcNS_11char_traitsIcEENS_9allocatorIcEEEENS_6vectorIjNS4_IjEEEEEC1B8ue170006IJRS7_EJEEENS_21piecewise_construct_tENS_5tupleIJDpT_EEENSF_IJDpT0_EEE, symObjAddr: 0x7C00, symBinAddr: 0x100008AE0, symSize: 0x30 }
  - { offsetInCU: 0x1958E, offset: 0x1958E, size: 0x8, addend: 0x0, symName: __ZNSt3__14pairIKNS_12basic_stringIcNS_11char_traitsIcEENS_9allocatorIcEEEENS_6vectorIjNS4_IjEEEEEC1B8ue170006IJRS7_EJEJLm0EEJEEENS_21piecewise_construct_tERNS_5tupleIJDpT_EEERNSF_IJDpT0_EEENS_15__tuple_indicesIJXspT1_EEEENSO_IJXspT2_EEEE, symObjAddr: 0x7C30, symBinAddr: 0x100008B10, symSize: 0x30 }
  - { offsetInCU: 0x1961B, offset: 0x1961B, size: 0x8, addend: 0x0, symName: __ZNSt3__14pairIKNS_12basic_stringIcNS_11char_traitsIcEENS_9allocatorIcEEEENS_6vectorIjNS4_IjEEEEEC2B8ue170006IJRS7_EJEJLm0EEJEEENS_21piecewise_construct_tERNS_5tupleIJDpT_EEERNSF_IJDpT0_EEENS_15__tuple_indicesIJXspT1_EEEENSO_IJXspT2_EEEE, symObjAddr: 0x7C60, symBinAddr: 0x100008B40, symSize: 0x50 }
  - { offsetInCU: 0x196A8, offset: 0x196A8, size: 0x8, addend: 0x0, symName: __ZNSt3__16vectorIjNS_9allocatorIjEEEC1B8ue170006Ev, symObjAddr: 0x7CD0, symBinAddr: 0x100008BB0, symSize: 0x20 }
  - { offsetInCU: 0x196D2, offset: 0x196D2, size: 0x8, addend: 0x0, symName: __ZNSt3__112__tuple_leafILm0ERKNS_12basic_stringIcNS_11char_traitsIcEENS_9allocatorIcEEEELb0EE3getB8ue170006Ev, symObjAddr: 0x7CF0, symBinAddr: 0x100008BD0, symSize: 0x20 }
  - { offsetInCU: 0x196F8, offset: 0x196F8, size: 0x8, addend: 0x0, symName: __ZNSt3__16vectorIjNS_9allocatorIjEEEC2B8ue170006Ev, symObjAddr: 0x7D10, symBinAddr: 0x100008BF0, symSize: 0x50 }
  - { offsetInCU: 0x19722, offset: 0x19722, size: 0x8, addend: 0x0, symName: __ZNSt3__117__compressed_pairIPjNS_9allocatorIjEEEC1B8ue170006IDnNS_18__default_init_tagEEEOT_OT0_, symObjAddr: 0x7D60, symBinAddr: 0x100008C40, symSize: 0x30 }
  - { offsetInCU: 0x1977A, offset: 0x1977A, size: 0x8, addend: 0x0, symName: __ZNSt3__117__compressed_pairIPjNS_9allocatorIjEEEC2B8ue170006IDnNS_18__default_init_tagEEEOT_OT0_, symObjAddr: 0x7D90, symBinAddr: 0x100008C70, symSize: 0x40 }
  - { offsetInCU: 0x197D2, offset: 0x197D2, size: 0x8, addend: 0x0, symName: __ZNSt3__122__compressed_pair_elemIPjLi0ELb0EEC2B8ue170006IDnvEEOT_, symObjAddr: 0x7DD0, symBinAddr: 0x100008CB0, symSize: 0x20 }
  - { offsetInCU: 0x19814, offset: 0x19814, size: 0x8, addend: 0x0, symName: __ZNSt3__122__compressed_pair_elemINS_9allocatorIjEELi1ELb1EEC2B8ue170006ENS_18__default_init_tagE, symObjAddr: 0x7DF0, symBinAddr: 0x100008CD0, symSize: 0x20 }
  - { offsetInCU: 0x19848, offset: 0x19848, size: 0x8, addend: 0x0, symName: __ZNSt3__19allocatorIjEC2B8ue170006Ev, symObjAddr: 0x7E10, symBinAddr: 0x100008CF0, symSize: 0x20 }
  - { offsetInCU: 0x19872, offset: 0x19872, size: 0x8, addend: 0x0, symName: __ZNSt3__116__non_trivial_ifILb1ENS_9allocatorIjEEEC2B8ue170006Ev, symObjAddr: 0x7E30, symBinAddr: 0x100008D10, symSize: 0x10 }
  - { offsetInCU: 0x1989C, offset: 0x1989C, size: 0x8, addend: 0x0, symName: __ZNSt3__117__compressed_pairIPNS_11__hash_nodeINS_17__hash_value_typeINS_12basic_stringIcNS_11char_traitsIcEENS_9allocatorIcEEEENS_6vectorIjNS6_IjEEEEEEPvEENS_22__hash_node_destructorINS6_ISE_EEEEE6secondB8ue170006Ev, symObjAddr: 0x7E40, symBinAddr: 0x100008D20, symSize: 0x20 }
  - { offsetInCU: 0x198C2, offset: 0x198C2, size: 0x8, addend: 0x0, symName: __ZNSt3__122__compressed_pair_elemINS_22__hash_node_destructorINS_9allocatorINS_11__hash_nodeINS_17__hash_value_typeINS_12basic_stringIcNS_11char_traitsIcEENS2_IcEEEENS_6vectorIjNS2_IjEEEEEEPvEEEEEELi1ELb0EE5__getB8ue170006Ev, symObjAddr: 0x7E60, symBinAddr: 0x100008D40, symSize: 0x10 }
  - { offsetInCU: 0x198E8, offset: 0x198E8, size: 0x8, addend: 0x0, symName: __ZNSt3__117__compressed_pairImNS_22__unordered_map_hasherINS_12basic_stringIcNS_11char_traitsIcEENS_9allocatorIcEEEENS_17__hash_value_typeIS7_NS_6vectorIjNS5_IjEEEEEENS_4hashIS7_EENS_8equal_toIS7_EELb1EEEE5firstB8ue170006Ev, symObjAddr: 0x7E70, symBinAddr: 0x100008D50, symSize: 0x20 }
  - { offsetInCU: 0x1990E, offset: 0x1990E, size: 0x8, addend: 0x0, symName: __ZNSt3__122__compressed_pair_elemImLi0ELb0EE5__getB8ue170006Ev, symObjAddr: 0x7E90, symBinAddr: 0x100008D70, symSize: 0x10 }
  - { offsetInCU: 0x19934, offset: 0x19934, size: 0x8, addend: 0x0, symName: __ZNSt3__117__compressed_pairIfNS_21__unordered_map_equalINS_12basic_stringIcNS_11char_traitsIcEENS_9allocatorIcEEEENS_17__hash_value_typeIS7_NS_6vectorIjNS5_IjEEEEEENS_8equal_toIS7_EENS_4hashIS7_EELb1EEEE5firstB8ue170006Ev, symObjAddr: 0x7EA0, symBinAddr: 0x100008D80, symSize: 0x20 }
  - { offsetInCU: 0x1995A, offset: 0x1995A, size: 0x8, addend: 0x0, symName: __ZNSt3__122__compressed_pair_elemIfLi0ELb0EE5__getB8ue170006Ev, symObjAddr: 0x7EC0, symBinAddr: 0x100008DA0, symSize: 0x10 }
  - { offsetInCU: 0x19980, offset: 0x19980, size: 0x8, addend: 0x0, symName: __ZNSt3__112__hash_tableINS_17__hash_value_typeINS_12basic_stringIcNS_11char_traitsIcEENS_9allocatorIcEEEENS_6vectorIjNS5_IjEEEEEENS_22__unordered_map_hasherIS7_SB_NS_4hashIS7_EENS_8equal_toIS7_EELb1EEENS_21__unordered_map_equalIS7_SB_SG_SE_Lb1EEENS5_ISB_EEE8__rehashILb1EEEvm, symObjAddr: 0x7ED0, symBinAddr: 0x100008DB0, symSize: 0x230 }
  - { offsetInCU: 0x199D0, offset: 0x199D0, size: 0x8, addend: 0x0, symName: __ZNSt3__112__hash_tableINS_17__hash_value_typeINS_12basic_stringIcNS_11char_traitsIcEENS_9allocatorIcEEEENS_6vectorIjNS5_IjEEEEEENS_22__unordered_map_hasherIS7_SB_NS_4hashIS7_EENS_8equal_toIS7_EELb1EEENS_21__unordered_map_equalIS7_SB_SG_SE_Lb1EEENS5_ISB_EEE11__do_rehashILb1EEEvm, symObjAddr: 0x8100, symBinAddr: 0x100008FE0, symSize: 0x250 }
  - { offsetInCU: 0x19AB3, offset: 0x19AB3, size: 0x8, addend: 0x0, symName: __ZNSt3__110unique_ptrIA_PNS_16__hash_node_baseIPNS_11__hash_nodeINS_17__hash_value_typeINS_12basic_stringIcNS_11char_traitsIcEENS_9allocatorIcEEEENS_6vectorIjNS7_IjEEEEEEPvEEEENS_25__bucket_list_deallocatorINS7_ISI_EEEEE11get_deleterB8ue170006Ev, symObjAddr: 0x83B0, symBinAddr: 0x100009290, symSize: 0x20 }
  - { offsetInCU: 0x19AD9, offset: 0x19AD9, size: 0x8, addend: 0x0, symName: __ZNSt3__125__bucket_list_deallocatorINS_9allocatorIPNS_16__hash_node_baseIPNS_11__hash_nodeINS_17__hash_value_typeINS_12basic_stringIcNS_11char_traitsIcEENS1_IcEEEENS_6vectorIjNS1_IjEEEEEEPvEEEEEEE7__allocB8ue170006Ev, symObjAddr: 0x83D0, symBinAddr: 0x1000092B0, symSize: 0x20 }
  - { offsetInCU: 0x19AFF, offset: 0x19AFF, size: 0x8, addend: 0x0, symName: __ZNSt3__110unique_ptrIA_PNS_16__hash_node_baseIPNS_11__hash_nodeINS_17__hash_value_typeINS_12basic_stringIcNS_11char_traitsIcEENS_9allocatorIcEEEENS_6vectorIjNS7_IjEEEEEEPvEEEENS_25__bucket_list_deallocatorINS7_ISI_EEEEE5resetB8ue170006IPSI_EENS_9enable_ifIXsr28_CheckArrayPointerConversionIT_EE5valueEvE4typeESR_, symObjAddr: 0x83F0, symBinAddr: 0x1000092D0, symSize: 0x70 }
  - { offsetInCU: 0x19B4C, offset: 0x19B4C, size: 0x8, addend: 0x0, symName: __ZNSt3__116allocator_traitsINS_9allocatorIPNS_16__hash_node_baseIPNS_11__hash_nodeINS_17__hash_value_typeINS_12basic_stringIcNS_11char_traitsIcEENS1_IcEEEENS_6vectorIjNS1_IjEEEEEEPvEEEEEEE8allocateB8ue170006ERSJ_m, symObjAddr: 0x8460, symBinAddr: 0x100009340, symSize: 0x30 }
  - { offsetInCU: 0x19B7F, offset: 0x19B7F, size: 0x8, addend: 0x0, symName: __ZNSt3__125__bucket_list_deallocatorINS_9allocatorIPNS_16__hash_node_baseIPNS_11__hash_nodeINS_17__hash_value_typeINS_12basic_stringIcNS_11char_traitsIcEENS1_IcEEEENS_6vectorIjNS1_IjEEEEEEPvEEEEEEE4sizeB8ue170006Ev, symObjAddr: 0x8490, symBinAddr: 0x100009370, symSize: 0x20 }
  - { offsetInCU: 0x19BA5, offset: 0x19BA5, size: 0x8, addend: 0x0, symName: __ZNSt3__117__compressed_pairIPPNS_16__hash_node_baseIPNS_11__hash_nodeINS_17__hash_value_typeINS_12basic_stringIcNS_11char_traitsIcEENS_9allocatorIcEEEENS_6vectorIjNS7_IjEEEEEEPvEEEENS_25__bucket_list_deallocatorINS7_ISI_EEEEE6secondB8ue170006Ev, symObjAddr: 0x84B0, symBinAddr: 0x100009390, symSize: 0x20 }
  - { offsetInCU: 0x19BCB, offset: 0x19BCB, size: 0x8, addend: 0x0, symName: __ZNSt3__122__compressed_pair_elemINS_25__bucket_list_deallocatorINS_9allocatorIPNS_16__hash_node_baseIPNS_11__hash_nodeINS_17__hash_value_typeINS_12basic_stringIcNS_11char_traitsIcEENS2_IcEEEENS_6vectorIjNS2_IjEEEEEEPvEEEEEEEELi1ELb0EE5__getB8ue170006Ev, symObjAddr: 0x84D0, symBinAddr: 0x1000093B0, symSize: 0x10 }
  - { offsetInCU: 0x19BF1, offset: 0x19BF1, size: 0x8, addend: 0x0, symName: __ZNSt3__117__compressed_pairImNS_9allocatorIPNS_16__hash_node_baseIPNS_11__hash_nodeINS_17__hash_value_typeINS_12basic_stringIcNS_11char_traitsIcEENS1_IcEEEENS_6vectorIjNS1_IjEEEEEEPvEEEEEEE6secondB8ue170006Ev, symObjAddr: 0x84E0, symBinAddr: 0x1000093C0, symSize: 0x20 }
  - { offsetInCU: 0x19C17, offset: 0x19C17, size: 0x8, addend: 0x0, symName: __ZNSt3__122__compressed_pair_elemINS_9allocatorIPNS_16__hash_node_baseIPNS_11__hash_nodeINS_17__hash_value_typeINS_12basic_stringIcNS_11char_traitsIcEENS1_IcEEEENS_6vectorIjNS1_IjEEEEEEPvEEEEEELi1ELb1EE5__getB8ue170006Ev, symObjAddr: 0x8500, symBinAddr: 0x1000093E0, symSize: 0x10 }
  - { offsetInCU: 0x19C3D, offset: 0x19C3D, size: 0x8, addend: 0x0, symName: __ZNSt3__117__compressed_pairIPPNS_16__hash_node_baseIPNS_11__hash_nodeINS_17__hash_value_typeINS_12basic_stringIcNS_11char_traitsIcEENS_9allocatorIcEEEENS_6vectorIjNS7_IjEEEEEEPvEEEENS_25__bucket_list_deallocatorINS7_ISI_EEEEE5firstB8ue170006Ev, symObjAddr: 0x8510, symBinAddr: 0x1000093F0, symSize: 0x20 }
  - { offsetInCU: 0x19C63, offset: 0x19C63, size: 0x8, addend: 0x0, symName: __ZNSt3__125__bucket_list_deallocatorINS_9allocatorIPNS_16__hash_node_baseIPNS_11__hash_nodeINS_17__hash_value_typeINS_12basic_stringIcNS_11char_traitsIcEENS1_IcEEEENS_6vectorIjNS1_IjEEEEEEPvEEEEEEEclB8ue170006EPSI_, symObjAddr: 0x8530, symBinAddr: 0x100009410, symSize: 0x50 }
  - { offsetInCU: 0x19C98, offset: 0x19C98, size: 0x8, addend: 0x0, symName: __ZNSt3__122__compressed_pair_elemIPPNS_16__hash_node_baseIPNS_11__hash_nodeINS_17__hash_value_typeINS_12basic_stringIcNS_11char_traitsIcEENS_9allocatorIcEEEENS_6vectorIjNS7_IjEEEEEEPvEEEELi0ELb0EE5__getB8ue170006Ev, symObjAddr: 0x8580, symBinAddr: 0x100009460, symSize: 0x10 }
  - { offsetInCU: 0x19CBE, offset: 0x19CBE, size: 0x8, addend: 0x0, symName: __ZNSt3__116allocator_traitsINS_9allocatorIPNS_16__hash_node_baseIPNS_11__hash_nodeINS_17__hash_value_typeINS_12basic_stringIcNS_11char_traitsIcEENS1_IcEEEENS_6vectorIjNS1_IjEEEEEEPvEEEEEEE10deallocateB8ue170006ERSJ_PSI_m, symObjAddr: 0x8590, symBinAddr: 0x100009470, symSize: 0x30 }
  - { offsetInCU: 0x19D00, offset: 0x19D00, size: 0x8, addend: 0x0, symName: __ZNSt3__19allocatorIPNS_16__hash_node_baseIPNS_11__hash_nodeINS_17__hash_value_typeINS_12basic_stringIcNS_11char_traitsIcEENS0_IcEEEENS_6vectorIjNS0_IjEEEEEEPvEEEEE10deallocateB8ue170006EPSH_m, symObjAddr: 0x85C0, symBinAddr: 0x1000094A0, symSize: 0x40 }
  - { offsetInCU: 0x19D42, offset: 0x19D42, size: 0x8, addend: 0x0, symName: __ZNSt3__19allocatorIPNS_16__hash_node_baseIPNS_11__hash_nodeINS_17__hash_value_typeINS_12basic_stringIcNS_11char_traitsIcEENS0_IcEEEENS_6vectorIjNS0_IjEEEEEEPvEEEEE8allocateB8ue170006Em, symObjAddr: 0x8600, symBinAddr: 0x1000094E0, symSize: 0x50 }
  - { offsetInCU: 0x19D80, offset: 0x19D80, size: 0x8, addend: 0x0, symName: __ZNSt3__116allocator_traitsINS_9allocatorIPNS_16__hash_node_baseIPNS_11__hash_nodeINS_17__hash_value_typeINS_12basic_stringIcNS_11char_traitsIcEENS1_IcEEEENS_6vectorIjNS1_IjEEEEEEPvEEEEEEE8max_sizeB8ue170006ISJ_vEEmRKSJ_, symObjAddr: 0x8650, symBinAddr: 0x100009530, symSize: 0x20 }
  - { offsetInCU: 0x19DAE, offset: 0x19DAE, size: 0x8, addend: 0x0, symName: __ZNKSt3__19allocatorIPNS_16__hash_node_baseIPNS_11__hash_nodeINS_17__hash_value_typeINS_12basic_stringIcNS_11char_traitsIcEENS0_IcEEEENS_6vectorIjNS0_IjEEEEEEPvEEEEE8max_sizeB8ue170006Ev, symObjAddr: 0x8670, symBinAddr: 0x100009550, symSize: 0x20 }
  - { offsetInCU: 0x19DD4, offset: 0x19DD4, size: 0x8, addend: 0x0, symName: __ZNSt3__117__compressed_pairImNS_9allocatorIPNS_16__hash_node_baseIPNS_11__hash_nodeINS_17__hash_value_typeINS_12basic_stringIcNS_11char_traitsIcEENS1_IcEEEENS_6vectorIjNS1_IjEEEEEEPvEEEEEEE5firstB8ue170006Ev, symObjAddr: 0x8690, symBinAddr: 0x100009570, symSize: 0x20 }
  - { offsetInCU: 0x19E04, offset: 0x19E04, size: 0x8, addend: 0x0, symName: __ZNKSt3__16__lessIvvEclB8ue170006ImmEEbRKT_RKT0_, symObjAddr: 0x8720, symBinAddr: 0x100009600, symSize: 0x30 }
  - { offsetInCU: 0x19E58, offset: 0x19E58, size: 0x8, addend: 0x0, symName: __ZNSt3__122__compressed_pair_elemINS_16__hash_node_baseIPNS_11__hash_nodeINS_17__hash_value_typeINS_12basic_stringIcNS_11char_traitsIcEENS_9allocatorIcEEEENS_6vectorIjNS7_IjEEEEEEPvEEEELi0ELb0EE5__getB8ue170006Ev, symObjAddr: 0x8750, symBinAddr: 0x100009630, symSize: 0x10 }
  - { offsetInCU: 0x19E7E, offset: 0x19E7E, size: 0x8, addend: 0x0, symName: __ZNKSt3__117__compressed_pairIPNS_11__hash_nodeINS_17__hash_value_typeINS_12basic_stringIcNS_11char_traitsIcEENS_9allocatorIcEEEENS_6vectorIjNS6_IjEEEEEEPvEENS_22__hash_node_destructorINS6_ISE_EEEEE5firstB8ue170006Ev, symObjAddr: 0x8760, symBinAddr: 0x100009640, symSize: 0x20 }
  - { offsetInCU: 0x19EA4, offset: 0x19EA4, size: 0x8, addend: 0x0, symName: __ZNKSt3__122__compressed_pair_elemIPNS_11__hash_nodeINS_17__hash_value_typeINS_12basic_stringIcNS_11char_traitsIcEENS_9allocatorIcEEEENS_6vectorIjNS6_IjEEEEEEPvEELi0ELb0EE5__getB8ue170006Ev, symObjAddr: 0x8780, symBinAddr: 0x100009660, symSize: 0x10 }
  - { offsetInCU: 0x19ECA, offset: 0x19ECA, size: 0x8, addend: 0x0, symName: __ZNSt3__117__compressed_pairIPNS_11__hash_nodeINS_17__hash_value_typeINS_12basic_stringIcNS_11char_traitsIcEENS_9allocatorIcEEEENS_6vectorIjNS6_IjEEEEEEPvEENS_22__hash_node_destructorINS6_ISE_EEEEE5firstB8ue170006Ev, symObjAddr: 0x8790, symBinAddr: 0x100009670, symSize: 0x20 }
  - { offsetInCU: 0x19EF0, offset: 0x19EF0, size: 0x8, addend: 0x0, symName: __ZNSt3__122__compressed_pair_elemIPNS_11__hash_nodeINS_17__hash_value_typeINS_12basic_stringIcNS_11char_traitsIcEENS_9allocatorIcEEEENS_6vectorIjNS6_IjEEEEEEPvEELi0ELb0EE5__getB8ue170006Ev, symObjAddr: 0x87B0, symBinAddr: 0x100009690, symSize: 0x10 }
  - { offsetInCU: 0x19F16, offset: 0x19F16, size: 0x8, addend: 0x0, symName: __ZNSt3__110unique_ptrINS_11__hash_nodeINS_17__hash_value_typeINS_12basic_stringIcNS_11char_traitsIcEENS_9allocatorIcEEEENS_6vectorIjNS6_IjEEEEEEPvEENS_22__hash_node_destructorINS6_ISE_EEEEED2B8ue170006Ev, symObjAddr: 0x87C0, symBinAddr: 0x1000096A0, symSize: 0x20 }
  - { offsetInCU: 0x19F40, offset: 0x19F40, size: 0x8, addend: 0x0, symName: __ZNSt3__110unique_ptrINS_11__hash_nodeINS_17__hash_value_typeINS_12basic_stringIcNS_11char_traitsIcEENS_9allocatorIcEEEENS_6vectorIjNS6_IjEEEEEEPvEENS_22__hash_node_destructorINS6_ISE_EEEEE5resetB8ue170006EPSE_, symObjAddr: 0x87E0, symBinAddr: 0x1000096C0, symSize: 0x70 }
  - { offsetInCU: 0x19F84, offset: 0x19F84, size: 0x8, addend: 0x0, symName: __ZNSt3__122__hash_node_destructorINS_9allocatorINS_11__hash_nodeINS_17__hash_value_typeINS_12basic_stringIcNS_11char_traitsIcEENS1_IcEEEENS_6vectorIjNS1_IjEEEEEEPvEEEEEclB8ue170006EPSE_, symObjAddr: 0x8850, symBinAddr: 0x100009730, symSize: 0x90 }
  - { offsetInCU: 0x19FB9, offset: 0x19FB9, size: 0x8, addend: 0x0, symName: __ZNSt3__116allocator_traitsINS_9allocatorINS_11__hash_nodeINS_17__hash_value_typeINS_12basic_stringIcNS_11char_traitsIcEENS1_IcEEEENS_6vectorIjNS1_IjEEEEEEPvEEEEE7destroyB8ue170006INS_4pairIKS8_SB_EEvvEEvRSF_PT_, symObjAddr: 0x88E0, symBinAddr: 0x1000097C0, symSize: 0x20 }
  - { offsetInCU: 0x19FF3, offset: 0x19FF3, size: 0x8, addend: 0x0, symName: __ZNSt3__116allocator_traitsINS_9allocatorINS_11__hash_nodeINS_17__hash_value_typeINS_12basic_stringIcNS_11char_traitsIcEENS1_IcEEEENS_6vectorIjNS1_IjEEEEEEPvEEEEE10deallocateB8ue170006ERSF_PSE_m, symObjAddr: 0x8900, symBinAddr: 0x1000097E0, symSize: 0x30 }
  - { offsetInCU: 0x1A035, offset: 0x1A035, size: 0x8, addend: 0x0, symName: __ZNSt3__14pairIKNS_12basic_stringIcNS_11char_traitsIcEENS_9allocatorIcEEEENS_6vectorIjNS4_IjEEEEED1Ev, symObjAddr: 0x8930, symBinAddr: 0x100009810, symSize: 0x20 }
  - { offsetInCU: 0x1A061, offset: 0x1A061, size: 0x8, addend: 0x0, symName: __ZNSt3__14pairIKNS_12basic_stringIcNS_11char_traitsIcEENS_9allocatorIcEEEENS_6vectorIjNS4_IjEEEEED2Ev, symObjAddr: 0x8950, symBinAddr: 0x100009830, symSize: 0x30 }
  - { offsetInCU: 0x1A08D, offset: 0x1A08D, size: 0x8, addend: 0x0, symName: __ZNSt3__16vectorIjNS_9allocatorIjEEED1B8ue170006Ev, symObjAddr: 0x8980, symBinAddr: 0x100009860, symSize: 0x20 }
  - { offsetInCU: 0x1A0B7, offset: 0x1A0B7, size: 0x8, addend: 0x0, symName: __ZNSt3__16vectorIjNS_9allocatorIjEEED2B8ue170006Ev, symObjAddr: 0x89A0, symBinAddr: 0x100009880, symSize: 0x40 }
  - { offsetInCU: 0x1A0E1, offset: 0x1A0E1, size: 0x8, addend: 0x0, symName: __ZNSt3__16vectorIjNS_9allocatorIjEEE16__destroy_vectorC1B8ue170006ERS3_, symObjAddr: 0x89E0, symBinAddr: 0x1000098C0, symSize: 0x30 }
  - { offsetInCU: 0x1A11A, offset: 0x1A11A, size: 0x8, addend: 0x0, symName: __ZNSt3__16vectorIjNS_9allocatorIjEEE16__destroy_vectorclB8ue170006Ev, symObjAddr: 0x8A10, symBinAddr: 0x1000098F0, symSize: 0x80 }
  - { offsetInCU: 0x1A140, offset: 0x1A140, size: 0x8, addend: 0x0, symName: __ZNSt3__16vectorIjNS_9allocatorIjEEE16__destroy_vectorC2B8ue170006ERS3_, symObjAddr: 0x8A90, symBinAddr: 0x100009970, symSize: 0x20 }
  - { offsetInCU: 0x1A179, offset: 0x1A179, size: 0x8, addend: 0x0, symName: __ZNSt3__16vectorIjNS_9allocatorIjEEE7__clearB8ue170006Ev, symObjAddr: 0x8AB0, symBinAddr: 0x100009990, symSize: 0x20 }
  - { offsetInCU: 0x1A19F, offset: 0x1A19F, size: 0x8, addend: 0x0, symName: __ZNKSt3__16vectorIjNS_9allocatorIjEEE17__annotate_deleteB8ue170006Ev, symObjAddr: 0x8AD0, symBinAddr: 0x1000099B0, symSize: 0xB0 }
  - { offsetInCU: 0x1A1C5, offset: 0x1A1C5, size: 0x8, addend: 0x0, symName: __ZNSt3__116allocator_traitsINS_9allocatorIjEEE10deallocateB8ue170006ERS2_Pjm, symObjAddr: 0x8B80, symBinAddr: 0x100009A60, symSize: 0x30 }
  - { offsetInCU: 0x1A207, offset: 0x1A207, size: 0x8, addend: 0x0, symName: __ZNSt3__16vectorIjNS_9allocatorIjEEE7__allocB8ue170006Ev, symObjAddr: 0x8BB0, symBinAddr: 0x100009A90, symSize: 0x20 }
  - { offsetInCU: 0x1A22D, offset: 0x1A22D, size: 0x8, addend: 0x0, symName: __ZNKSt3__16vectorIjNS_9allocatorIjEEE8capacityB8ue170006Ev, symObjAddr: 0x8BD0, symBinAddr: 0x100009AB0, symSize: 0x30 }
  - { offsetInCU: 0x1A253, offset: 0x1A253, size: 0x8, addend: 0x0, symName: __ZNSt3__16vectorIjNS_9allocatorIjEEE22__base_destruct_at_endB8ue170006EPj, symObjAddr: 0x8C00, symBinAddr: 0x100009AE0, symSize: 0x80 }
  - { offsetInCU: 0x1A297, offset: 0x1A297, size: 0x8, addend: 0x0, symName: __ZNSt3__116allocator_traitsINS_9allocatorIjEEE7destroyB8ue170006IjvEEvRS2_PT_, symObjAddr: 0x8C80, symBinAddr: 0x100009B60, symSize: 0x30 }
  - { offsetInCU: 0x1A2D4, offset: 0x1A2D4, size: 0x8, addend: 0x0, symName: __ZNSt3__19allocatorIjE7destroyB8ue170006EPj, symObjAddr: 0x8CC0, symBinAddr: 0x100009BA0, symSize: 0x10 }
  - { offsetInCU: 0x1A308, offset: 0x1A308, size: 0x8, addend: 0x0, symName: __ZNKSt3__16vectorIjNS_9allocatorIjEEE31__annotate_contiguous_containerB8ue170006EPKvS5_S5_S5_, symObjAddr: 0x8CD0, symBinAddr: 0x100009BB0, symSize: 0x20 }
  - { offsetInCU: 0x1A35A, offset: 0x1A35A, size: 0x8, addend: 0x0, symName: __ZNKSt3__16vectorIjNS_9allocatorIjEEE4dataB8ue170006Ev, symObjAddr: 0x8CF0, symBinAddr: 0x100009BD0, symSize: 0x20 }
  - { offsetInCU: 0x1A380, offset: 0x1A380, size: 0x8, addend: 0x0, symName: __ZNSt3__19allocatorIjE10deallocateB8ue170006EPjm, symObjAddr: 0x8D10, symBinAddr: 0x100009BF0, symSize: 0x40 }
  - { offsetInCU: 0x1A3C2, offset: 0x1A3C2, size: 0x8, addend: 0x0, symName: __ZNSt3__117__compressed_pairIPjNS_9allocatorIjEEE6secondB8ue170006Ev, symObjAddr: 0x8D50, symBinAddr: 0x100009C30, symSize: 0x20 }
  - { offsetInCU: 0x1A3E8, offset: 0x1A3E8, size: 0x8, addend: 0x0, symName: __ZNSt3__122__compressed_pair_elemINS_9allocatorIjEELi1ELb1EE5__getB8ue170006Ev, symObjAddr: 0x8D70, symBinAddr: 0x100009C50, symSize: 0x10 }
  - { offsetInCU: 0x1A40E, offset: 0x1A40E, size: 0x8, addend: 0x0, symName: __ZNKSt3__16vectorIjNS_9allocatorIjEEE9__end_capB8ue170006Ev, symObjAddr: 0x8D80, symBinAddr: 0x100009C60, symSize: 0x20 }
  - { offsetInCU: 0x1A434, offset: 0x1A434, size: 0x8, addend: 0x0, symName: __ZNKSt3__117__compressed_pairIPjNS_9allocatorIjEEE5firstB8ue170006Ev, symObjAddr: 0x8DA0, symBinAddr: 0x100009C80, symSize: 0x20 }
  - { offsetInCU: 0x1A45A, offset: 0x1A45A, size: 0x8, addend: 0x0, symName: __ZNKSt3__122__compressed_pair_elemIPjLi0ELb0EE5__getB8ue170006Ev, symObjAddr: 0x8DC0, symBinAddr: 0x100009CA0, symSize: 0x10 }
  - { offsetInCU: 0x1A480, offset: 0x1A480, size: 0x8, addend: 0x0, symName: __ZNSt3__19allocatorINS_11__hash_nodeINS_17__hash_value_typeINS_12basic_stringIcNS_11char_traitsIcEENS0_IcEEEENS_6vectorIjNS0_IjEEEEEEPvEEE10deallocateB8ue170006EPSD_m, symObjAddr: 0x8DD0, symBinAddr: 0x100009CB0, symSize: 0x40 }
  - { offsetInCU: 0x1A4C2, offset: 0x1A4C2, size: 0x8, addend: 0x0, symName: __ZNSt3__14pairINS_15__hash_iteratorIPNS_11__hash_nodeINS_17__hash_value_typeINS_12basic_stringIcNS_11char_traitsIcEENS_9allocatorIcEEEENS_6vectorIjNS7_IjEEEEEEPvEEEEbEC2B8ue170006ISH_RbLSE_0EEEOT_OT0_, symObjAddr: 0x8E10, symBinAddr: 0x100009CF0, symSize: 0x30 }
  - { offsetInCU: 0x1A520, offset: 0x1A520, size: 0x8, addend: 0x0, symName: __ZNSt3__15tupleIJRKNS_12basic_stringIcNS_11char_traitsIcEENS_9allocatorIcEEEEEEC1B8ue170006INS_4_AndELi0EEES8_, symObjAddr: 0x8E40, symBinAddr: 0x100009D20, symSize: 0x30 }
  - { offsetInCU: 0x1A568, offset: 0x1A568, size: 0x8, addend: 0x0, symName: __ZNSt3__15tupleIJRKNS_12basic_stringIcNS_11char_traitsIcEENS_9allocatorIcEEEEEEC2B8ue170006INS_4_AndELi0EEES8_, symObjAddr: 0x8E70, symBinAddr: 0x100009D50, symSize: 0x30 }
  - { offsetInCU: 0x1A5B0, offset: 0x1A5B0, size: 0x8, addend: 0x0, symName: __ZNSt3__112__tuple_implINS_15__tuple_indicesIJLm0EEEEJRKNS_12basic_stringIcNS_11char_traitsIcEENS_9allocatorIcEEEEEEC1B8ue170006IJLm0EEJSA_EJEJEJSA_EEENS1_IJXspT_EEEENS_13__tuple_typesIJDpT0_EEENS1_IJXspT1_EEEENSE_IJDpT2_EEEDpOT3_, symObjAddr: 0x8EA0, symBinAddr: 0x100009D80, symSize: 0x30 }
  - { offsetInCU: 0x1A641, offset: 0x1A641, size: 0x8, addend: 0x0, symName: __ZNSt3__112__tuple_implINS_15__tuple_indicesIJLm0EEEEJRKNS_12basic_stringIcNS_11char_traitsIcEENS_9allocatorIcEEEEEEC2B8ue170006IJLm0EEJSA_EJEJEJSA_EEENS1_IJXspT_EEEENS_13__tuple_typesIJDpT0_EEENS1_IJXspT1_EEEENSE_IJDpT2_EEEDpOT3_, symObjAddr: 0x8ED0, symBinAddr: 0x100009DB0, symSize: 0x30 }
  - { offsetInCU: 0x1A6D2, offset: 0x1A6D2, size: 0x8, addend: 0x0, symName: __ZNSt3__112__tuple_leafILm0ERKNS_12basic_stringIcNS_11char_traitsIcEENS_9allocatorIcEEEELb0EEC2B8ue170006IS8_vEEOT_, symObjAddr: 0x8F00, symBinAddr: 0x100009DE0, symSize: 0x20 }
  - { offsetInCU: 0x1A715, offset: 0x1A715, size: 0x8, addend: 0x0, symName: __ZNSt3__114pointer_traitsIPNS_17__hash_value_typeINS_12basic_stringIcNS_11char_traitsIcEENS_9allocatorIcEEEENS_6vectorIjNS5_IjEEEEEEE10pointer_toB8ue170006ERSB_, symObjAddr: 0x8F20, symBinAddr: 0x100009E00, symSize: 0x10 }
  - { offsetInCU: 0x1A738, offset: 0x1A738, size: 0x8, addend: 0x0, symName: __ZN11MasterFilesD2Ev, symObjAddr: 0x8F60, symBinAddr: 0x100009E40, symSize: 0x30 }
  - { offsetInCU: 0x1A764, offset: 0x1A764, size: 0x8, addend: 0x0, symName: __ZNSt3__16vectorI4FileNS_9allocatorIS1_EEED1B8ue170006Ev, symObjAddr: 0x8F90, symBinAddr: 0x100009E70, symSize: 0x20 }
  - { offsetInCU: 0x1A78E, offset: 0x1A78E, size: 0x8, addend: 0x0, symName: __ZNSt3__113unordered_mapINS_12basic_stringIcNS_11char_traitsIcEENS_9allocatorIcEEEENS_6vectorIjNS4_IjEEEENS_4hashIS6_EENS_8equal_toIS6_EENS4_INS_4pairIKS6_S9_EEEEED1B8ue170006Ev, symObjAddr: 0x8FB0, symBinAddr: 0x100009E90, symSize: 0x20 }
  - { offsetInCU: 0x1A7B8, offset: 0x1A7B8, size: 0x8, addend: 0x0, symName: __ZNSt3__16vectorI4FileNS_9allocatorIS1_EEED2B8ue170006Ev, symObjAddr: 0x8FD0, symBinAddr: 0x100009EB0, symSize: 0x40 }
  - { offsetInCU: 0x1A7E2, offset: 0x1A7E2, size: 0x8, addend: 0x0, symName: __ZNSt3__16vectorI4FileNS_9allocatorIS1_EEE16__destroy_vectorC1B8ue170006ERS4_, symObjAddr: 0x9010, symBinAddr: 0x100009EF0, symSize: 0x30 }
  - { offsetInCU: 0x1A81B, offset: 0x1A81B, size: 0x8, addend: 0x0, symName: __ZNSt3__16vectorI4FileNS_9allocatorIS1_EEE16__destroy_vectorclB8ue170006Ev, symObjAddr: 0x9040, symBinAddr: 0x100009F20, symSize: 0x80 }
  - { offsetInCU: 0x1A841, offset: 0x1A841, size: 0x8, addend: 0x0, symName: __ZNSt3__16vectorI4FileNS_9allocatorIS1_EEE16__destroy_vectorC2B8ue170006ERS4_, symObjAddr: 0x90C0, symBinAddr: 0x100009FA0, symSize: 0x20 }
  - { offsetInCU: 0x1A87A, offset: 0x1A87A, size: 0x8, addend: 0x0, symName: __ZNSt3__16vectorI4FileNS_9allocatorIS1_EEE7__clearB8ue170006Ev, symObjAddr: 0x90E0, symBinAddr: 0x100009FC0, symSize: 0x20 }
  - { offsetInCU: 0x1A8A0, offset: 0x1A8A0, size: 0x8, addend: 0x0, symName: __ZNKSt3__16vectorI4FileNS_9allocatorIS1_EEE17__annotate_deleteB8ue170006Ev, symObjAddr: 0x9100, symBinAddr: 0x100009FE0, symSize: 0xB0 }
  - { offsetInCU: 0x1A8C6, offset: 0x1A8C6, size: 0x8, addend: 0x0, symName: __ZNSt3__116allocator_traitsINS_9allocatorI4FileEEE10deallocateB8ue170006ERS3_PS2_m, symObjAddr: 0x91B0, symBinAddr: 0x10000A090, symSize: 0x30 }
  - { offsetInCU: 0x1A908, offset: 0x1A908, size: 0x8, addend: 0x0, symName: __ZNSt3__16vectorI4FileNS_9allocatorIS1_EEE7__allocB8ue170006Ev, symObjAddr: 0x91E0, symBinAddr: 0x10000A0C0, symSize: 0x20 }
  - { offsetInCU: 0x1A92E, offset: 0x1A92E, size: 0x8, addend: 0x0, symName: __ZNKSt3__16vectorI4FileNS_9allocatorIS1_EEE8capacityB8ue170006Ev, symObjAddr: 0x9200, symBinAddr: 0x10000A0E0, symSize: 0x40 }
  - { offsetInCU: 0x1A954, offset: 0x1A954, size: 0x8, addend: 0x0, symName: __ZNSt3__16vectorI4FileNS_9allocatorIS1_EEE22__base_destruct_at_endB8ue170006EPS1_, symObjAddr: 0x9240, symBinAddr: 0x10000A120, symSize: 0x80 }
  - { offsetInCU: 0x1A998, offset: 0x1A998, size: 0x8, addend: 0x0, symName: __ZNSt3__116allocator_traitsINS_9allocatorI4FileEEE7destroyB8ue170006IS2_vEEvRS3_PT_, symObjAddr: 0x92C0, symBinAddr: 0x10000A1A0, symSize: 0x30 }
  - { offsetInCU: 0x1A9D5, offset: 0x1A9D5, size: 0x8, addend: 0x0, symName: __ZNSt3__19allocatorI4FileE7destroyB8ue170006EPS1_, symObjAddr: 0x9300, symBinAddr: 0x10000A1E0, symSize: 0x20 }
  - { offsetInCU: 0x1AA09, offset: 0x1AA09, size: 0x8, addend: 0x0, symName: __ZNKSt3__16vectorI4FileNS_9allocatorIS1_EEE31__annotate_contiguous_containerB8ue170006EPKvS6_S6_S6_, symObjAddr: 0x9320, symBinAddr: 0x10000A200, symSize: 0x20 }
  - { offsetInCU: 0x1AA5B, offset: 0x1AA5B, size: 0x8, addend: 0x0, symName: __ZNKSt3__16vectorI4FileNS_9allocatorIS1_EEE4dataB8ue170006Ev, symObjAddr: 0x9340, symBinAddr: 0x10000A220, symSize: 0x20 }
  - { offsetInCU: 0x1AA81, offset: 0x1AA81, size: 0x8, addend: 0x0, symName: __ZNSt3__19allocatorI4FileE10deallocateB8ue170006EPS1_m, symObjAddr: 0x9360, symBinAddr: 0x10000A240, symSize: 0x40 }
  - { offsetInCU: 0x1AAC3, offset: 0x1AAC3, size: 0x8, addend: 0x0, symName: __ZNSt3__117__compressed_pairIP4FileNS_9allocatorIS1_EEE6secondB8ue170006Ev, symObjAddr: 0x93A0, symBinAddr: 0x10000A280, symSize: 0x20 }
  - { offsetInCU: 0x1AAE9, offset: 0x1AAE9, size: 0x8, addend: 0x0, symName: __ZNSt3__122__compressed_pair_elemINS_9allocatorI4FileEELi1ELb1EE5__getB8ue170006Ev, symObjAddr: 0x93C0, symBinAddr: 0x10000A2A0, symSize: 0x10 }
  - { offsetInCU: 0x1AB0F, offset: 0x1AB0F, size: 0x8, addend: 0x0, symName: __ZNKSt3__16vectorI4FileNS_9allocatorIS1_EEE9__end_capB8ue170006Ev, symObjAddr: 0x93D0, symBinAddr: 0x10000A2B0, symSize: 0x20 }
  - { offsetInCU: 0x1AB35, offset: 0x1AB35, size: 0x8, addend: 0x0, symName: __ZNKSt3__117__compressed_pairIP4FileNS_9allocatorIS1_EEE5firstB8ue170006Ev, symObjAddr: 0x93F0, symBinAddr: 0x10000A2D0, symSize: 0x20 }
  - { offsetInCU: 0x1AB5B, offset: 0x1AB5B, size: 0x8, addend: 0x0, symName: __ZNKSt3__122__compressed_pair_elemIP4FileLi0ELb0EE5__getB8ue170006Ev, symObjAddr: 0x9410, symBinAddr: 0x10000A2F0, symSize: 0x10 }
  - { offsetInCU: 0x1AB81, offset: 0x1AB81, size: 0x8, addend: 0x0, symName: __ZNSt3__113unordered_mapINS_12basic_stringIcNS_11char_traitsIcEENS_9allocatorIcEEEENS_6vectorIjNS4_IjEEEENS_4hashIS6_EENS_8equal_toIS6_EENS4_INS_4pairIKS6_S9_EEEEED2B8ue170006Ev, symObjAddr: 0x9420, symBinAddr: 0x10000A300, symSize: 0x20 }
  - { offsetInCU: 0x1ABAB, offset: 0x1ABAB, size: 0x8, addend: 0x0, symName: __ZNSt3__112__hash_tableINS_17__hash_value_typeINS_12basic_stringIcNS_11char_traitsIcEENS_9allocatorIcEEEENS_6vectorIjNS5_IjEEEEEENS_22__unordered_map_hasherIS7_SB_NS_4hashIS7_EENS_8equal_toIS7_EELb1EEENS_21__unordered_map_equalIS7_SB_SG_SE_Lb1EEENS5_ISB_EEED1Ev, symObjAddr: 0x9440, symBinAddr: 0x10000A320, symSize: 0x20 }
  - { offsetInCU: 0x1ABD7, offset: 0x1ABD7, size: 0x8, addend: 0x0, symName: __ZNSt3__112__hash_tableINS_17__hash_value_typeINS_12basic_stringIcNS_11char_traitsIcEENS_9allocatorIcEEEENS_6vectorIjNS5_IjEEEEEENS_22__unordered_map_hasherIS7_SB_NS_4hashIS7_EENS_8equal_toIS7_EELb1EEENS_21__unordered_map_equalIS7_SB_SG_SE_Lb1EEENS5_ISB_EEED2Ev, symObjAddr: 0x9460, symBinAddr: 0x10000A340, symSize: 0x40 }
  - { offsetInCU: 0x1AC03, offset: 0x1AC03, size: 0x8, addend: 0x0, symName: __ZNSt3__112__hash_tableINS_17__hash_value_typeINS_12basic_stringIcNS_11char_traitsIcEENS_9allocatorIcEEEENS_6vectorIjNS5_IjEEEEEENS_22__unordered_map_hasherIS7_SB_NS_4hashIS7_EENS_8equal_toIS7_EELb1EEENS_21__unordered_map_equalIS7_SB_SG_SE_Lb1EEENS5_ISB_EEE17__deallocate_nodeEPNS_16__hash_node_baseIPNS_11__hash_nodeISB_PvEEEE, symObjAddr: 0x94A0, symBinAddr: 0x10000A380, symSize: 0xA0 }
  - { offsetInCU: 0x1AC6D, offset: 0x1AC6D, size: 0x8, addend: 0x0, symName: __ZNSt3__110unique_ptrIA_PNS_16__hash_node_baseIPNS_11__hash_nodeINS_17__hash_value_typeINS_12basic_stringIcNS_11char_traitsIcEENS_9allocatorIcEEEENS_6vectorIjNS7_IjEEEEEEPvEEEENS_25__bucket_list_deallocatorINS7_ISI_EEEEED1B8ue170006Ev, symObjAddr: 0x9540, symBinAddr: 0x10000A420, symSize: 0x20 }
  - { offsetInCU: 0x1AC97, offset: 0x1AC97, size: 0x8, addend: 0x0, symName: __ZNSt3__110unique_ptrIA_PNS_16__hash_node_baseIPNS_11__hash_nodeINS_17__hash_value_typeINS_12basic_stringIcNS_11char_traitsIcEENS_9allocatorIcEEEENS_6vectorIjNS7_IjEEEEEEPvEEEENS_25__bucket_list_deallocatorINS7_ISI_EEEEED2B8ue170006Ev, symObjAddr: 0x9560, symBinAddr: 0x10000A440, symSize: 0x20 }
  - { offsetInCU: 0x1ACC1, offset: 0x1ACC1, size: 0x8, addend: 0x0, symName: __ZNSt3__110unique_ptrIA_PNS_16__hash_node_baseIPNS_11__hash_nodeINS_17__hash_value_typeINS_12basic_stringIcNS_11char_traitsIcEENS_9allocatorIcEEEENS_6vectorIjNS7_IjEEEEEEPvEEEENS_25__bucket_list_deallocatorINS7_ISI_EEEEE5resetB8ue170006EDn, symObjAddr: 0x9580, symBinAddr: 0x10000A460, symSize: 0x60 }
  - { offsetInCU: 0x1AD01, offset: 0x1AD01, size: 0x8, addend: 0x0, symName: __ZN4FileC2ERKS_, symObjAddr: 0x95E0, symBinAddr: 0x10000A4C0, symSize: 0xC0 }
  - { offsetInCU: 0x1AD36, offset: 0x1AD36, size: 0x8, addend: 0x0, symName: __ZNSt3__16vectorINS_12basic_stringIcNS_11char_traitsIcEENS_9allocatorIcEEEENS4_IS6_EEEC1ERKS8_, symObjAddr: 0x96A0, symBinAddr: 0x10000A580, symSize: 0x30 }
  - { offsetInCU: 0x1AD71, offset: 0x1AD71, size: 0x8, addend: 0x0, symName: __ZNSt3__16vectorINS_12basic_stringIcNS_11char_traitsIcEENS_9allocatorIcEEEENS4_IS6_EEEC2ERKS8_, symObjAddr: 0x96D0, symBinAddr: 0x10000A5B0, symSize: 0xA0 }
  - { offsetInCU: 0x1ADB6, offset: 0x1ADB6, size: 0x8, addend: 0x0, symName: __ZNSt3__116allocator_traitsINS_9allocatorINS_12basic_stringIcNS_11char_traitsIcEENS1_IcEEEEEEE37select_on_container_copy_constructionB8ue170006IS7_vvEES7_RKS7_, symObjAddr: 0x9770, symBinAddr: 0x10000A650, symSize: 0x10 }
  - { offsetInCU: 0x1ADE5, offset: 0x1ADE5, size: 0x8, addend: 0x0, symName: __ZNKSt3__16vectorINS_12basic_stringIcNS_11char_traitsIcEENS_9allocatorIcEEEENS4_IS6_EEE7__allocB8ue170006Ev, symObjAddr: 0x9780, symBinAddr: 0x10000A660, symSize: 0x20 }
  - { offsetInCU: 0x1AE11, offset: 0x1AE11, size: 0x8, addend: 0x0, symName: __ZNSt3__117__compressed_pairIPNS_12basic_stringIcNS_11char_traitsIcEENS_9allocatorIcEEEENS4_IS6_EEEC1B8ue170006IDnS8_EEOT_OT0_, symObjAddr: 0x97A0, symBinAddr: 0x10000A680, symSize: 0x30 }
  - { offsetInCU: 0x1AE69, offset: 0x1AE69, size: 0x8, addend: 0x0, symName: __ZNSt3__16vectorINS_12basic_stringIcNS_11char_traitsIcEENS_9allocatorIcEEEENS4_IS6_EEE16__init_with_sizeB8ue170006IPS6_SA_EEvT_T0_m, symObjAddr: 0x97D0, symBinAddr: 0x10000A6B0, symSize: 0xB0 }
  - { offsetInCU: 0x1AEDD, offset: 0x1AEDD, size: 0x8, addend: 0x0, symName: __ZNKSt3__117__compressed_pairIPNS_12basic_stringIcNS_11char_traitsIcEENS_9allocatorIcEEEENS4_IS6_EEE6secondB8ue170006Ev, symObjAddr: 0x9880, symBinAddr: 0x10000A760, symSize: 0x20 }
  - { offsetInCU: 0x1AF03, offset: 0x1AF03, size: 0x8, addend: 0x0, symName: __ZNKSt3__122__compressed_pair_elemINS_9allocatorINS_12basic_stringIcNS_11char_traitsIcEENS1_IcEEEEEELi1ELb1EE5__getB8ue170006Ev, symObjAddr: 0x98A0, symBinAddr: 0x10000A780, symSize: 0x10 }
  - { offsetInCU: 0x1AF29, offset: 0x1AF29, size: 0x8, addend: 0x0, symName: __ZNSt3__117__compressed_pairIPNS_12basic_stringIcNS_11char_traitsIcEENS_9allocatorIcEEEENS4_IS6_EEEC2B8ue170006IDnS8_EEOT_OT0_, symObjAddr: 0x98B0, symBinAddr: 0x10000A790, symSize: 0x40 }
  - { offsetInCU: 0x1AF81, offset: 0x1AF81, size: 0x8, addend: 0x0, symName: __ZNSt3__122__compressed_pair_elemINS_9allocatorINS_12basic_stringIcNS_11char_traitsIcEENS1_IcEEEEEELi1ELb1EEC2B8ue170006IS7_vEEOT_, symObjAddr: 0x98F0, symBinAddr: 0x10000A7D0, symSize: 0x10 }
  - { offsetInCU: 0x1AFC3, offset: 0x1AFC3, size: 0x8, addend: 0x0, symName: __ZNSt3__16vectorINS_12basic_stringIcNS_11char_traitsIcEENS_9allocatorIcEEEENS4_IS6_EEE11__vallocateB8ue170006Em, symObjAddr: 0x9940, symBinAddr: 0x10000A820, symSize: 0xA0 }
  - { offsetInCU: 0x1B007, offset: 0x1B007, size: 0x8, addend: 0x0, symName: __ZNSt3__16vectorINS_12basic_stringIcNS_11char_traitsIcEENS_9allocatorIcEEEENS4_IS6_EEE18__construct_at_endIPS6_SA_EEvT_T0_m, symObjAddr: 0x99E0, symBinAddr: 0x10000A8C0, symSize: 0x90 }
  - { offsetInCU: 0x1B07D, offset: 0x1B07D, size: 0x8, addend: 0x0, symName: __ZNSt3__128__exception_guard_exceptionsINS_6vectorINS_12basic_stringIcNS_11char_traitsIcEENS_9allocatorIcEEEENS5_IS7_EEE16__destroy_vectorEE10__completeB8ue170006Ev, symObjAddr: 0x9A70, symBinAddr: 0x10000A950, symSize: 0x20 }
  - { offsetInCU: 0x1B0A3, offset: 0x1B0A3, size: 0x8, addend: 0x0, symName: __ZNSt3__128__exception_guard_exceptionsINS_6vectorINS_12basic_stringIcNS_11char_traitsIcEENS_9allocatorIcEEEENS5_IS7_EEE16__destroy_vectorEED1B8ue170006Ev, symObjAddr: 0x9A90, symBinAddr: 0x10000A970, symSize: 0x20 }
  - { offsetInCU: 0x1B0CD, offset: 0x1B0CD, size: 0x8, addend: 0x0, symName: __ZNSt3__128__exception_guard_exceptionsINS_6vectorINS_12basic_stringIcNS_11char_traitsIcEENS_9allocatorIcEEEENS5_IS7_EEE16__destroy_vectorEEC1B8ue170006ESA_, symObjAddr: 0x9AB0, symBinAddr: 0x10000A990, symSize: 0x30 }
  - { offsetInCU: 0x1B105, offset: 0x1B105, size: 0x8, addend: 0x0, symName: __ZNSt3__128__exception_guard_exceptionsINS_6vectorINS_12basic_stringIcNS_11char_traitsIcEENS_9allocatorIcEEEENS5_IS7_EEE16__destroy_vectorEEC2B8ue170006ESA_, symObjAddr: 0x9AE0, symBinAddr: 0x10000A9C0, symSize: 0x20 }
  - { offsetInCU: 0x1B13D, offset: 0x1B13D, size: 0x8, addend: 0x0, symName: __ZNKSt3__16vectorINS_12basic_stringIcNS_11char_traitsIcEENS_9allocatorIcEEEENS4_IS6_EEE8max_sizeEv, symObjAddr: 0x9B00, symBinAddr: 0x10000A9E0, symSize: 0x60 }
  - { offsetInCU: 0x1B165, offset: 0x1B165, size: 0x8, addend: 0x0, symName: __ZNKSt3__16vectorINS_12basic_stringIcNS_11char_traitsIcEENS_9allocatorIcEEEENS4_IS6_EEE20__throw_length_errorB8ue170006Ev, symObjAddr: 0x9B60, symBinAddr: 0x10000AA40, symSize: 0x20 }
  - { offsetInCU: 0x1B18B, offset: 0x1B18B, size: 0x8, addend: 0x0, symName: __ZNSt3__16vectorINS_12basic_stringIcNS_11char_traitsIcEENS_9allocatorIcEEEENS4_IS6_EEE9__end_capB8ue170006Ev, symObjAddr: 0x9BC0, symBinAddr: 0x10000AAA0, symSize: 0x20 }
  - { offsetInCU: 0x1B1B1, offset: 0x1B1B1, size: 0x8, addend: 0x0, symName: __ZNKSt3__16vectorINS_12basic_stringIcNS_11char_traitsIcEENS_9allocatorIcEEEENS4_IS6_EEE14__annotate_newB8ue170006Em, symObjAddr: 0x9BE0, symBinAddr: 0x10000AAC0, symSize: 0xA0 }
  - { offsetInCU: 0x1B1E6, offset: 0x1B1E6, size: 0x8, addend: 0x0, symName: __ZNSt3__116allocator_traitsINS_9allocatorINS_12basic_stringIcNS_11char_traitsIcEENS1_IcEEEEEEE8max_sizeB8ue170006IS7_vEEmRKS7_, symObjAddr: 0x9CB0, symBinAddr: 0x10000AB90, symSize: 0x20 }
  - { offsetInCU: 0x1B214, offset: 0x1B214, size: 0x8, addend: 0x0, symName: __ZNSt3__114numeric_limitsIlE3maxB8ue170006Ev, symObjAddr: 0x9CD0, symBinAddr: 0x10000ABB0, symSize: 0x10 }
  - { offsetInCU: 0x1B228, offset: 0x1B228, size: 0x8, addend: 0x0, symName: __ZNKSt3__19allocatorINS_12basic_stringIcNS_11char_traitsIcEENS0_IcEEEEE8max_sizeB8ue170006Ev, symObjAddr: 0x9D30, symBinAddr: 0x10000AC10, symSize: 0x20 }
  - { offsetInCU: 0x1B24E, offset: 0x1B24E, size: 0x8, addend: 0x0, symName: __ZNSt3__123__libcpp_numeric_limitsIlLb1EE3maxB8ue170006Ev, symObjAddr: 0x9D50, symBinAddr: 0x10000AC30, symSize: 0x10 }
  - { offsetInCU: 0x1B262, offset: 0x1B262, size: 0x8, addend: 0x0, symName: __ZNSt12length_errorC1B8ue170006EPKc, symObjAddr: 0x9DD0, symBinAddr: 0x10000ACB0, symSize: 0x30 }
  - { offsetInCU: 0x1B29A, offset: 0x1B29A, size: 0x8, addend: 0x0, symName: __ZNSt12length_errorC2B8ue170006EPKc, symObjAddr: 0x9E00, symBinAddr: 0x10000ACE0, symSize: 0x40 }
  - { offsetInCU: 0x1B2D2, offset: 0x1B2D2, size: 0x8, addend: 0x0, symName: __ZNSt3__19allocatorINS_12basic_stringIcNS_11char_traitsIcEENS0_IcEEEEE8allocateB8ue170006Em, symObjAddr: 0x9E40, symBinAddr: 0x10000AD20, symSize: 0x50 }
  - { offsetInCU: 0x1B306, offset: 0x1B306, size: 0x8, addend: 0x0, symName: __ZNSt3__117__compressed_pairIPNS_12basic_stringIcNS_11char_traitsIcEENS_9allocatorIcEEEENS4_IS6_EEE5firstB8ue170006Ev, symObjAddr: 0x9E90, symBinAddr: 0x10000AD70, symSize: 0x20 }
  - { offsetInCU: 0x1B32C, offset: 0x1B32C, size: 0x8, addend: 0x0, symName: __ZNSt3__122__compressed_pair_elemIPNS_12basic_stringIcNS_11char_traitsIcEENS_9allocatorIcEEEELi0ELb0EE5__getB8ue170006Ev, symObjAddr: 0x9EB0, symBinAddr: 0x10000AD90, symSize: 0x10 }
  - { offsetInCU: 0x1B36B, offset: 0x1B36B, size: 0x8, addend: 0x0, symName: __ZNSt3__16vectorINS_12basic_stringIcNS_11char_traitsIcEENS_9allocatorIcEEEENS4_IS6_EEE21_ConstructTransactionC1B8ue170006ERS8_m, symObjAddr: 0x9EC0, symBinAddr: 0x10000ADA0, symSize: 0x30 }
  - { offsetInCU: 0x1B3B3, offset: 0x1B3B3, size: 0x8, addend: 0x0, symName: __ZNSt3__16vectorINS_12basic_stringIcNS_11char_traitsIcEENS_9allocatorIcEEEENS4_IS6_EEE21_ConstructTransactionD1B8ue170006Ev, symObjAddr: 0x9F70, symBinAddr: 0x10000AE50, symSize: 0x20 }
  - { offsetInCU: 0x1B3DD, offset: 0x1B3DD, size: 0x8, addend: 0x0, symName: __ZNSt3__16vectorINS_12basic_stringIcNS_11char_traitsIcEENS_9allocatorIcEEEENS4_IS6_EEE21_ConstructTransactionC2B8ue170006ERS8_m, symObjAddr: 0x9F90, symBinAddr: 0x10000AE70, symSize: 0x40 }
  - { offsetInCU: 0x1B445, offset: 0x1B445, size: 0x8, addend: 0x0, symName: __ZNSt3__14pairIPNS_12basic_stringIcNS_11char_traitsIcEENS_9allocatorIcEEEES7_EC1B8ue170006IS7_S7_LPv0EEEOT_OT0_, symObjAddr: 0xA1B0, symBinAddr: 0x10000B090, symSize: 0x30 }
  - { offsetInCU: 0x1B4A3, offset: 0x1B4A3, size: 0x8, addend: 0x0, symName: __ZNSt3__14pairIPNS_12basic_stringIcNS_11char_traitsIcEENS_9allocatorIcEEEES7_EC2B8ue170006IS7_S7_LPv0EEEOT_OT0_, symObjAddr: 0xA1E0, symBinAddr: 0x10000B0C0, symSize: 0x30 }
  - { offsetInCU: 0x1B501, offset: 0x1B501, size: 0x8, addend: 0x0, symName: __ZNSt3__129_AllocatorDestroyRangeReverseINS_9allocatorINS_12basic_stringIcNS_11char_traitsIcEENS1_IcEEEEEEPS6_EC1B8ue170006ERS7_RS8_SB_, symObjAddr: 0xA270, symBinAddr: 0x10000B150, symSize: 0x40 }
  - { offsetInCU: 0x1B558, offset: 0x1B558, size: 0x8, addend: 0x0, symName: __ZNSt3__116allocator_traitsINS_9allocatorINS_12basic_stringIcNS_11char_traitsIcEENS1_IcEEEEEEE9constructB8ue170006IS6_JRS6_EvEEvRS7_PT_DpOT0_, symObjAddr: 0xA2B0, symBinAddr: 0x10000B190, symSize: 0x30 }
  - { offsetInCU: 0x1B5AF, offset: 0x1B5AF, size: 0x8, addend: 0x0, symName: __ZNSt3__128__exception_guard_exceptionsINS_29_AllocatorDestroyRangeReverseINS_9allocatorINS_12basic_stringIcNS_11char_traitsIcEENS2_IcEEEEEEPS7_EEE10__completeB8ue170006Ev, symObjAddr: 0xA2E0, symBinAddr: 0x10000B1C0, symSize: 0x20 }
  - { offsetInCU: 0x1B5D5, offset: 0x1B5D5, size: 0x8, addend: 0x0, symName: __ZNSt3__128__exception_guard_exceptionsINS_29_AllocatorDestroyRangeReverseINS_9allocatorINS_12basic_stringIcNS_11char_traitsIcEENS2_IcEEEEEEPS7_EEED1B8ue170006Ev, symObjAddr: 0xA300, symBinAddr: 0x10000B1E0, symSize: 0x20 }
  - { offsetInCU: 0x1B5FF, offset: 0x1B5FF, size: 0x8, addend: 0x0, symName: __ZNSt3__128__exception_guard_exceptionsINS_29_AllocatorDestroyRangeReverseINS_9allocatorINS_12basic_stringIcNS_11char_traitsIcEENS2_IcEEEEEEPS7_EEEC1B8ue170006ESA_, symObjAddr: 0xA320, symBinAddr: 0x10000B200, symSize: 0x40 }
  - { offsetInCU: 0x1B637, offset: 0x1B637, size: 0x8, addend: 0x0, symName: __ZNSt3__128__exception_guard_exceptionsINS_29_AllocatorDestroyRangeReverseINS_9allocatorINS_12basic_stringIcNS_11char_traitsIcEENS2_IcEEEEEEPS7_EEEC2B8ue170006ESA_, symObjAddr: 0xA360, symBinAddr: 0x10000B240, symSize: 0x30 }
  - { offsetInCU: 0x1B66F, offset: 0x1B66F, size: 0x8, addend: 0x0, symName: __ZNSt3__129_AllocatorDestroyRangeReverseINS_9allocatorINS_12basic_stringIcNS_11char_traitsIcEENS1_IcEEEEEEPS6_EC2B8ue170006ERS7_RS8_SB_, symObjAddr: 0xA390, symBinAddr: 0x10000B270, symSize: 0x40 }
  - { offsetInCU: 0x1B6C6, offset: 0x1B6C6, size: 0x8, addend: 0x0, symName: __ZNSt3__19allocatorINS_12basic_stringIcNS_11char_traitsIcEENS0_IcEEEEE9constructB8ue170006IS5_JRS5_EEEvPT_DpOT0_, symObjAddr: 0xA3D0, symBinAddr: 0x10000B2B0, symSize: 0x30 }
  - { offsetInCU: 0x1B71C, offset: 0x1B71C, size: 0x8, addend: 0x0, symName: __ZNSt3__128__exception_guard_exceptionsINS_29_AllocatorDestroyRangeReverseINS_9allocatorINS_12basic_stringIcNS_11char_traitsIcEENS2_IcEEEEEEPS7_EEED2B8ue170006Ev, symObjAddr: 0xA400, symBinAddr: 0x10000B2E0, symSize: 0x40 }
  - { offsetInCU: 0x1B746, offset: 0x1B746, size: 0x8, addend: 0x0, symName: __ZNKSt3__129_AllocatorDestroyRangeReverseINS_9allocatorINS_12basic_stringIcNS_11char_traitsIcEENS1_IcEEEEEEPS6_EclB8ue170006Ev, symObjAddr: 0xA440, symBinAddr: 0x10000B320, symSize: 0x60 }
  - { offsetInCU: 0x1B76C, offset: 0x1B76C, size: 0x8, addend: 0x0, symName: __ZNSt3__116reverse_iteratorIPNS_12basic_stringIcNS_11char_traitsIcEENS_9allocatorIcEEEEEC1B8ue170006ES7_, symObjAddr: 0xA510, symBinAddr: 0x10000B3F0, symSize: 0x30 }
  - { offsetInCU: 0x1B7A4, offset: 0x1B7A4, size: 0x8, addend: 0x0, symName: __ZNSt3__116reverse_iteratorIPNS_12basic_stringIcNS_11char_traitsIcEENS_9allocatorIcEEEEEppB8ue170006Ev, symObjAddr: 0xA5A0, symBinAddr: 0x10000B480, symSize: 0x20 }
  - { offsetInCU: 0x1B7CA, offset: 0x1B7CA, size: 0x8, addend: 0x0, symName: __ZNKSt3__116reverse_iteratorIPNS_12basic_stringIcNS_11char_traitsIcEENS_9allocatorIcEEEEE4baseB8ue170006Ev, symObjAddr: 0xA5C0, symBinAddr: 0x10000B4A0, symSize: 0x20 }
  - { offsetInCU: 0x1B7F5, offset: 0x1B7F5, size: 0x8, addend: 0x0, symName: __ZNSt3__119__to_address_helperINS_16reverse_iteratorIPNS_12basic_stringIcNS_11char_traitsIcEENS_9allocatorIcEEEEEEvE6__callB8ue170006ERKS9_, symObjAddr: 0xA5E0, symBinAddr: 0x10000B4C0, symSize: 0x40 }
  - { offsetInCU: 0x1B818, offset: 0x1B818, size: 0x8, addend: 0x0, symName: __ZNKSt3__116reverse_iteratorIPNS_12basic_stringIcNS_11char_traitsIcEENS_9allocatorIcEEEEEptB8ue170006Ev, symObjAddr: 0xA620, symBinAddr: 0x10000B500, symSize: 0x20 }
  - { offsetInCU: 0x1B83E, offset: 0x1B83E, size: 0x8, addend: 0x0, symName: __ZNKSt3__116reverse_iteratorIPNS_12basic_stringIcNS_11char_traitsIcEENS_9allocatorIcEEEEEdeB8ue170006Ev, symObjAddr: 0xA640, symBinAddr: 0x10000B520, symSize: 0x30 }
  - { offsetInCU: 0x1B872, offset: 0x1B872, size: 0x8, addend: 0x0, symName: __ZNSt3__116reverse_iteratorIPNS_12basic_stringIcNS_11char_traitsIcEENS_9allocatorIcEEEEEC2B8ue170006ES7_, symObjAddr: 0xA670, symBinAddr: 0x10000B550, symSize: 0x30 }
  - { offsetInCU: 0x1B8AA, offset: 0x1B8AA, size: 0x8, addend: 0x0, symName: __ZNSt3__118__unwrap_iter_implIPNS_12basic_stringIcNS_11char_traitsIcEENS_9allocatorIcEEEELb1EE8__unwrapB8ue170006ES7_, symObjAddr: 0xA6A0, symBinAddr: 0x10000B580, symSize: 0x20 }
  - { offsetInCU: 0x1B8CD, offset: 0x1B8CD, size: 0x8, addend: 0x0, symName: __ZNSt3__118__unwrap_iter_implIPNS_12basic_stringIcNS_11char_traitsIcEENS_9allocatorIcEEEELb1EE8__rewrapB8ue170006ES7_S7_, symObjAddr: 0xA6C0, symBinAddr: 0x10000B5A0, symSize: 0x60 }
  - { offsetInCU: 0x1B8FE, offset: 0x1B8FE, size: 0x8, addend: 0x0, symName: __ZNSt3__16vectorINS_12basic_stringIcNS_11char_traitsIcEENS_9allocatorIcEEEENS4_IS6_EEE21_ConstructTransactionD2B8ue170006Ev, symObjAddr: 0xA720, symBinAddr: 0x10000B600, symSize: 0x20 }
  - { offsetInCU: 0x1B928, offset: 0x1B928, size: 0x8, addend: 0x0, symName: __ZNSt3__128__exception_guard_exceptionsINS_6vectorINS_12basic_stringIcNS_11char_traitsIcEENS_9allocatorIcEEEENS5_IS7_EEE16__destroy_vectorEED2B8ue170006Ev, symObjAddr: 0xA740, symBinAddr: 0x10000B620, symSize: 0x30 }
  - { offsetInCU: 0x1B952, offset: 0x1B952, size: 0x8, addend: 0x0, symName: __ZNSt3__16vectorI4FileNS_9allocatorIS1_EEEixB8ue170006Em, symObjAddr: 0xA770, symBinAddr: 0x10000B650, symSize: 0x20 }
  - { offsetInCU: 0x1B989, offset: 0x1B989, size: 0x8, addend: 0x0, symName: __ZNSt3__119basic_istringstreamIcNS_11char_traitsIcEENS_9allocatorIcEEED2Ev, symObjAddr: 0xA790, symBinAddr: 0x10000B670, symSize: 0x60 }
  - { offsetInCU: 0x1B9C3, offset: 0x1B9C3, size: 0x8, addend: 0x0, symName: __ZTv0_n24_NSt3__119basic_istringstreamIcNS_11char_traitsIcEENS_9allocatorIcEEED1Ev, symObjAddr: 0xA7F0, symBinAddr: 0x10000B6D0, symSize: 0x20 }
  - { offsetInCU: 0x1B9DF, offset: 0x1B9DF, size: 0x8, addend: 0x0, symName: __ZNSt3__115basic_stringbufIcNS_11char_traitsIcEENS_9allocatorIcEEED1Ev, symObjAddr: 0xA810, symBinAddr: 0x10000B6F0, symSize: 0x20 }
  - { offsetInCU: 0x1BA0C, offset: 0x1BA0C, size: 0x8, addend: 0x0, symName: __ZNSt3__115basic_stringbufIcNS_11char_traitsIcEENS_9allocatorIcEEED2Ev, symObjAddr: 0xA830, symBinAddr: 0x10000B710, symSize: 0x40 }
  - { offsetInCU: 0x1BA39, offset: 0x1BA39, size: 0x8, addend: 0x0, symName: __ZNKSt3__111__wrap_iterIPK4FileE4baseB8ue170006Ev, symObjAddr: 0xA8E0, symBinAddr: 0x10000B7C0, symSize: 0x20 }
  - { offsetInCU: 0x1BA5F, offset: 0x1BA5F, size: 0x8, addend: 0x0, symName: __ZNSt3__16vectorIjNS_9allocatorIjEEE9push_backB8ue170006ERKj, symObjAddr: 0xA900, symBinAddr: 0x10000B7E0, symSize: 0x60 }
  - { offsetInCU: 0x1BA96, offset: 0x1BA96, size: 0x8, addend: 0x0, symName: __ZNSt3__113unordered_mapINS_12basic_stringIcNS_11char_traitsIcEENS_9allocatorIcEEEENS_6vectorIjNS4_IjEEEENS_4hashIS6_EENS_8equal_toIS6_EENS4_INS_4pairIKS6_S9_EEEEEaSEOSI_, symObjAddr: 0xA960, symBinAddr: 0x10000B840, symSize: 0x30 }
  - { offsetInCU: 0x1BACD, offset: 0x1BACD, size: 0x8, addend: 0x0, symName: __ZNSt3__16vectorIjNS_9allocatorIjEEE9__end_capB8ue170006Ev, symObjAddr: 0xA990, symBinAddr: 0x10000B870, symSize: 0x20 }
  - { offsetInCU: 0x1BAF3, offset: 0x1BAF3, size: 0x8, addend: 0x0, symName: __ZNSt3__16vectorIjNS_9allocatorIjEEE22__construct_one_at_endB8ue170006IJRKjEEEvDpOT_, symObjAddr: 0xA9B0, symBinAddr: 0x10000B890, symSize: 0x90 }
  - { offsetInCU: 0x1BB42, offset: 0x1BB42, size: 0x8, addend: 0x0, symName: __ZNSt3__16vectorIjNS_9allocatorIjEEE21__push_back_slow_pathIRKjEEvOT_, symObjAddr: 0xAA40, symBinAddr: 0x10000B920, symSize: 0xD0 }
  - { offsetInCU: 0x1BBA0, offset: 0x1BBA0, size: 0x8, addend: 0x0, symName: __ZNSt3__117__compressed_pairIPjNS_9allocatorIjEEE5firstB8ue170006Ev, symObjAddr: 0xAB10, symBinAddr: 0x10000B9F0, symSize: 0x20 }
  - { offsetInCU: 0x1BBC6, offset: 0x1BBC6, size: 0x8, addend: 0x0, symName: __ZNSt3__122__compressed_pair_elemIPjLi0ELb0EE5__getB8ue170006Ev, symObjAddr: 0xAB30, symBinAddr: 0x10000BA10, symSize: 0x10 }
  - { offsetInCU: 0x1BC05, offset: 0x1BC05, size: 0x8, addend: 0x0, symName: __ZNSt3__16vectorIjNS_9allocatorIjEEE21_ConstructTransactionC1B8ue170006ERS3_m, symObjAddr: 0xAB40, symBinAddr: 0x10000BA20, symSize: 0x30 }
  - { offsetInCU: 0x1BC4D, offset: 0x1BC4D, size: 0x8, addend: 0x0, symName: __ZNSt3__116allocator_traitsINS_9allocatorIjEEE9constructB8ue170006IjJRKjEvEEvRS2_PT_DpOT0_, symObjAddr: 0xAB70, symBinAddr: 0x10000BA50, symSize: 0x30 }
  - { offsetInCU: 0x1BCA4, offset: 0x1BCA4, size: 0x8, addend: 0x0, symName: __ZNSt3__16vectorIjNS_9allocatorIjEEE21_ConstructTransactionD1B8ue170006Ev, symObjAddr: 0xABA0, symBinAddr: 0x10000BA80, symSize: 0x20 }
  - { offsetInCU: 0x1BCCE, offset: 0x1BCCE, size: 0x8, addend: 0x0, symName: __ZNSt3__16vectorIjNS_9allocatorIjEEE21_ConstructTransactionC2B8ue170006ERS3_m, symObjAddr: 0xABC0, symBinAddr: 0x10000BAA0, symSize: 0x40 }
  - { offsetInCU: 0x1BD16, offset: 0x1BD16, size: 0x8, addend: 0x0, symName: __ZNSt3__19allocatorIjE9constructB8ue170006IjJRKjEEEvPT_DpOT0_, symObjAddr: 0xAC00, symBinAddr: 0x10000BAE0, symSize: 0x20 }
  - { offsetInCU: 0x1BD6C, offset: 0x1BD6C, size: 0x8, addend: 0x0, symName: __ZNSt3__16vectorIjNS_9allocatorIjEEE21_ConstructTransactionD2B8ue170006Ev, symObjAddr: 0xAC20, symBinAddr: 0x10000BB00, symSize: 0x20 }
  - { offsetInCU: 0x1BD96, offset: 0x1BD96, size: 0x8, addend: 0x0, symName: __ZNKSt3__16vectorIjNS_9allocatorIjEEE11__recommendB8ue170006Em, symObjAddr: 0xAC40, symBinAddr: 0x10000BB20, symSize: 0xA0 }
  - { offsetInCU: 0x1BDEB, offset: 0x1BDEB, size: 0x8, addend: 0x0, symName: __ZNSt3__114__split_bufferIjRNS_9allocatorIjEEEC1EmmS3_, symObjAddr: 0xACE0, symBinAddr: 0x10000BBC0, symSize: 0x40 }
  - { offsetInCU: 0x1BE41, offset: 0x1BE41, size: 0x8, addend: 0x0, symName: __ZNSt3__114__split_bufferIjRNS_9allocatorIjEEED1Ev, symObjAddr: 0xAE40, symBinAddr: 0x10000BD20, symSize: 0x20 }
  - { offsetInCU: 0x1BE6D, offset: 0x1BE6D, size: 0x8, addend: 0x0, symName: __ZNKSt3__16vectorIjNS_9allocatorIjEEE8max_sizeEv, symObjAddr: 0xAE60, symBinAddr: 0x10000BD40, symSize: 0x60 }
  - { offsetInCU: 0x1BE95, offset: 0x1BE95, size: 0x8, addend: 0x0, symName: __ZNKSt3__16vectorIjNS_9allocatorIjEEE20__throw_length_errorB8ue170006Ev, symObjAddr: 0xAEC0, symBinAddr: 0x10000BDA0, symSize: 0x20 }
  - { offsetInCU: 0x1BEC5, offset: 0x1BEC5, size: 0x8, addend: 0x0, symName: __ZNSt3__116allocator_traitsINS_9allocatorIjEEE8max_sizeB8ue170006IS2_vEEmRKS2_, symObjAddr: 0xAEE0, symBinAddr: 0x10000BDC0, symSize: 0x20 }
  - { offsetInCU: 0x1BEF3, offset: 0x1BEF3, size: 0x8, addend: 0x0, symName: __ZNKSt3__16vectorIjNS_9allocatorIjEEE7__allocB8ue170006Ev, symObjAddr: 0xAF00, symBinAddr: 0x10000BDE0, symSize: 0x20 }
  - { offsetInCU: 0x1BF19, offset: 0x1BF19, size: 0x8, addend: 0x0, symName: __ZNKSt3__19allocatorIjE8max_sizeB8ue170006Ev, symObjAddr: 0xAF20, symBinAddr: 0x10000BE00, symSize: 0x20 }
  - { offsetInCU: 0x1BF3F, offset: 0x1BF3F, size: 0x8, addend: 0x0, symName: __ZNKSt3__117__compressed_pairIPjNS_9allocatorIjEEE6secondB8ue170006Ev, symObjAddr: 0xAF40, symBinAddr: 0x10000BE20, symSize: 0x20 }
  - { offsetInCU: 0x1BF65, offset: 0x1BF65, size: 0x8, addend: 0x0, symName: __ZNKSt3__122__compressed_pair_elemINS_9allocatorIjEELi1ELb1EE5__getB8ue170006Ev, symObjAddr: 0xAF60, symBinAddr: 0x10000BE40, symSize: 0x10 }
  - { offsetInCU: 0x1BF8B, offset: 0x1BF8B, size: 0x8, addend: 0x0, symName: __ZNSt3__114__split_bufferIjRNS_9allocatorIjEEEC2EmmS3_, symObjAddr: 0xAF70, symBinAddr: 0x10000BE50, symSize: 0xD0 }
  - { offsetInCU: 0x1BFFE, offset: 0x1BFFE, size: 0x8, addend: 0x0, symName: __ZNSt3__117__compressed_pairIPjRNS_9allocatorIjEEEC1B8ue170006IDnS4_EEOT_OT0_, symObjAddr: 0xB040, symBinAddr: 0x10000BF20, symSize: 0x30 }
  - { offsetInCU: 0x1C056, offset: 0x1C056, size: 0x8, addend: 0x0, symName: __ZNSt3__114__split_bufferIjRNS_9allocatorIjEEE7__allocB8ue170006Ev, symObjAddr: 0xB0B0, symBinAddr: 0x10000BF90, symSize: 0x20 }
  - { offsetInCU: 0x1C07C, offset: 0x1C07C, size: 0x8, addend: 0x0, symName: __ZNSt3__114__split_bufferIjRNS_9allocatorIjEEE9__end_capB8ue170006Ev, symObjAddr: 0xB0D0, symBinAddr: 0x10000BFB0, symSize: 0x20 }
  - { offsetInCU: 0x1C0A2, offset: 0x1C0A2, size: 0x8, addend: 0x0, symName: __ZNSt3__117__compressed_pairIPjRNS_9allocatorIjEEEC2B8ue170006IDnS4_EEOT_OT0_, symObjAddr: 0xB0F0, symBinAddr: 0x10000BFD0, symSize: 0x40 }
  - { offsetInCU: 0x1C0FA, offset: 0x1C0FA, size: 0x8, addend: 0x0, symName: __ZNSt3__122__compressed_pair_elemIRNS_9allocatorIjEELi1ELb0EEC2B8ue170006IS3_vEEOT_, symObjAddr: 0xB130, symBinAddr: 0x10000C010, symSize: 0x20 }
  - { offsetInCU: 0x1C13C, offset: 0x1C13C, size: 0x8, addend: 0x0, symName: __ZNSt3__19allocatorIjE8allocateB8ue170006Em, symObjAddr: 0xB150, symBinAddr: 0x10000C030, symSize: 0x50 }
  - { offsetInCU: 0x1C170, offset: 0x1C170, size: 0x8, addend: 0x0, symName: __ZNSt3__117__compressed_pairIPjRNS_9allocatorIjEEE6secondB8ue170006Ev, symObjAddr: 0xB1A0, symBinAddr: 0x10000C080, symSize: 0x20 }
  - { offsetInCU: 0x1C196, offset: 0x1C196, size: 0x8, addend: 0x0, symName: __ZNSt3__122__compressed_pair_elemIRNS_9allocatorIjEELi1ELb0EE5__getB8ue170006Ev, symObjAddr: 0xB1C0, symBinAddr: 0x10000C0A0, symSize: 0x20 }
  - { offsetInCU: 0x1C1BC, offset: 0x1C1BC, size: 0x8, addend: 0x0, symName: __ZNSt3__117__compressed_pairIPjRNS_9allocatorIjEEE5firstB8ue170006Ev, symObjAddr: 0xB1E0, symBinAddr: 0x10000C0C0, symSize: 0x20 }
  - { offsetInCU: 0x1C1E2, offset: 0x1C1E2, size: 0x8, addend: 0x0, symName: __ZNSt3__116reverse_iteratorIPjEC1B8ue170006ES1_, symObjAddr: 0xB270, symBinAddr: 0x10000C150, symSize: 0x30 }
  - { offsetInCU: 0x1C21A, offset: 0x1C21A, size: 0x8, addend: 0x0, symName: __ZNKSt3__116reverse_iteratorIPjE4baseB8ue170006Ev, symObjAddr: 0xB2A0, symBinAddr: 0x10000C180, symSize: 0x20 }
  - { offsetInCU: 0x1C240, offset: 0x1C240, size: 0x8, addend: 0x0, symName: __ZNKSt3__16vectorIjNS_9allocatorIjEEE14__annotate_newB8ue170006Em, symObjAddr: 0xB300, symBinAddr: 0x10000C1E0, symSize: 0xB0 }
  - { offsetInCU: 0x1C299, offset: 0x1C299, size: 0x8, addend: 0x0, symName: __ZNKSt3__111__move_loopINS_17_ClassicAlgPolicyEEclB8ue170006INS_16reverse_iteratorIPjEES6_S6_EENS_4pairIT_T1_EES8_T0_S9_, symObjAddr: 0xB7F0, symBinAddr: 0x10000C6D0, symSize: 0xA0 }
  - { offsetInCU: 0x1C30A, offset: 0x1C30A, size: 0x8, addend: 0x0, symName: __ZNSt3__18_IterOpsINS_17_ClassicAlgPolicyEE11__iter_moveB8ue170006IRNS_16reverse_iteratorIPjEEEENS_9enable_ifIXsr12is_referenceIDTdeclsr3stdE7declvalIRT_EEEEE5valueEDTclsr3stdE4movedeclsr3stdE7declvalISA_EEEEE4typeEOS9_, symObjAddr: 0xBA10, symBinAddr: 0x10000C8F0, symSize: 0x20 }
  - { offsetInCU: 0x1C336, offset: 0x1C336, size: 0x8, addend: 0x0, symName: __ZNKSt3__116reverse_iteratorIPjEdeB8ue170006Ev, symObjAddr: 0xBA30, symBinAddr: 0x10000C910, symSize: 0x30 }
  - { offsetInCU: 0x1C36A, offset: 0x1C36A, size: 0x8, addend: 0x0, symName: __ZNSt3__116reverse_iteratorIPjEppB8ue170006Ev, symObjAddr: 0xBA60, symBinAddr: 0x10000C940, symSize: 0x20 }
  - { offsetInCU: 0x1C390, offset: 0x1C390, size: 0x8, addend: 0x0, symName: __ZNSt3__18_IterOpsINS_17_ClassicAlgPolicyEE25__validate_iter_referenceB8ue170006IRNS_16reverse_iteratorIPjEEEEvv, symObjAddr: 0xBA80, symBinAddr: 0x10000C960, symSize: 0x10 }
  - { offsetInCU: 0x1C3AE, offset: 0x1C3AE, size: 0x8, addend: 0x0, symName: __ZNSt3__118__unwrap_iter_implINS_16reverse_iteratorIPjEELb0EE8__unwrapB8ue170006ES3_, symObjAddr: 0xBA90, symBinAddr: 0x10000C970, symSize: 0x20 }
  - { offsetInCU: 0x1C3D7, offset: 0x1C3D7, size: 0x8, addend: 0x0, symName: __ZNSt3__14pairINS_16reverse_iteratorIPjEES3_EC1B8ue170006IS3_S3_LPv0EEEOT_OT0_, symObjAddr: 0xBAB0, symBinAddr: 0x10000C990, symSize: 0x30 }
  - { offsetInCU: 0x1C435, offset: 0x1C435, size: 0x8, addend: 0x0, symName: __ZNSt3__14pairINS_16reverse_iteratorIPjEES3_EC2B8ue170006IS3_S3_LPv0EEEOT_OT0_, symObjAddr: 0xBAE0, symBinAddr: 0x10000C9C0, symSize: 0x40 }
  - { offsetInCU: 0x1C493, offset: 0x1C493, size: 0x8, addend: 0x0, symName: __ZNSt3__118__unwrap_iter_implINS_16reverse_iteratorIPjEELb0EE8__rewrapB8ue170006ES3_S3_, symObjAddr: 0xBB20, symBinAddr: 0x10000CA00, symSize: 0x30 }
  - { offsetInCU: 0x1C4C0, offset: 0x1C4C0, size: 0x8, addend: 0x0, symName: __ZNSt3__116reverse_iteratorIPjEC2B8ue170006ES1_, symObjAddr: 0xBB50, symBinAddr: 0x10000CA30, symSize: 0x30 }
  - { offsetInCU: 0x1C4F8, offset: 0x1C4F8, size: 0x8, addend: 0x0, symName: __ZNSt3__114__split_bufferIjRNS_9allocatorIjEEED2Ev, symObjAddr: 0xBB80, symBinAddr: 0x10000CA60, symSize: 0x70 }
  - { offsetInCU: 0x1C524, offset: 0x1C524, size: 0x8, addend: 0x0, symName: __ZNSt3__114__split_bufferIjRNS_9allocatorIjEEE5clearB8ue170006Ev, symObjAddr: 0xBBF0, symBinAddr: 0x10000CAD0, symSize: 0x20 }
  - { offsetInCU: 0x1C54A, offset: 0x1C54A, size: 0x8, addend: 0x0, symName: __ZNKSt3__114__split_bufferIjRNS_9allocatorIjEEE8capacityB8ue170006Ev, symObjAddr: 0xBC10, symBinAddr: 0x10000CAF0, symSize: 0x30 }
  - { offsetInCU: 0x1C570, offset: 0x1C570, size: 0x8, addend: 0x0, symName: __ZNSt3__114__split_bufferIjRNS_9allocatorIjEEE17__destruct_at_endB8ue170006EPj, symObjAddr: 0xBC40, symBinAddr: 0x10000CB20, symSize: 0x30 }
  - { offsetInCU: 0x1C5A4, offset: 0x1C5A4, size: 0x8, addend: 0x0, symName: __ZNSt3__114__split_bufferIjRNS_9allocatorIjEEE17__destruct_at_endB8ue170006EPjNS_17integral_constantIbLb0EEE, symObjAddr: 0xBC70, symBinAddr: 0x10000CB50, symSize: 0x80 }
  - { offsetInCU: 0x1C5E4, offset: 0x1C5E4, size: 0x8, addend: 0x0, symName: __ZNKSt3__114__split_bufferIjRNS_9allocatorIjEEE9__end_capB8ue170006Ev, symObjAddr: 0xBCF0, symBinAddr: 0x10000CBD0, symSize: 0x20 }
  - { offsetInCU: 0x1C60A, offset: 0x1C60A, size: 0x8, addend: 0x0, symName: __ZNKSt3__117__compressed_pairIPjRNS_9allocatorIjEEE5firstB8ue170006Ev, symObjAddr: 0xBD10, symBinAddr: 0x10000CBF0, symSize: 0x20 }
  - { offsetInCU: 0x1C630, offset: 0x1C630, size: 0x8, addend: 0x0, symName: __ZNSt3__112__hash_tableINS_17__hash_value_typeINS_12basic_stringIcNS_11char_traitsIcEENS_9allocatorIcEEEENS_6vectorIjNS5_IjEEEEEENS_22__unordered_map_hasherIS7_SB_NS_4hashIS7_EENS_8equal_toIS7_EELb1EEENS_21__unordered_map_equalIS7_SB_SG_SE_Lb1EEENS5_ISB_EEEaSEOSL_, symObjAddr: 0xBD30, symBinAddr: 0x10000CC10, symSize: 0x30 }
  - { offsetInCU: 0x1C667, offset: 0x1C667, size: 0x8, addend: 0x0, symName: __ZNSt3__112__hash_tableINS_17__hash_value_typeINS_12basic_stringIcNS_11char_traitsIcEENS_9allocatorIcEEEENS_6vectorIjNS5_IjEEEEEENS_22__unordered_map_hasherIS7_SB_NS_4hashIS7_EENS_8equal_toIS7_EELb1EEENS_21__unordered_map_equalIS7_SB_SG_SE_Lb1EEENS5_ISB_EEE13__move_assignERSL_NS_17integral_constantIbLb1EEE, symObjAddr: 0xBD60, symBinAddr: 0x10000CC40, symSize: 0x1B0 }
  - { offsetInCU: 0x1C6A9, offset: 0x1C6A9, size: 0x8, addend: 0x0, symName: __ZNSt3__112__hash_tableINS_17__hash_value_typeINS_12basic_stringIcNS_11char_traitsIcEENS_9allocatorIcEEEENS_6vectorIjNS5_IjEEEEEENS_22__unordered_map_hasherIS7_SB_NS_4hashIS7_EENS_8equal_toIS7_EELb1EEENS_21__unordered_map_equalIS7_SB_SG_SE_Lb1EEENS5_ISB_EEE5clearEv, symObjAddr: 0xBF10, symBinAddr: 0x10000CDF0, symSize: 0xB0 }
  - { offsetInCU: 0x1C70B, offset: 0x1C70B, size: 0x8, addend: 0x0, symName: __ZNSt3__110unique_ptrIA_PNS_16__hash_node_baseIPNS_11__hash_nodeINS_17__hash_value_typeINS_12basic_stringIcNS_11char_traitsIcEENS_9allocatorIcEEEENS_6vectorIjNS7_IjEEEEEEPvEEEENS_25__bucket_list_deallocatorINS7_ISI_EEEEE7releaseB8ue170006Ev, symObjAddr: 0xBFC0, symBinAddr: 0x10000CEA0, symSize: 0x40 }
  - { offsetInCU: 0x1C740, offset: 0x1C740, size: 0x8, addend: 0x0, symName: __ZNSt3__112__hash_tableINS_17__hash_value_typeINS_12basic_stringIcNS_11char_traitsIcEENS_9allocatorIcEEEENS_6vectorIjNS5_IjEEEEEENS_22__unordered_map_hasherIS7_SB_NS_4hashIS7_EENS_8equal_toIS7_EELb1EEENS_21__unordered_map_equalIS7_SB_SG_SE_Lb1EEENS5_ISB_EEE19__move_assign_allocB8ue170006ERSL_, symObjAddr: 0xC000, symBinAddr: 0x10000CEE0, symSize: 0x30 }
  - { offsetInCU: 0x1C775, offset: 0x1C775, size: 0x8, addend: 0x0, symName: __ZNSt3__112__hash_tableINS_17__hash_value_typeINS_12basic_stringIcNS_11char_traitsIcEENS_9allocatorIcEEEENS_6vectorIjNS5_IjEEEEEENS_22__unordered_map_hasherIS7_SB_NS_4hashIS7_EENS_8equal_toIS7_EELb1EEENS_21__unordered_map_equalIS7_SB_SG_SE_Lb1EEENS5_ISB_EEE19__move_assign_allocB8ue170006ERSL_NS_17integral_constantIbLb1EEE, symObjAddr: 0xC030, symBinAddr: 0x10000CF10, symSize: 0x60 }
  - { offsetInCU: 0x1C7B5, offset: 0x1C7B5, size: 0x8, addend: 0x0, symName: __ZNSt3__112basic_stringIcNS_11char_traitsIcEENS_9allocatorIcEEEC2B8ue170006ILi0EEEPKc, symObjAddr: 0xC090, symBinAddr: 0x10000CF70, symSize: 0x50 }
  - { offsetInCU: 0x1C7F4, offset: 0x1C7F4, size: 0x8, addend: 0x0, symName: __ZNSt3__111char_traitsIcE6lengthB8ue170006EPKc, symObjAddr: 0xC0E0, symBinAddr: 0x10000CFC0, symSize: 0x30 }
  - { offsetInCU: 0x1C817, offset: 0x1C817, size: 0x8, addend: 0x0, symName: __ZNSt3__19basic_iosIcNS_11char_traitsIcEEEC2B8ue170006Ev, symObjAddr: 0xC130, symBinAddr: 0x10000D010, symSize: 0x40 }
  - { offsetInCU: 0x1C841, offset: 0x1C841, size: 0x8, addend: 0x0, symName: __ZNSt3__113basic_istreamIcNS_11char_traitsIcEEEC2B8ue170006EPNS_15basic_streambufIcS2_EE, symObjAddr: 0xC170, symBinAddr: 0x10000D050, symSize: 0x50 }
  - { offsetInCU: 0x1C886, offset: 0x1C886, size: 0x8, addend: 0x0, symName: __ZNSt3__115basic_stringbufIcNS_11char_traitsIcEENS_9allocatorIcEEEC1B8ue170006ERKNS_12basic_stringIcS2_S4_EEj, symObjAddr: 0xC1C0, symBinAddr: 0x10000D0A0, symSize: 0x30 }
  - { offsetInCU: 0x1C8CE, offset: 0x1C8CE, size: 0x8, addend: 0x0, symName: __ZNSt3__18ios_baseC2B8ue170006Ev, symObjAddr: 0xC1F0, symBinAddr: 0x10000D0D0, symSize: 0x20 }
  - { offsetInCU: 0x1C8F8, offset: 0x1C8F8, size: 0x8, addend: 0x0, symName: __ZNSt3__19basic_iosIcNS_11char_traitsIcEEE4initB8ue170006EPNS_15basic_streambufIcS2_EE, symObjAddr: 0xC210, symBinAddr: 0x10000D0F0, symSize: 0x50 }
  - { offsetInCU: 0x1C92F, offset: 0x1C92F, size: 0x8, addend: 0x0, symName: __ZNSt3__115basic_stringbufIcNS_11char_traitsIcEENS_9allocatorIcEEEC2B8ue170006ERKNS_12basic_stringIcS2_S4_EEj, symObjAddr: 0xC260, symBinAddr: 0x10000D140, symSize: 0xA0 }
  - { offsetInCU: 0x1C977, offset: 0x1C977, size: 0x8, addend: 0x0, symName: __ZNKSt3__112basic_stringIcNS_11char_traitsIcEENS_9allocatorIcEEE13get_allocatorB8ue170006Ev, symObjAddr: 0xC300, symBinAddr: 0x10000D1E0, symSize: 0x20 }
  - { offsetInCU: 0x1C99D, offset: 0x1C99D, size: 0x8, addend: 0x0, symName: __ZNSt3__112basic_stringIcNS_11char_traitsIcEENS_9allocatorIcEEEC1B8ue170006ERKS4_, symObjAddr: 0xC320, symBinAddr: 0x10000D200, symSize: 0x30 }
  - { offsetInCU: 0x1C9D6, offset: 0x1C9D6, size: 0x8, addend: 0x0, symName: __ZNKSt3__112basic_stringIcNS_11char_traitsIcEENS_9allocatorIcEEE7__allocB8ue170006Ev, symObjAddr: 0xC350, symBinAddr: 0x10000D230, symSize: 0x20 }
  - { offsetInCU: 0x1C9FC, offset: 0x1C9FC, size: 0x8, addend: 0x0, symName: __ZNKSt3__117__compressed_pairINS_12basic_stringIcNS_11char_traitsIcEENS_9allocatorIcEEE5__repES5_E6secondB8ue170006Ev, symObjAddr: 0xC370, symBinAddr: 0x10000D250, symSize: 0x20 }
  - { offsetInCU: 0x1CA22, offset: 0x1CA22, size: 0x8, addend: 0x0, symName: __ZNKSt3__122__compressed_pair_elemINS_9allocatorIcEELi1ELb1EE5__getB8ue170006Ev, symObjAddr: 0xC390, symBinAddr: 0x10000D270, symSize: 0x10 }
  - { offsetInCU: 0x1CA48, offset: 0x1CA48, size: 0x8, addend: 0x0, symName: __ZNSt3__112basic_stringIcNS_11char_traitsIcEENS_9allocatorIcEEEC2B8ue170006ERKS4_, symObjAddr: 0xC3A0, symBinAddr: 0x10000D280, symSize: 0x50 }
  - { offsetInCU: 0x1CA81, offset: 0x1CA81, size: 0x8, addend: 0x0, symName: __ZNSt3__117__compressed_pairINS_12basic_stringIcNS_11char_traitsIcEENS_9allocatorIcEEE5__repES5_EC1B8ue170006INS_18__default_init_tagERKS5_EEOT_OT0_, symObjAddr: 0xC3F0, symBinAddr: 0x10000D2D0, symSize: 0x30 }
  - { offsetInCU: 0x1CAD9, offset: 0x1CAD9, size: 0x8, addend: 0x0, symName: __ZNSt3__112basic_stringIcNS_11char_traitsIcEENS_9allocatorIcEEE14__default_initB8ue170006Ev, symObjAddr: 0xC420, symBinAddr: 0x10000D300, symSize: 0x50 }
  - { offsetInCU: 0x1CAFF, offset: 0x1CAFF, size: 0x8, addend: 0x0, symName: __ZNSt3__117__compressed_pairINS_12basic_stringIcNS_11char_traitsIcEENS_9allocatorIcEEE5__repES5_EC2B8ue170006INS_18__default_init_tagERKS5_EEOT_OT0_, symObjAddr: 0xC470, symBinAddr: 0x10000D350, symSize: 0x40 }
  - { offsetInCU: 0x1CB57, offset: 0x1CB57, size: 0x8, addend: 0x0, symName: __ZNSt3__122__compressed_pair_elemINS_9allocatorIcEELi1ELb1EEC2B8ue170006IRKS2_vEEOT_, symObjAddr: 0xC4B0, symBinAddr: 0x10000D390, symSize: 0x10 }
  - { offsetInCU: 0x1CB99, offset: 0x1CB99, size: 0x8, addend: 0x0, symName: __ZNSt3__18ios_base5rdbufB8ue170006EPv, symObjAddr: 0xC4C0, symBinAddr: 0x10000D3A0, symSize: 0x30 }
  - { offsetInCU: 0x1CBCE, offset: 0x1CBCE, size: 0x8, addend: 0x0, symName: __ZNKSt3__16vectorI4FileNS_9allocatorIS1_EEE11__make_iterB8ue170006EPKS1_, symObjAddr: 0xC4F0, symBinAddr: 0x10000D3D0, symSize: 0x30 }
  - { offsetInCU: 0x1CC03, offset: 0x1CC03, size: 0x8, addend: 0x0, symName: __ZNSt3__111__wrap_iterIPK4FileEC1B8ue170006ES3_, symObjAddr: 0xC520, symBinAddr: 0x10000D400, symSize: 0x30 }
  - { offsetInCU: 0x1CC3B, offset: 0x1CC3B, size: 0x8, addend: 0x0, symName: __ZNSt3__111__wrap_iterIPK4FileEC2B8ue170006ES3_, symObjAddr: 0xC550, symBinAddr: 0x10000D430, symSize: 0x20 }
  - { offsetInCU: 0x1CC73, offset: 0x1CC73, size: 0x8, addend: 0x0, symName: __ZNSt3__18_IterOpsINS_17_ClassicAlgPolicyEE8distanceB8ue170006INS_11__wrap_iterIPK4FileEEEENS_15iterator_traitsIT_E15difference_typeESA_SA_, symObjAddr: 0xC670, symBinAddr: 0x10000D550, symSize: 0x40 }
  - { offsetInCU: 0x1CCAD, offset: 0x1CCAD, size: 0x8, addend: 0x0, symName: __ZNSt3__18_IterOpsINS_17_ClassicAlgPolicyEE7advanceB8ue170006INS_11__wrap_iterIPK4FileEElEEvRT_T0_, symObjAddr: 0xC6D0, symBinAddr: 0x10000D5B0, symSize: 0x30 }
  - { offsetInCU: 0x1CCF0, offset: 0x1CCF0, size: 0x8, addend: 0x0, symName: __ZNKSt3__111__wrap_iterIPK4FileEdeB8ue170006Ev, symObjAddr: 0xC770, symBinAddr: 0x10000D650, symSize: 0x20 }
  - { offsetInCU: 0x1CD16, offset: 0x1CD16, size: 0x8, addend: 0x0, symName: __ZNSt3__111__wrap_iterIPK4FileEppB8ue170006Ev, symObjAddr: 0xC790, symBinAddr: 0x10000D670, symSize: 0x20 }
  - { offsetInCU: 0x1CD3C, offset: 0x1CD3C, size: 0x8, addend: 0x0, symName: __ZNSt3__111__wrap_iterIPK4FileEpLB8ue170006El, symObjAddr: 0xC820, symBinAddr: 0x10000D700, symSize: 0x20 }
  - { offsetInCU: 0x1CDC7, offset: 0x1CDC7, size: 0x8, addend: 0x0, symName: __ZNK12LowerFunctorclERK4Filey, symObjAddr: 0xC840, symBinAddr: 0x10000D720, symSize: 0x30 }
  - { offsetInCU: 0x1CE13, offset: 0x1CE13, size: 0x8, addend: 0x0, symName: __ZNKSt3__110__identityclB8ue170006IRK4FileEEOT_S6_, symObjAddr: 0xC870, symBinAddr: 0x10000D750, symSize: 0x20 }
  - { offsetInCU: 0x1CE50, offset: 0x1CE50, size: 0x8, addend: 0x0, symName: __ZNSt3__18_IterOpsINS_17_ClassicAlgPolicyEE4nextB8ue170006IRNS_11__wrap_iterIPK4FileEEEEu14__remove_cvrefIT_EOSA_NS_15iterator_traitsISB_E15difference_typeE, symObjAddr: 0xC990, symBinAddr: 0x10000D870, symSize: 0x40 }
  - { offsetInCU: 0x1CEDC, offset: 0x1CEDC, size: 0x8, addend: 0x0, symName: __ZNK12UpperFunctorclEyRK4File, symObjAddr: 0xCA40, symBinAddr: 0x10000D920, symSize: 0x30 }
  - { offsetInCU: 0x1CF1E, offset: 0x1CF1E, size: 0x8, addend: 0x0, symName: __ZNSt3__113unordered_setIjNS_4hashIjEENS_8equal_toIjEENS_9allocatorIjEEEC2B8ue170006Ev, symObjAddr: 0xCA70, symBinAddr: 0x10000D950, symSize: 0x20 }
  - { offsetInCU: 0x1CF48, offset: 0x1CF48, size: 0x8, addend: 0x0, symName: __ZNSt3__112__hash_tableIjNS_4hashIjEENS_8equal_toIjEENS_9allocatorIjEEEC1Ev, symObjAddr: 0xCA90, symBinAddr: 0x10000D970, symSize: 0x20 }
  - { offsetInCU: 0x1CF74, offset: 0x1CF74, size: 0x8, addend: 0x0, symName: __ZNSt3__112__hash_tableIjNS_4hashIjEENS_8equal_toIjEENS_9allocatorIjEEEC2Ev, symObjAddr: 0xCAB0, symBinAddr: 0x10000D990, symSize: 0x80 }
  - { offsetInCU: 0x1CFA0, offset: 0x1CFA0, size: 0x8, addend: 0x0, symName: __ZNSt3__110unique_ptrIA_PNS_16__hash_node_baseIPNS_11__hash_nodeIjPvEEEENS_25__bucket_list_deallocatorINS_9allocatorIS7_EEEEEC1B8ue170006ILb1EvEEv, symObjAddr: 0xCB30, symBinAddr: 0x10000DA10, symSize: 0x20 }
  - { offsetInCU: 0x1CFD5, offset: 0x1CFD5, size: 0x8, addend: 0x0, symName: __ZNSt3__117__compressed_pairINS_16__hash_node_baseIPNS_11__hash_nodeIjPvEEEENS_9allocatorIS4_EEEC1B8ue170006ILb1EvEEv, symObjAddr: 0xCB50, symBinAddr: 0x10000DA30, symSize: 0x20 }
  - { offsetInCU: 0x1D00A, offset: 0x1D00A, size: 0x8, addend: 0x0, symName: __ZNSt3__117__compressed_pairImNS_4hashIjEEEC1B8ue170006IiNS_18__default_init_tagEEEOT_OT0_, symObjAddr: 0xCB70, symBinAddr: 0x10000DA50, symSize: 0x30 }
  - { offsetInCU: 0x1D062, offset: 0x1D062, size: 0x8, addend: 0x0, symName: __ZNSt3__117__compressed_pairIfNS_8equal_toIjEEEC1B8ue170006IfNS_18__default_init_tagEEEOT_OT0_, symObjAddr: 0xCBA0, symBinAddr: 0x10000DA80, symSize: 0x30 }
  - { offsetInCU: 0x1D0BA, offset: 0x1D0BA, size: 0x8, addend: 0x0, symName: __ZNSt3__110unique_ptrIA_PNS_16__hash_node_baseIPNS_11__hash_nodeIjPvEEEENS_25__bucket_list_deallocatorINS_9allocatorIS7_EEEEEC2B8ue170006ILb1EvEEv, symObjAddr: 0xCBD0, symBinAddr: 0x10000DAB0, symSize: 0x30 }
  - { offsetInCU: 0x1D0EF, offset: 0x1D0EF, size: 0x8, addend: 0x0, symName: __ZNSt3__117__compressed_pairIPPNS_16__hash_node_baseIPNS_11__hash_nodeIjPvEEEENS_25__bucket_list_deallocatorINS_9allocatorIS7_EEEEEC1B8ue170006INS_16__value_init_tagESF_EEOT_OT0_, symObjAddr: 0xCC00, symBinAddr: 0x10000DAE0, symSize: 0x30 }
  - { offsetInCU: 0x1D147, offset: 0x1D147, size: 0x8, addend: 0x0, symName: __ZNSt3__117__compressed_pairIPPNS_16__hash_node_baseIPNS_11__hash_nodeIjPvEEEENS_25__bucket_list_deallocatorINS_9allocatorIS7_EEEEEC2B8ue170006INS_16__value_init_tagESF_EEOT_OT0_, symObjAddr: 0xCC30, symBinAddr: 0x10000DB10, symSize: 0x40 }
  - { offsetInCU: 0x1D19F, offset: 0x1D19F, size: 0x8, addend: 0x0, symName: __ZNSt3__122__compressed_pair_elemIPPNS_16__hash_node_baseIPNS_11__hash_nodeIjPvEEEELi0ELb0EEC2B8ue170006ENS_16__value_init_tagE, symObjAddr: 0xCC70, symBinAddr: 0x10000DB50, symSize: 0x20 }
  - { offsetInCU: 0x1D1D3, offset: 0x1D1D3, size: 0x8, addend: 0x0, symName: __ZNSt3__122__compressed_pair_elemINS_25__bucket_list_deallocatorINS_9allocatorIPNS_16__hash_node_baseIPNS_11__hash_nodeIjPvEEEEEEEELi1ELb0EEC2B8ue170006ENS_16__value_init_tagE, symObjAddr: 0xCC90, symBinAddr: 0x10000DB70, symSize: 0x20 }
  - { offsetInCU: 0x1D207, offset: 0x1D207, size: 0x8, addend: 0x0, symName: __ZNSt3__125__bucket_list_deallocatorINS_9allocatorIPNS_16__hash_node_baseIPNS_11__hash_nodeIjPvEEEEEEEC1B8ue170006Ev, symObjAddr: 0xCCB0, symBinAddr: 0x10000DB90, symSize: 0x20 }
  - { offsetInCU: 0x1D231, offset: 0x1D231, size: 0x8, addend: 0x0, symName: __ZNSt3__125__bucket_list_deallocatorINS_9allocatorIPNS_16__hash_node_baseIPNS_11__hash_nodeIjPvEEEEEEEC2B8ue170006Ev, symObjAddr: 0xCCD0, symBinAddr: 0x10000DBB0, symSize: 0x40 }
  - { offsetInCU: 0x1D25B, offset: 0x1D25B, size: 0x8, addend: 0x0, symName: __ZNSt3__117__compressed_pairImNS_9allocatorIPNS_16__hash_node_baseIPNS_11__hash_nodeIjPvEEEEEEEC1B8ue170006IiNS_18__default_init_tagEEEOT_OT0_, symObjAddr: 0xCD10, symBinAddr: 0x10000DBF0, symSize: 0x30 }
  - { offsetInCU: 0x1D2B3, offset: 0x1D2B3, size: 0x8, addend: 0x0, symName: __ZNSt3__117__compressed_pairImNS_9allocatorIPNS_16__hash_node_baseIPNS_11__hash_nodeIjPvEEEEEEEC2B8ue170006IiNS_18__default_init_tagEEEOT_OT0_, symObjAddr: 0xCD40, symBinAddr: 0x10000DC20, symSize: 0x40 }
  - { offsetInCU: 0x1D30B, offset: 0x1D30B, size: 0x8, addend: 0x0, symName: __ZNSt3__122__compressed_pair_elemINS_9allocatorIPNS_16__hash_node_baseIPNS_11__hash_nodeIjPvEEEEEELi1ELb1EEC2B8ue170006ENS_18__default_init_tagE, symObjAddr: 0xCD80, symBinAddr: 0x10000DC60, symSize: 0x20 }
  - { offsetInCU: 0x1D33F, offset: 0x1D33F, size: 0x8, addend: 0x0, symName: __ZNSt3__19allocatorIPNS_16__hash_node_baseIPNS_11__hash_nodeIjPvEEEEEC2B8ue170006Ev, symObjAddr: 0xCDA0, symBinAddr: 0x10000DC80, symSize: 0x20 }
  - { offsetInCU: 0x1D369, offset: 0x1D369, size: 0x8, addend: 0x0, symName: __ZNSt3__116__non_trivial_ifILb1ENS_9allocatorIPNS_16__hash_node_baseIPNS_11__hash_nodeIjPvEEEEEEEC2B8ue170006Ev, symObjAddr: 0xCDC0, symBinAddr: 0x10000DCA0, symSize: 0x10 }
  - { offsetInCU: 0x1D393, offset: 0x1D393, size: 0x8, addend: 0x0, symName: __ZNSt3__117__compressed_pairINS_16__hash_node_baseIPNS_11__hash_nodeIjPvEEEENS_9allocatorIS4_EEEC2B8ue170006ILb1EvEEv, symObjAddr: 0xCDD0, symBinAddr: 0x10000DCB0, symSize: 0x30 }
  - { offsetInCU: 0x1D3C8, offset: 0x1D3C8, size: 0x8, addend: 0x0, symName: __ZNSt3__122__compressed_pair_elemINS_16__hash_node_baseIPNS_11__hash_nodeIjPvEEEELi0ELb0EEC2B8ue170006ENS_16__value_init_tagE, symObjAddr: 0xCE00, symBinAddr: 0x10000DCE0, symSize: 0x20 }
  - { offsetInCU: 0x1D3FC, offset: 0x1D3FC, size: 0x8, addend: 0x0, symName: __ZNSt3__122__compressed_pair_elemINS_9allocatorINS_11__hash_nodeIjPvEEEELi1ELb1EEC2B8ue170006ENS_16__value_init_tagE, symObjAddr: 0xCE20, symBinAddr: 0x10000DD00, symSize: 0x20 }
  - { offsetInCU: 0x1D430, offset: 0x1D430, size: 0x8, addend: 0x0, symName: __ZNSt3__116__hash_node_baseIPNS_11__hash_nodeIjPvEEEC1B8ue170006Ev, symObjAddr: 0xCE40, symBinAddr: 0x10000DD20, symSize: 0x20 }
  - { offsetInCU: 0x1D45A, offset: 0x1D45A, size: 0x8, addend: 0x0, symName: __ZNSt3__116__hash_node_baseIPNS_11__hash_nodeIjPvEEEC2B8ue170006Ev, symObjAddr: 0xCE60, symBinAddr: 0x10000DD40, symSize: 0x20 }
  - { offsetInCU: 0x1D484, offset: 0x1D484, size: 0x8, addend: 0x0, symName: __ZNSt3__19allocatorINS_11__hash_nodeIjPvEEEC2B8ue170006Ev, symObjAddr: 0xCE80, symBinAddr: 0x10000DD60, symSize: 0x20 }
  - { offsetInCU: 0x1D4AE, offset: 0x1D4AE, size: 0x8, addend: 0x0, symName: __ZNSt3__116__non_trivial_ifILb1ENS_9allocatorINS_11__hash_nodeIjPvEEEEEC2B8ue170006Ev, symObjAddr: 0xCEA0, symBinAddr: 0x10000DD80, symSize: 0x10 }
  - { offsetInCU: 0x1D4D8, offset: 0x1D4D8, size: 0x8, addend: 0x0, symName: __ZNSt3__117__compressed_pairImNS_4hashIjEEEC2B8ue170006IiNS_18__default_init_tagEEEOT_OT0_, symObjAddr: 0xCEB0, symBinAddr: 0x10000DD90, symSize: 0x40 }
  - { offsetInCU: 0x1D530, offset: 0x1D530, size: 0x8, addend: 0x0, symName: __ZNSt3__122__compressed_pair_elemINS_4hashIjEELi1ELb1EEC2B8ue170006ENS_18__default_init_tagE, symObjAddr: 0xCEF0, symBinAddr: 0x10000DDD0, symSize: 0x10 }
  - { offsetInCU: 0x1D564, offset: 0x1D564, size: 0x8, addend: 0x0, symName: __ZNSt3__117__compressed_pairIfNS_8equal_toIjEEEC2B8ue170006IfNS_18__default_init_tagEEEOT_OT0_, symObjAddr: 0xCF00, symBinAddr: 0x10000DDE0, symSize: 0x40 }
  - { offsetInCU: 0x1D5BC, offset: 0x1D5BC, size: 0x8, addend: 0x0, symName: __ZNSt3__122__compressed_pair_elemINS_8equal_toIjEELi1ELb1EEC2B8ue170006ENS_18__default_init_tagE, symObjAddr: 0xCF40, symBinAddr: 0x10000DE20, symSize: 0x10 }
  - { offsetInCU: 0x1D5F0, offset: 0x1D5F0, size: 0x8, addend: 0x0, symName: __ZNSt3__113unordered_setIjNS_4hashIjEENS_8equal_toIjEENS_9allocatorIjEEED2B8ue170006Ev, symObjAddr: 0xCF50, symBinAddr: 0x10000DE30, symSize: 0x20 }
  - { offsetInCU: 0x1D61A, offset: 0x1D61A, size: 0x8, addend: 0x0, symName: __ZNSt3__112__hash_tableIjNS_4hashIjEENS_8equal_toIjEENS_9allocatorIjEEED1Ev, symObjAddr: 0xCF70, symBinAddr: 0x10000DE50, symSize: 0x20 }
  - { offsetInCU: 0x1D646, offset: 0x1D646, size: 0x8, addend: 0x0, symName: __ZNSt3__112__hash_tableIjNS_4hashIjEENS_8equal_toIjEENS_9allocatorIjEEED2Ev, symObjAddr: 0xCF90, symBinAddr: 0x10000DE70, symSize: 0x40 }
  - { offsetInCU: 0x1D672, offset: 0x1D672, size: 0x8, addend: 0x0, symName: __ZNSt3__112__hash_tableIjNS_4hashIjEENS_8equal_toIjEENS_9allocatorIjEEE17__deallocate_nodeEPNS_16__hash_node_baseIPNS_11__hash_nodeIjPvEEEE, symObjAddr: 0xCFD0, symBinAddr: 0x10000DEB0, symSize: 0xA0 }
  - { offsetInCU: 0x1D6DC, offset: 0x1D6DC, size: 0x8, addend: 0x0, symName: __ZNSt3__117__compressed_pairINS_16__hash_node_baseIPNS_11__hash_nodeIjPvEEEENS_9allocatorIS4_EEE5firstB8ue170006Ev, symObjAddr: 0xD070, symBinAddr: 0x10000DF50, symSize: 0x20 }
  - { offsetInCU: 0x1D702, offset: 0x1D702, size: 0x8, addend: 0x0, symName: __ZNSt3__110unique_ptrIA_PNS_16__hash_node_baseIPNS_11__hash_nodeIjPvEEEENS_25__bucket_list_deallocatorINS_9allocatorIS7_EEEEED1B8ue170006Ev, symObjAddr: 0xD090, symBinAddr: 0x10000DF70, symSize: 0x20 }
  - { offsetInCU: 0x1D72C, offset: 0x1D72C, size: 0x8, addend: 0x0, symName: __ZNSt3__112__hash_tableIjNS_4hashIjEENS_8equal_toIjEENS_9allocatorIjEEE12__node_allocB8ue170006Ev, symObjAddr: 0xD0B0, symBinAddr: 0x10000DF90, symSize: 0x20 }
  - { offsetInCU: 0x1D752, offset: 0x1D752, size: 0x8, addend: 0x0, symName: __ZNSt3__116__hash_node_baseIPNS_11__hash_nodeIjPvEEE8__upcastB8ue170006Ev, symObjAddr: 0xD0D0, symBinAddr: 0x10000DFB0, symSize: 0x20 }
  - { offsetInCU: 0x1D77D, offset: 0x1D77D, size: 0x8, addend: 0x0, symName: __ZNSt3__116allocator_traitsINS_9allocatorINS_11__hash_nodeIjPvEEEEE7destroyB8ue170006IjvvEEvRS5_PT_, symObjAddr: 0xD0F0, symBinAddr: 0x10000DFD0, symSize: 0x10 }
  - { offsetInCU: 0x1D7B7, offset: 0x1D7B7, size: 0x8, addend: 0x0, symName: __ZNSt3__122__hash_key_value_typesIjE9__get_ptrB8ue170006ERj, symObjAddr: 0xD100, symBinAddr: 0x10000DFE0, symSize: 0x10 }
  - { offsetInCU: 0x1D7DA, offset: 0x1D7DA, size: 0x8, addend: 0x0, symName: __ZNSt3__116allocator_traitsINS_9allocatorINS_11__hash_nodeIjPvEEEEE10deallocateB8ue170006ERS5_PS4_m, symObjAddr: 0xD110, symBinAddr: 0x10000DFF0, symSize: 0x30 }
  - { offsetInCU: 0x1D81C, offset: 0x1D81C, size: 0x8, addend: 0x0, symName: __ZNSt3__117__compressed_pairINS_16__hash_node_baseIPNS_11__hash_nodeIjPvEEEENS_9allocatorIS4_EEE6secondB8ue170006Ev, symObjAddr: 0xD140, symBinAddr: 0x10000E020, symSize: 0x20 }
  - { offsetInCU: 0x1D842, offset: 0x1D842, size: 0x8, addend: 0x0, symName: __ZNSt3__122__compressed_pair_elemINS_9allocatorINS_11__hash_nodeIjPvEEEELi1ELb1EE5__getB8ue170006Ev, symObjAddr: 0xD160, symBinAddr: 0x10000E040, symSize: 0x10 }
  - { offsetInCU: 0x1D868, offset: 0x1D868, size: 0x8, addend: 0x0, symName: __ZNSt3__114pointer_traitsIPNS_16__hash_node_baseIPNS_11__hash_nodeIjPvEEEEE10pointer_toB8ue170006ERS6_, symObjAddr: 0xD170, symBinAddr: 0x10000E050, symSize: 0x10 }
  - { offsetInCU: 0x1D88B, offset: 0x1D88B, size: 0x8, addend: 0x0, symName: __ZNSt3__19allocatorINS_11__hash_nodeIjPvEEE10deallocateB8ue170006EPS3_m, symObjAddr: 0xD180, symBinAddr: 0x10000E060, symSize: 0x50 }
  - { offsetInCU: 0x1D8CD, offset: 0x1D8CD, size: 0x8, addend: 0x0, symName: __ZNSt3__122__compressed_pair_elemINS_16__hash_node_baseIPNS_11__hash_nodeIjPvEEEELi0ELb0EE5__getB8ue170006Ev, symObjAddr: 0xD1D0, symBinAddr: 0x10000E0B0, symSize: 0x10 }
  - { offsetInCU: 0x1D8F3, offset: 0x1D8F3, size: 0x8, addend: 0x0, symName: __ZNSt3__110unique_ptrIA_PNS_16__hash_node_baseIPNS_11__hash_nodeIjPvEEEENS_25__bucket_list_deallocatorINS_9allocatorIS7_EEEEED2B8ue170006Ev, symObjAddr: 0xD1E0, symBinAddr: 0x10000E0C0, symSize: 0x20 }
  - { offsetInCU: 0x1D91D, offset: 0x1D91D, size: 0x8, addend: 0x0, symName: __ZNSt3__110unique_ptrIA_PNS_16__hash_node_baseIPNS_11__hash_nodeIjPvEEEENS_25__bucket_list_deallocatorINS_9allocatorIS7_EEEEE5resetB8ue170006EDn, symObjAddr: 0xD200, symBinAddr: 0x10000E0E0, symSize: 0x60 }
  - { offsetInCU: 0x1D95D, offset: 0x1D95D, size: 0x8, addend: 0x0, symName: __ZNSt3__117__compressed_pairIPPNS_16__hash_node_baseIPNS_11__hash_nodeIjPvEEEENS_25__bucket_list_deallocatorINS_9allocatorIS7_EEEEE5firstB8ue170006Ev, symObjAddr: 0xD260, symBinAddr: 0x10000E140, symSize: 0x20 }
  - { offsetInCU: 0x1D983, offset: 0x1D983, size: 0x8, addend: 0x0, symName: __ZNSt3__117__compressed_pairIPPNS_16__hash_node_baseIPNS_11__hash_nodeIjPvEEEENS_25__bucket_list_deallocatorINS_9allocatorIS7_EEEEE6secondB8ue170006Ev, symObjAddr: 0xD280, symBinAddr: 0x10000E160, symSize: 0x20 }
  - { offsetInCU: 0x1D9A9, offset: 0x1D9A9, size: 0x8, addend: 0x0, symName: __ZNSt3__125__bucket_list_deallocatorINS_9allocatorIPNS_16__hash_node_baseIPNS_11__hash_nodeIjPvEEEEEEEclB8ue170006EPS8_, symObjAddr: 0xD2A0, symBinAddr: 0x10000E180, symSize: 0x50 }
  - { offsetInCU: 0x1D9DE, offset: 0x1D9DE, size: 0x8, addend: 0x0, symName: __ZNSt3__122__compressed_pair_elemIPPNS_16__hash_node_baseIPNS_11__hash_nodeIjPvEEEELi0ELb0EE5__getB8ue170006Ev, symObjAddr: 0xD2F0, symBinAddr: 0x10000E1D0, symSize: 0x10 }
  - { offsetInCU: 0x1DA04, offset: 0x1DA04, size: 0x8, addend: 0x0, symName: __ZNSt3__122__compressed_pair_elemINS_25__bucket_list_deallocatorINS_9allocatorIPNS_16__hash_node_baseIPNS_11__hash_nodeIjPvEEEEEEEELi1ELb0EE5__getB8ue170006Ev, symObjAddr: 0xD300, symBinAddr: 0x10000E1E0, symSize: 0x10 }
  - { offsetInCU: 0x1DA2A, offset: 0x1DA2A, size: 0x8, addend: 0x0, symName: __ZNSt3__116allocator_traitsINS_9allocatorIPNS_16__hash_node_baseIPNS_11__hash_nodeIjPvEEEEEEE10deallocateB8ue170006ERS9_PS8_m, symObjAddr: 0xD310, symBinAddr: 0x10000E1F0, symSize: 0x30 }
  - { offsetInCU: 0x1DA6C, offset: 0x1DA6C, size: 0x8, addend: 0x0, symName: __ZNSt3__125__bucket_list_deallocatorINS_9allocatorIPNS_16__hash_node_baseIPNS_11__hash_nodeIjPvEEEEEEE7__allocB8ue170006Ev, symObjAddr: 0xD340, symBinAddr: 0x10000E220, symSize: 0x20 }
  - { offsetInCU: 0x1DA92, offset: 0x1DA92, size: 0x8, addend: 0x0, symName: __ZNSt3__125__bucket_list_deallocatorINS_9allocatorIPNS_16__hash_node_baseIPNS_11__hash_nodeIjPvEEEEEEE4sizeB8ue170006Ev, symObjAddr: 0xD360, symBinAddr: 0x10000E240, symSize: 0x20 }
  - { offsetInCU: 0x1DAB8, offset: 0x1DAB8, size: 0x8, addend: 0x0, symName: __ZNSt3__19allocatorIPNS_16__hash_node_baseIPNS_11__hash_nodeIjPvEEEEE10deallocateB8ue170006EPS7_m, symObjAddr: 0xD380, symBinAddr: 0x10000E260, symSize: 0x40 }
  - { offsetInCU: 0x1DAFA, offset: 0x1DAFA, size: 0x8, addend: 0x0, symName: __ZNSt3__117__compressed_pairImNS_9allocatorIPNS_16__hash_node_baseIPNS_11__hash_nodeIjPvEEEEEEE6secondB8ue170006Ev, symObjAddr: 0xD3C0, symBinAddr: 0x10000E2A0, symSize: 0x20 }
  - { offsetInCU: 0x1DB20, offset: 0x1DB20, size: 0x8, addend: 0x0, symName: __ZNSt3__122__compressed_pair_elemINS_9allocatorIPNS_16__hash_node_baseIPNS_11__hash_nodeIjPvEEEEEELi1ELb1EE5__getB8ue170006Ev, symObjAddr: 0xD3E0, symBinAddr: 0x10000E2C0, symSize: 0x10 }
  - { offsetInCU: 0x1DB46, offset: 0x1DB46, size: 0x8, addend: 0x0, symName: __ZNSt3__117__compressed_pairImNS_9allocatorIPNS_16__hash_node_baseIPNS_11__hash_nodeIjPvEEEEEEE5firstB8ue170006Ev, symObjAddr: 0xD3F0, symBinAddr: 0x10000E2D0, symSize: 0x20 }
  - { offsetInCU: 0x1DB6C, offset: 0x1DB6C, size: 0x8, addend: 0x0, symName: __ZNSt3__112__hash_tableIjNS_4hashIjEENS_8equal_toIjEENS_9allocatorIjEEE5beginEv, symObjAddr: 0xD410, symBinAddr: 0x10000E2F0, symSize: 0x30 }
  - { offsetInCU: 0x1DB94, offset: 0x1DB94, size: 0x8, addend: 0x0, symName: __ZNSt3__121__hash_const_iteratorIPNS_11__hash_nodeIjPvEEEC1B8ue170006ERKNS_15__hash_iteratorIS4_EE, symObjAddr: 0xD440, symBinAddr: 0x10000E320, symSize: 0x30 }
  - { offsetInCU: 0x1DBCD, offset: 0x1DBCD, size: 0x8, addend: 0x0, symName: __ZNSt3__115__hash_iteratorIPNS_11__hash_nodeIjPvEEEC1B8ue170006EPNS_16__hash_node_baseIS4_EE, symObjAddr: 0xD470, symBinAddr: 0x10000E350, symSize: 0x30 }
  - { offsetInCU: 0x1DC06, offset: 0x1DC06, size: 0x8, addend: 0x0, symName: __ZNSt3__115__hash_iteratorIPNS_11__hash_nodeIjPvEEEC2B8ue170006EPNS_16__hash_node_baseIS4_EE, symObjAddr: 0xD4A0, symBinAddr: 0x10000E380, symSize: 0x20 }
  - { offsetInCU: 0x1DC3F, offset: 0x1DC3F, size: 0x8, addend: 0x0, symName: __ZNSt3__121__hash_const_iteratorIPNS_11__hash_nodeIjPvEEEC2B8ue170006ERKNS_15__hash_iteratorIS4_EE, symObjAddr: 0xD4C0, symBinAddr: 0x10000E3A0, symSize: 0x20 }
  - { offsetInCU: 0x1DC78, offset: 0x1DC78, size: 0x8, addend: 0x0, symName: __ZNSt3__112__hash_tableIjNS_4hashIjEENS_8equal_toIjEENS_9allocatorIjEEE3endEv, symObjAddr: 0xD4E0, symBinAddr: 0x10000E3C0, symSize: 0x30 }
  - { offsetInCU: 0x1DCA0, offset: 0x1DCA0, size: 0x8, addend: 0x0, symName: __ZNKSt3__112__hash_tableIjNS_4hashIjEENS_8equal_toIjEENS_9allocatorIjEEE4sizeB8ue170006Ev, symObjAddr: 0xD540, symBinAddr: 0x10000E420, symSize: 0x30 }
  - { offsetInCU: 0x1DCC6, offset: 0x1DCC6, size: 0x8, addend: 0x0, symName: __ZNKSt3__117__compressed_pairImNS_4hashIjEEE5firstB8ue170006Ev, symObjAddr: 0xD570, symBinAddr: 0x10000E450, symSize: 0x20 }
  - { offsetInCU: 0x1DCEC, offset: 0x1DCEC, size: 0x8, addend: 0x0, symName: __ZNSt3__112__hash_tableIjNS_4hashIjEENS_8equal_toIjEENS_9allocatorIjEEE5clearEv, symObjAddr: 0xD590, symBinAddr: 0x10000E470, symSize: 0xD0 }
  - { offsetInCU: 0x1DD3E, offset: 0x1DD3E, size: 0x8, addend: 0x0, symName: __ZNSt3__112__hash_tableIjNS_4hashIjEENS_8equal_toIjEENS_9allocatorIjEEE4sizeB8ue170006Ev, symObjAddr: 0xD660, symBinAddr: 0x10000E540, symSize: 0x20 }
  - { offsetInCU: 0x1DD64, offset: 0x1DD64, size: 0x8, addend: 0x0, symName: __ZNKSt3__112__hash_tableIjNS_4hashIjEENS_8equal_toIjEENS_9allocatorIjEEE12bucket_countB8ue170006Ev, symObjAddr: 0xD680, symBinAddr: 0x10000E560, symSize: 0x30 }
  - { offsetInCU: 0x1DD8A, offset: 0x1DD8A, size: 0x8, addend: 0x0, symName: __ZNKSt3__110unique_ptrIA_PNS_16__hash_node_baseIPNS_11__hash_nodeIjPvEEEENS_25__bucket_list_deallocatorINS_9allocatorIS7_EEEEEixB8ue170006Em, symObjAddr: 0xD6B0, symBinAddr: 0x10000E590, symSize: 0x30 }
  - { offsetInCU: 0x1DDBF, offset: 0x1DDBF, size: 0x8, addend: 0x0, symName: __ZNSt3__117__compressed_pairImNS_4hashIjEEE5firstB8ue170006Ev, symObjAddr: 0xD6E0, symBinAddr: 0x10000E5C0, symSize: 0x20 }
  - { offsetInCU: 0x1DDE5, offset: 0x1DDE5, size: 0x8, addend: 0x0, symName: __ZNKSt3__110unique_ptrIA_PNS_16__hash_node_baseIPNS_11__hash_nodeIjPvEEEENS_25__bucket_list_deallocatorINS_9allocatorIS7_EEEEE11get_deleterB8ue170006Ev, symObjAddr: 0xD700, symBinAddr: 0x10000E5E0, symSize: 0x20 }
  - { offsetInCU: 0x1DE0B, offset: 0x1DE0B, size: 0x8, addend: 0x0, symName: __ZNKSt3__125__bucket_list_deallocatorINS_9allocatorIPNS_16__hash_node_baseIPNS_11__hash_nodeIjPvEEEEEEE4sizeB8ue170006Ev, symObjAddr: 0xD720, symBinAddr: 0x10000E600, symSize: 0x20 }
  - { offsetInCU: 0x1DE31, offset: 0x1DE31, size: 0x8, addend: 0x0, symName: __ZNKSt3__117__compressed_pairIPPNS_16__hash_node_baseIPNS_11__hash_nodeIjPvEEEENS_25__bucket_list_deallocatorINS_9allocatorIS7_EEEEE6secondB8ue170006Ev, symObjAddr: 0xD740, symBinAddr: 0x10000E620, symSize: 0x20 }
  - { offsetInCU: 0x1DE57, offset: 0x1DE57, size: 0x8, addend: 0x0, symName: __ZNKSt3__122__compressed_pair_elemINS_25__bucket_list_deallocatorINS_9allocatorIPNS_16__hash_node_baseIPNS_11__hash_nodeIjPvEEEEEEEELi1ELb0EE5__getB8ue170006Ev, symObjAddr: 0xD760, symBinAddr: 0x10000E640, symSize: 0x10 }
  - { offsetInCU: 0x1DE7D, offset: 0x1DE7D, size: 0x8, addend: 0x0, symName: __ZNKSt3__117__compressed_pairImNS_9allocatorIPNS_16__hash_node_baseIPNS_11__hash_nodeIjPvEEEEEEE5firstB8ue170006Ev, symObjAddr: 0xD770, symBinAddr: 0x10000E650, symSize: 0x20 }
  - { offsetInCU: 0x1DEA3, offset: 0x1DEA3, size: 0x8, addend: 0x0, symName: __ZNKSt3__117__compressed_pairIPPNS_16__hash_node_baseIPNS_11__hash_nodeIjPvEEEENS_25__bucket_list_deallocatorINS_9allocatorIS7_EEEEE5firstB8ue170006Ev, symObjAddr: 0xD790, symBinAddr: 0x10000E670, symSize: 0x20 }
  - { offsetInCU: 0x1DEC9, offset: 0x1DEC9, size: 0x8, addend: 0x0, symName: __ZNKSt3__122__compressed_pair_elemIPPNS_16__hash_node_baseIPNS_11__hash_nodeIjPvEEEELi0ELb0EE5__getB8ue170006Ev, symObjAddr: 0xD7B0, symBinAddr: 0x10000E690, symSize: 0xE }
  - { offsetInCU: 0xA573, offset: 0x28736, size: 0x8, addend: 0x0, symName: __ZNSt3__115regex_constants13__get_grammarB8ue170006ENS0_18syntax_option_typeE, symObjAddr: 0x17600, symBinAddr: 0x10001C290, symSize: 0x20 }
  - { offsetInCU: 0xA5A1, offset: 0x28764, size: 0x8, addend: 0x0, symName: __ZNSt3__115regex_constantsoRB8ue170006ERNS0_18syntax_option_typeES1_, symObjAddr: 0x17620, symBinAddr: 0x10001C2B0, symSize: 0x30 }
  - { offsetInCU: 0xA5DE, offset: 0x287A1, size: 0x8, addend: 0x0, symName: __ZNSt3__115regex_constantsorB8ue170006ENS0_18syntax_option_typeES1_, symObjAddr: 0x178D0, symBinAddr: 0x10001C560, symSize: 0x20 }
  - { offsetInCU: 0xA61B, offset: 0x287DE, size: 0x8, addend: 0x0, symName: __ZNSt3__115regex_constantsanB8ue170006ENS0_18syntax_option_typeES1_, symObjAddr: 0x1A490, symBinAddr: 0x10001F120, symSize: 0x20 }
  - { offsetInCU: 0xA658, offset: 0x2881B, size: 0x8, addend: 0x0, symName: __ZNSt3__115regex_constantsanB8ue170006ENS0_15match_flag_typeES1_, symObjAddr: 0x1A670, symBinAddr: 0x10001F300, symSize: 0x20 }
  - { offsetInCU: 0xA695, offset: 0x28858, size: 0x8, addend: 0x0, symName: __ZNSt3__115regex_constantsorB8ue170006ENS0_15match_flag_typeES1_, symObjAddr: 0x1BA20, symBinAddr: 0x1000206B0, symSize: 0x20 }
  - { offsetInCU: 0xA6D2, offset: 0x28895, size: 0x8, addend: 0x0, symName: __ZNSt3__115regex_constantscoB8ue170006ENS0_15match_flag_typeE, symObjAddr: 0x1BA40, symBinAddr: 0x1000206D0, symSize: 0x20 }
  - { offsetInCU: 0xA700, offset: 0x288C3, size: 0x8, addend: 0x0, symName: __ZNSt3__115regex_constantsaNB8ue170006ERNS0_15match_flag_typeES1_, symObjAddr: 0x33F60, symBinAddr: 0x100038B60, symSize: 0x30 }
  - { offsetInCU: 0xA73D, offset: 0x28900, size: 0x8, addend: 0x0, symName: __ZNSt3__115regex_constantsoRB8ue170006ERNS0_15match_flag_typeES1_, symObjAddr: 0x340E0, symBinAddr: 0x100038CE0, symSize: 0x30 }
  - { offsetInCU: 0x1C113, offset: 0x3A2D6, size: 0x8, addend: 0x0, symName: __ZNSt3__16copy_nB8ue170006IPKcmPcEENS_9enable_ifIXsr37__has_random_access_iterator_categoryIT_EE5valueET1_E4typeES5_T0_S6_, symObjAddr: 0xF040, symBinAddr: 0x100014EC0, symSize: 0x40 }
  - { offsetInCU: 0x1C19A, offset: 0x3A35D, size: 0x8, addend: 0x0, symName: __ZNSt3__17advanceB8ue170006INS_11__wrap_iterIP4FileEEllvEEvRT_T0_, symObjAddr: 0xFB30, symBinAddr: 0x1000158E0, symSize: 0x30 }
  - { offsetInCU: 0x1E35E, offset: 0x3C521, size: 0x8, addend: 0x0, symName: __ZNSt3__17advanceB8ue170006IPKcllvEEvRT_T0_, symObjAddr: 0x1A700, symBinAddr: 0x10001F390, symSize: 0x30 }
  - { offsetInCU: 0x238C7, offset: 0x41A8A, size: 0x8, addend: 0x0, symName: __ZNSt3__17advanceB8ue170006IPNS_9sub_matchIPKcEEllvEEvRT_T0_, symObjAddr: 0x39BC0, symBinAddr: 0x10003E7C0, symSize: 0x30 }
  - { offsetInCU: 0x23932, offset: 0x41AF5, size: 0x8, addend: 0x0, symName: __ZNSt3__17advanceB8ue170006IPNS_4pairImPKcEEllvEEvRT_T0_, symObjAddr: 0x3A150, symBinAddr: 0x10003ED50, symSize: 0x30 }
  - { offsetInCU: 0x23ED2, offset: 0x42095, size: 0x8, addend: 0x0, symName: __ZNSt3__17advanceB8ue170006INS_11__wrap_iterIPKcEEllvEEvRT_T0_, symObjAddr: 0x3BB60, symBinAddr: 0x100040760, symSize: 0x30 }
  - { offsetInCU: 0x252CE, offset: 0x43491, size: 0x8, addend: 0x0, symName: __ZNSt3__1rsB8ue170006IcNS_11char_traitsIcEENS_9allocatorIcEEEERNS_13basic_istreamIT_T0_EES9_RNS_12basic_stringIS6_S7_T1_EE, symObjAddr: 0x5D0, symBinAddr: 0x10000EBC0, symSize: 0x2D0 }
  - { offsetInCU: 0x26D44, offset: 0x44F07, size: 0x8, addend: 0x0, symName: __ZNSt3__16all_ofB8ue170006INS_11__wrap_iterIPcEEPFiiEEEbT_S6_T0_, symObjAddr: 0xDA0, symBinAddr: 0x10000F290, symSize: 0x90 }
  - { offsetInCU: 0x26D9E, offset: 0x44F61, size: 0x8, addend: 0x0, symName: __ZNSt3__17getlineB8ue170006IcNS_11char_traitsIcEENS_9allocatorIcEEEERNS_13basic_istreamIT_T0_EES9_RNS_12basic_stringIS6_S7_T1_EE, symObjAddr: 0x1DE0, symBinAddr: 0x1000100D0, symSize: 0x50 }
  - { offsetInCU: 0x26DF6, offset: 0x44FB9, size: 0x8, addend: 0x0, symName: __ZNSt3__1plB8ue170006IcNS_11char_traitsIcEENS_9allocatorIcEEEENS_12basic_stringIT_T0_T1_EEOS9_PKS6_, symObjAddr: 0x1E60, symBinAddr: 0x100010150, symSize: 0x50 }
  - { offsetInCU: 0x26E4E, offset: 0x45011, size: 0x8, addend: 0x0, symName: __ZNSt3__1plB8ue170006IcNS_11char_traitsIcEENS_9allocatorIcEEEENS_12basic_stringIT_T0_T1_EEPKS6_OS9_, symObjAddr: 0x1EB0, symBinAddr: 0x1000101A0, symSize: 0x50 }
  - { offsetInCU: 0x26EA6, offset: 0x45069, size: 0x8, addend: 0x0, symName: __ZNSt3__1plB8ue170006IcNS_11char_traitsIcEENS_9allocatorIcEEEENS_12basic_stringIT_T0_T1_EERKS9_PKS6_, symObjAddr: 0x2450, symBinAddr: 0x100010710, symSize: 0x100 }
  - { offsetInCU: 0x277B5, offset: 0x45978, size: 0x8, addend: 0x0, symName: __ZNSt3__14endlB8ue170006IcNS_11char_traitsIcEEEERNS_13basic_ostreamIT_T0_EES7_, symObjAddr: 0x26F0, symBinAddr: 0x1000109B0, symSize: 0x50 }
  - { offsetInCU: 0x277F5, offset: 0x459B8, size: 0x8, addend: 0x0, symName: __ZNSt3__111lower_boundB8ue170006INS_11__wrap_iterIP4FileEES2_6SorterEET_S6_S6_RKT0_T1_, symObjAddr: 0x2790, symBinAddr: 0x100010A50, symSize: 0x60 }
  - { offsetInCU: 0x27874, offset: 0x45A37, size: 0x8, addend: 0x0, symName: __ZNSt3__18distanceB8ue170006INS_11__wrap_iterIP4FileEEEENS_15iterator_traitsIT_E15difference_typeES6_S6_, symObjAddr: 0x2850, symBinAddr: 0x100010B10, symSize: 0x40 }
  - { offsetInCU: 0x278B7, offset: 0x45A7A, size: 0x8, addend: 0x0, symName: __ZNSt3__1eqB8ue170006ERKNS_19__hash_map_iteratorINS_15__hash_iteratorIPNS_11__hash_nodeINS_17__hash_value_typeINS_12basic_stringIcNS_11char_traitsIcEENS_9allocatorIcEEEENS_6vectorIjNS7_IjEEEEEEPvEEEEEESK_, symObjAddr: 0x2AF0, symBinAddr: 0x100010D50, symSize: 0x30 }
  - { offsetInCU: 0x2802B, offset: 0x461EE, size: 0x8, addend: 0x0, symName: __ZNSt3__1rsB8ue170006IcNS_11char_traitsIcEEEERNS_13basic_istreamIT_T0_EES7_RS4_, symObjAddr: 0x39C0, symBinAddr: 0x100011A20, symSize: 0x170 }
  - { offsetInCU: 0x280AD, offset: 0x46270, size: 0x8, addend: 0x0, symName: __ZNSt3__1neB8ue170006IPNS_12basic_stringIcNS_11char_traitsIcEENS_9allocatorIcEEEEEEbRKNS_11__wrap_iterIT_EESC_, symObjAddr: 0x42A0, symBinAddr: 0x1000122D0, symSize: 0x30 }
  - { offsetInCU: 0x280FB, offset: 0x462BE, size: 0x8, addend: 0x0, symName: __ZNSt3__113regex_replaceB8ue170006INS_12regex_traitsIcEEcNS_11char_traitsIcEENS_9allocatorIcEEEENS_12basic_stringIT0_T1_T2_EERKSB_RKNS_11basic_regexIS8_T_EEPKS8_NS_15regex_constants15match_flag_typeE, symObjAddr: 0x5050, symBinAddr: 0x100012F50, symSize: 0xF0 }
  - { offsetInCU: 0x2818A, offset: 0x4634D, size: 0x8, addend: 0x0, symName: __ZNSt3__1plB8ue170006IcNS_11char_traitsIcEENS_9allocatorIcEEEENS_12basic_stringIT_T0_T1_EERKS9_SB_, symObjAddr: 0x5190, symBinAddr: 0x100013090, symSize: 0x110 }
  - { offsetInCU: 0x2822C, offset: 0x463EF, size: 0x8, addend: 0x0, symName: __ZNSt3__1neB8ue170006IPKjEEbRKNS_11__wrap_iterIT_EES7_, symObjAddr: 0x53C0, symBinAddr: 0x100013290, symSize: 0x30 }
  - { offsetInCU: 0x2826F, offset: 0x46432, size: 0x8, addend: 0x0, symName: __ZNSt3__111regex_matchB8ue170006INS_11char_traitsIcEENS_9allocatorIcEEcNS_12regex_traitsIcEEEEbRKNS_12basic_stringIT1_T_T0_EERKNS_11basic_regexIS8_T2_EENS_15regex_constants15match_flag_typeE, symObjAddr: 0x5460, symBinAddr: 0x100013330, symSize: 0x50 }
  - { offsetInCU: 0x282DF, offset: 0x464A2, size: 0x8, addend: 0x0, symName: __ZNSt3__111lower_boundB8ue170006INS_11__wrap_iterIP4FileEEj12LowerFunctorEET_S6_S6_RKT0_T1_, symObjAddr: 0x5740, symBinAddr: 0x100013440, symSize: 0x60 }
  - { offsetInCU: 0x2835E, offset: 0x46521, size: 0x8, addend: 0x0, symName: __ZNSt3__111upper_boundB8ue170006INS_11__wrap_iterIP4FileEEj12UpperFunctorEET_S6_S6_RKT0_T1_, symObjAddr: 0x57A0, symBinAddr: 0x1000134A0, symSize: 0x50 }
  - { offsetInCU: 0x283CF, offset: 0x46592, size: 0x8, addend: 0x0, symName: __ZNSt3__1neB8ue170006IP4FileEEbRKNS_11__wrap_iterIT_EES7_, symObjAddr: 0x57F0, symBinAddr: 0x1000134F0, symSize: 0x30 }
  - { offsetInCU: 0x2878E, offset: 0x46951, size: 0x8, addend: 0x0, symName: __ZNSt3__19transformB8ue170006INS_11__wrap_iterIPcEES3_PFiiEEET0_T_S7_S6_T1_, symObjAddr: 0x59B0, symBinAddr: 0x1000135B0, symSize: 0x90 }
  - { offsetInCU: 0x287FF, offset: 0x469C2, size: 0x8, addend: 0x0, symName: __ZNSt3__1eqB8ue170006IPjEEbRKNS_11__wrap_iterIT_EES6_, symObjAddr: 0x5AD0, symBinAddr: 0x100013660, symSize: 0x40 }
  - { offsetInCU: 0x28842, offset: 0x46A05, size: 0x8, addend: 0x0, symName: __ZNSt3__14findB8ue170006INS_11__wrap_iterIPjEEjEET_S4_S4_RKT0_, symObjAddr: 0x5B10, symBinAddr: 0x1000136A0, symSize: 0x70 }
  - { offsetInCU: 0x288B5, offset: 0x46A78, size: 0x8, addend: 0x0, symName: __ZNSt3__16removeB8ue170006INS_11__wrap_iterIPjEEjEET_S4_S4_RKT0_, symObjAddr: 0x5DC0, symBinAddr: 0x100013890, symSize: 0xE0 }
  - { offsetInCU: 0x289FF, offset: 0x46BC2, size: 0x8, addend: 0x0, symName: __ZNSt3__110__distanceB8ue170006INS_11__wrap_iterIP4FileEEEENS_15iterator_traitsIT_E15difference_typeES6_S6_NS_26random_access_iterator_tagE, symObjAddr: 0x7A50, symBinAddr: 0x100013A70, symSize: 0x30 }
  - { offsetInCU: 0x28A4C, offset: 0x46C0F, size: 0x8, addend: 0x0, symName: __ZNSt3__1miB8ue170006IP4FileS2_EEDTmicldtfp_4baseEcldtfp0_4baseEERKNS_11__wrap_iterIT_EERKNS4_IT0_EE, symObjAddr: 0x7A80, symBinAddr: 0x100013AA0, symSize: 0x40 }
  - { offsetInCU: 0x28A98, offset: 0x46C5B, size: 0x8, addend: 0x0, symName: __ZNSt3__1eqB8ue170006IPNS_12basic_stringIcNS_11char_traitsIcEENS_9allocatorIcEEEEEEbRKNS_11__wrap_iterIT_EESC_, symObjAddr: 0x9340, symBinAddr: 0x100013C60, symSize: 0x40 }
  - { offsetInCU: 0x28ADB, offset: 0x46C9E, size: 0x8, addend: 0x0, symName: __ZNSt3__134__libcpp_atomic_refcount_decrementB8ue170006IlEET_RS1_, symObjAddr: 0x9560, symBinAddr: 0x100013E80, symSize: 0x30 }
  - { offsetInCU: 0x28B10, offset: 0x46CD3, size: 0x8, addend: 0x0, symName: __ZNSt3__1eqB8ue170006IPKjEEbRKNS_11__wrap_iterIT_EES7_, symObjAddr: 0x95B0, symBinAddr: 0x100013ED0, symSize: 0x40 }
  - { offsetInCU: 0x28B53, offset: 0x46D16, size: 0x8, addend: 0x0, symName: __ZNSt3__1eqB8ue170006IP4FileEEbRKNS_11__wrap_iterIT_EES7_, symObjAddr: 0x9610, symBinAddr: 0x100013F30, symSize: 0x40 }
  - { offsetInCU: 0x28BD4, offset: 0x46D97, size: 0x8, addend: 0x0, symName: __ZNSt3__17getlineB8ue170006IcNS_11char_traitsIcEENS_9allocatorIcEEEERNS_13basic_istreamIT_T0_EES9_RNS_12basic_stringIS6_S7_T1_EES6_, symObjAddr: 0xA6F0, symBinAddr: 0x100014300, symSize: 0x220 }
  - { offsetInCU: 0x28F72, offset: 0x47135, size: 0x8, addend: 0x0, symName: __ZNSt3__1neB8ue170006IPcEEbRKNS_11__wrap_iterIT_EES6_, symObjAddr: 0xEA90, symBinAddr: 0x1000149B0, symSize: 0x30 }
  - { offsetInCU: 0x28FB5, offset: 0x47178, size: 0x8, addend: 0x0, symName: __ZNSt3__1eqB8ue170006IPcEEbRKNS_11__wrap_iterIT_EES6_, symObjAddr: 0xEB00, symBinAddr: 0x100014A20, symSize: 0x40 }
  - { offsetInCU: 0x28FF8, offset: 0x471BB, size: 0x8, addend: 0x0, symName: __ZNSt3__14copyB8ue170006IPKcPcEET0_T_S5_S4_, symObjAddr: 0xF080, symBinAddr: 0x100014F00, symSize: 0x40 }
  - { offsetInCU: 0x29052, offset: 0x47215, size: 0x8, addend: 0x0, symName: __ZNSt3__16__copyB8ue170006INS_17_ClassicAlgPolicyEPKcS3_PcEENS_4pairIT0_T2_EES6_T1_S7_, symObjAddr: 0xF0C0, symBinAddr: 0x100014F40, symSize: 0x40 }
  - { offsetInCU: 0x290BE, offset: 0x47281, size: 0x8, addend: 0x0, symName: __ZNSt3__123__dispatch_copy_or_moveB8ue170006INS_17_ClassicAlgPolicyENS_11__copy_loopIS1_EENS_14__copy_trivialEPKcS6_PcEENS_4pairIT2_T4_EES9_T3_SA_, symObjAddr: 0xF100, symBinAddr: 0x100014F80, symSize: 0x40 }
  - { offsetInCU: 0x2913C, offset: 0x472FF, size: 0x8, addend: 0x0, symName: __ZNSt3__121__unwrap_and_dispatchB8ue170006INS_10__overloadINS_11__copy_loopINS_17_ClassicAlgPolicyEEENS_14__copy_trivialEEEPKcS8_PcLi0EEENS_4pairIT0_T2_EESB_T1_SC_, symObjAddr: 0xF140, symBinAddr: 0x100014FC0, symSize: 0xB0 }
  - { offsetInCU: 0x291CB, offset: 0x4738E, size: 0x8, addend: 0x0, symName: __ZNSt3__114__unwrap_rangeB8ue170006IPKcS2_EENS_4pairIT0_S4_EET_S6_, symObjAddr: 0xF1F0, symBinAddr: 0x100015070, symSize: 0x50 }
  - { offsetInCU: 0x29360, offset: 0x47523, size: 0x8, addend: 0x0, symName: __ZNSt3__113__unwrap_iterB8ue170006IPcNS_18__unwrap_iter_implIS1_Lb1EEELi0EEEDTclsrT0_8__unwrapclsr3stdE7declvalIT_EEEES5_, symObjAddr: 0xF280, symBinAddr: 0x100015100, symSize: 0x20 }
  - { offsetInCU: 0x293A4, offset: 0x47567, size: 0x8, addend: 0x0, symName: __ZNSt3__19make_pairB8ue170006IPKcPcEENS_4pairINS_18__unwrap_ref_decayIT_E4typeENS5_IT0_E4typeEEEOS6_OS9_, symObjAddr: 0xF2A0, symBinAddr: 0x100015120, symSize: 0x30 }
  - { offsetInCU: 0x293F3, offset: 0x475B6, size: 0x8, addend: 0x0, symName: __ZNSt3__114__rewrap_rangeB8ue170006IPKcS2_EET_S3_T0_, symObjAddr: 0xF2D0, symBinAddr: 0x100015150, symSize: 0x30 }
  - { offsetInCU: 0x2943F, offset: 0x47602, size: 0x8, addend: 0x0, symName: __ZNSt3__113__rewrap_iterB8ue170006IPcS1_NS_18__unwrap_iter_implIS1_Lb1EEEEET_S4_T0_, symObjAddr: 0xF300, symBinAddr: 0x100015180, symSize: 0x40 }
  - { offsetInCU: 0x29494, offset: 0x47657, size: 0x8, addend: 0x0, symName: __ZNSt3__19make_pairB8ue170006IPKcS2_EENS_4pairINS_18__unwrap_ref_decayIT_E4typeENS4_IT0_E4typeEEEOS5_OS8_, symObjAddr: 0xF340, symBinAddr: 0x1000151C0, symSize: 0x30 }
  - { offsetInCU: 0x294E3, offset: 0x476A6, size: 0x8, addend: 0x0, symName: __ZNSt3__113__unwrap_iterB8ue170006IPKcNS_18__unwrap_iter_implIS2_Lb1EEELi0EEEDTclsrT0_8__unwrapclsr3stdE7declvalIT_EEEES6_, symObjAddr: 0xF370, symBinAddr: 0x1000151F0, symSize: 0x20 }
  - { offsetInCU: 0x2957A, offset: 0x4773D, size: 0x8, addend: 0x0, symName: __ZNSt3__119__copy_trivial_implB8ue170006IKccEENS_4pairIPT_PT0_EES4_S4_S6_, symObjAddr: 0xF410, symBinAddr: 0x100015290, symSize: 0x70 }
  - { offsetInCU: 0x295E2, offset: 0x477A5, size: 0x8, addend: 0x0, symName: __ZNSt3__119__constexpr_memmoveB8ue170006IcKcLi0EEEPT_S3_PT0_NS_15__element_countE, symObjAddr: 0xF480, symBinAddr: 0x100015300, symSize: 0x50 }
  - { offsetInCU: 0x29650, offset: 0x47813, size: 0x8, addend: 0x0, symName: __ZNSt3__19make_pairB8ue170006IRPKcPcEENS_4pairINS_18__unwrap_ref_decayIT_E4typeENS6_IT0_E4typeEEEOS7_OSA_, symObjAddr: 0xF4D0, symBinAddr: 0x100015350, symSize: 0x30 }
  - { offsetInCU: 0x296F2, offset: 0x478B5, size: 0x8, addend: 0x0, symName: __ZNSt3__113__rewrap_iterB8ue170006IPKcS2_NS_18__unwrap_iter_implIS2_Lb1EEEEET_S5_T0_, symObjAddr: 0xF5E0, symBinAddr: 0x100015460, symSize: 0x40 }
  - { offsetInCU: 0x29747, offset: 0x4790A, size: 0x8, addend: 0x0, symName: __ZNSt3__16fill_nB8ue170006IPcmcEET_S2_T0_RKT1_, symObjAddr: 0xF6A0, symBinAddr: 0x100015520, symSize: 0x40 }
  - { offsetInCU: 0x297AA, offset: 0x4796D, size: 0x8, addend: 0x0, symName: __ZNSt3__18__fill_nB8ue170006IPcmcEET_S2_T0_RKT1_, symObjAddr: 0xF6E0, symBinAddr: 0x100015560, symSize: 0x50 }
  - { offsetInCU: 0x2980D, offset: 0x479D0, size: 0x8, addend: 0x0, symName: __ZNSt3__121__convert_to_integralB8ue170006Em, symObjAddr: 0xF730, symBinAddr: 0x1000155B0, symSize: 0x10 }
  - { offsetInCU: 0x29839, offset: 0x479FC, size: 0x8, addend: 0x0, symName: __ZNSt3__113__lower_boundB8ue170006INS_17_ClassicAlgPolicyENS_11__wrap_iterIP4FileEES5_S3_NS_10__identityE6SorterEET0_S8_T1_RKT2_RT4_RT3_, symObjAddr: 0xF920, symBinAddr: 0x1000156F0, symSize: 0x100 }
  - { offsetInCU: 0x2990D, offset: 0x47AD0, size: 0x8, addend: 0x0, symName: __ZNSt3__18__invokeB8ue170006IR6SorterJR4FileRKS3_EEEDTclclsr3stdE7declvalIT_EEspclsr3stdE7declvalIT0_EEEEOS7_DpOS8_, symObjAddr: 0xFAB0, symBinAddr: 0x100015860, symSize: 0x30 }
  - { offsetInCU: 0x29972, offset: 0x47B35, size: 0x8, addend: 0x0, symName: __ZNSt3__18__invokeB8ue170006IRNS_10__identityEJR4FileEEEDTclclsr3stdE7declvalIT_EEspclsr3stdE7declvalIT0_EEEEOS5_DpOS6_, symObjAddr: 0xFAE0, symBinAddr: 0x100015890, symSize: 0x30 }
  - { offsetInCU: 0x299C3, offset: 0x47B86, size: 0x8, addend: 0x0, symName: __ZNSt3__19__advanceB8ue170006INS_11__wrap_iterIP4FileEEEEvRT_NS_15iterator_traitsIS5_E15difference_typeENS_26random_access_iterator_tagE, symObjAddr: 0xFB70, symBinAddr: 0x100015910, symSize: 0x30 }
  - { offsetInCU: 0x29A0C, offset: 0x47BCF, size: 0x8, addend: 0x0, symName: __ZNSt3__1ltB8ue170006IcNS_11char_traitsIcEENS_9allocatorIcEEEEbRKNS_12basic_stringIT_T0_T1_EESB_, symObjAddr: 0xFC60, symBinAddr: 0x100015A00, symSize: 0x30 }
  - { offsetInCU: 0x29AFA, offset: 0x47CBD, size: 0x8, addend: 0x0, symName: __ZNSt3__1miB8ue170006IPK4FilePS1_EEDTmicldtfp_4baseEcldtfp0_4baseEERKNS_11__wrap_iterIT_EERKNS6_IT0_EE, symObjAddr: 0xFED0, symBinAddr: 0x100015C70, symSize: 0x40 }
  - { offsetInCU: 0x29B46, offset: 0x47D09, size: 0x8, addend: 0x0, symName: __ZNSt3__113move_backwardB8ue170006IP4FileS2_EET0_T_S4_S3_, symObjAddr: 0x10980, symBinAddr: 0x1000166E0, symSize: 0x40 }
  - { offsetInCU: 0x29BA0, offset: 0x47D63, size: 0x8, addend: 0x0, symName: __ZNSt3__115__move_backwardB8ue170006INS_17_ClassicAlgPolicyEP4FileS3_S3_EENS_4pairIT0_T2_EES5_T1_S6_, symObjAddr: 0x109C0, symBinAddr: 0x100016720, symSize: 0x40 }
  - { offsetInCU: 0x29C0C, offset: 0x47DCF, size: 0x8, addend: 0x0, symName: __ZNSt3__123__dispatch_copy_or_moveB8ue170006INS_17_ClassicAlgPolicyENS_20__move_backward_loopIS1_EENS_23__move_backward_trivialEP4FileS6_S6_EENS_4pairIT2_T4_EES8_T3_S9_, symObjAddr: 0x10A00, symBinAddr: 0x100016760, symSize: 0x40 }
  - { offsetInCU: 0x29C8A, offset: 0x47E4D, size: 0x8, addend: 0x0, symName: __ZNSt3__121__unwrap_and_dispatchB8ue170006INS_10__overloadINS_20__move_backward_loopINS_17_ClassicAlgPolicyEEENS_23__move_backward_trivialEEEP4FileS8_S8_Li0EEENS_4pairIT0_T2_EESA_T1_SB_, symObjAddr: 0x10A40, symBinAddr: 0x1000167A0, symSize: 0xB0 }
  - { offsetInCU: 0x29D19, offset: 0x47EDC, size: 0x8, addend: 0x0, symName: __ZNSt3__114__unwrap_rangeB8ue170006IP4FileS2_EENS_4pairIT0_S4_EET_S6_, symObjAddr: 0x10AF0, symBinAddr: 0x100016850, symSize: 0x50 }
  - { offsetInCU: 0x29ECA, offset: 0x4808D, size: 0x8, addend: 0x0, symName: __ZNSt3__113__unwrap_iterB8ue170006IP4FileNS_18__unwrap_iter_implIS2_Lb1EEELi0EEEDTclsrT0_8__unwrapclsr3stdE7declvalIT_EEEES6_, symObjAddr: 0x10BD0, symBinAddr: 0x100016930, symSize: 0x20 }
  - { offsetInCU: 0x29F0E, offset: 0x480D1, size: 0x8, addend: 0x0, symName: __ZNSt3__19make_pairB8ue170006IP4FileS2_EENS_4pairINS_18__unwrap_ref_decayIT_E4typeENS4_IT0_E4typeEEEOS5_OS8_, symObjAddr: 0x10BF0, symBinAddr: 0x100016950, symSize: 0x30 }
  - { offsetInCU: 0x29F5D, offset: 0x48120, size: 0x8, addend: 0x0, symName: __ZNSt3__114__rewrap_rangeB8ue170006IP4FileS2_EET_S3_T0_, symObjAddr: 0x10C20, symBinAddr: 0x100016980, symSize: 0x30 }
  - { offsetInCU: 0x29FA9, offset: 0x4816C, size: 0x8, addend: 0x0, symName: __ZNSt3__113__rewrap_iterB8ue170006IP4FileS2_NS_18__unwrap_iter_implIS2_Lb1EEEEET_S5_T0_, symObjAddr: 0x10C50, symBinAddr: 0x1000169B0, symSize: 0x40 }
  - { offsetInCU: 0x2A075, offset: 0x48238, size: 0x8, addend: 0x0, symName: __ZNSt3__119__allocate_at_leastB8ue170006INS_9allocatorI4FileEEEENS_19__allocation_resultINS_16allocator_traitsIT_E7pointerEEERS6_m, symObjAddr: 0x11240, symBinAddr: 0x100016EE0, symSize: 0x40 }
  - { offsetInCU: 0x2A0B8, offset: 0x4827B, size: 0x8, addend: 0x0, symName: __ZNSt3__14moveB8ue170006IP4FileS2_EET0_T_S4_S3_, symObjAddr: 0x113F0, symBinAddr: 0x100017070, symSize: 0x40 }
  - { offsetInCU: 0x2A112, offset: 0x482D5, size: 0x8, addend: 0x0, symName: __ZNSt3__14swapB8ue170006IP4FileEENS_9enable_ifIXaasr21is_move_constructibleIT_EE5valuesr18is_move_assignableIS4_EE5valueEvE4typeERS4_S7_, symObjAddr: 0x114C0, symBinAddr: 0x100017140, symSize: 0x40 }
  - { offsetInCU: 0x2A163, offset: 0x48326, size: 0x8, addend: 0x0, symName: __ZNSt3__16__moveB8ue170006INS_17_ClassicAlgPolicyEP4FileS3_S3_EENS_4pairIT0_T2_EES5_T1_S6_, symObjAddr: 0x11500, symBinAddr: 0x100017180, symSize: 0x40 }
  - { offsetInCU: 0x2A1CF, offset: 0x48392, size: 0x8, addend: 0x0, symName: __ZNSt3__123__dispatch_copy_or_moveB8ue170006INS_17_ClassicAlgPolicyENS_11__move_loopIS1_EENS_14__move_trivialEP4FileS6_S6_EENS_4pairIT2_T4_EES8_T3_S9_, symObjAddr: 0x11540, symBinAddr: 0x1000171C0, symSize: 0x40 }
  - { offsetInCU: 0x2A24D, offset: 0x48410, size: 0x8, addend: 0x0, symName: __ZNSt3__121__unwrap_and_dispatchB8ue170006INS_10__overloadINS_11__move_loopINS_17_ClassicAlgPolicyEEENS_14__move_trivialEEEP4FileS8_S8_Li0EEENS_4pairIT0_T2_EESA_T1_SB_, symObjAddr: 0x11580, symBinAddr: 0x100017200, symSize: 0xB0 }
  - { offsetInCU: 0x2A2DC, offset: 0x4849F, size: 0x8, addend: 0x0, symName: __ZNSt3__18distanceB8ue170006INS_13move_iteratorIP4FileEEEENS_15iterator_traitsIT_E15difference_typeES6_S6_, symObjAddr: 0x11790, symBinAddr: 0x100017410, symSize: 0x40 }
  - { offsetInCU: 0x2A31F, offset: 0x484E2, size: 0x8, addend: 0x0, symName: __ZNSt3__110__distanceB8ue170006INS_13move_iteratorIP4FileEEEENS_15iterator_traitsIT_E15difference_typeES6_S6_NS_26random_access_iterator_tagE, symObjAddr: 0x118C0, symBinAddr: 0x100017540, symSize: 0x30 }
  - { offsetInCU: 0x2A36C, offset: 0x4852F, size: 0x8, addend: 0x0, symName: __ZNSt3__1miB8ue170006IP4FileS2_EEDTmicldtfp_4baseEcldtfp0_4baseEERKNS_13move_iteratorIT_EERKNS4_IT0_EE, symObjAddr: 0x118F0, symBinAddr: 0x100017570, symSize: 0x40 }
  - { offsetInCU: 0x2A3BB, offset: 0x4857E, size: 0x8, addend: 0x0, symName: __ZNSt3__142__uninitialized_allocator_move_if_noexceptB8ue170006INS_9allocatorI4FileEENS_16reverse_iteratorIPS2_EES6_S6_EET2_RT_T0_T1_S7_, symObjAddr: 0x11A20, symBinAddr: 0x1000175F0, symSize: 0x180 }
  - { offsetInCU: 0x2A45A, offset: 0x4861D, size: 0x8, addend: 0x0, symName: __ZNSt3__142__uninitialized_allocator_move_if_noexceptB8ue170006INS_9allocatorI4FileEEPS2_S4_S4_EET2_RT_T0_T1_S5_, symObjAddr: 0x11BF0, symBinAddr: 0x1000177C0, symSize: 0x100 }
  - { offsetInCU: 0x2A4F8, offset: 0x486BB, size: 0x8, addend: 0x0, symName: __ZNSt3__122__make_exception_guardB8ue170006INS_29_AllocatorDestroyRangeReverseINS_9allocatorI4FileEENS_16reverse_iteratorIPS3_EEEEEENS_28__exception_guard_exceptionsIT_EESA_, symObjAddr: 0x11DD0, symBinAddr: 0x100017960, symSize: 0x60 }
  - { offsetInCU: 0x2A52D, offset: 0x486F0, size: 0x8, addend: 0x0, symName: __ZNSt3__1neB8ue170006IP4FileS2_EEbRKNS_16reverse_iteratorIT_EERKNS3_IT0_EE, symObjAddr: 0x11E70, symBinAddr: 0x100017A00, symSize: 0x40 }
  - { offsetInCU: 0x2A579, offset: 0x4873C, size: 0x8, addend: 0x0, symName: __ZNSt3__112__to_addressB8ue170006INS_16reverse_iteratorIP4FileEEvEEu7__decayIDTclsr19__to_address_helperIT_EE6__callclsr3stdE7declvalIRKS5_EEEEES7_, symObjAddr: 0x11EB0, symBinAddr: 0x100017A40, symSize: 0x20 }
  - { offsetInCU: 0x2A5D9, offset: 0x4879C, size: 0x8, addend: 0x0, symName: __ZNSt3__119__allocator_destroyB8ue170006INS_9allocatorI4FileEENS_16reverse_iteratorINS4_IPS2_EEEES7_EEvRT_T0_T1_, symObjAddr: 0x121A0, symBinAddr: 0x100017D30, symSize: 0x70 }
  - { offsetInCU: 0x2A63B, offset: 0x487FE, size: 0x8, addend: 0x0, symName: __ZNSt3__1neB8ue170006INS_16reverse_iteratorIP4FileEES4_EEbRKNS1_IT_EERKNS1_IT0_EE, symObjAddr: 0x12240, symBinAddr: 0x100017DD0, symSize: 0x50 }
  - { offsetInCU: 0x2A687, offset: 0x4884A, size: 0x8, addend: 0x0, symName: __ZNSt3__112__to_addressB8ue170006INS_16reverse_iteratorINS1_IP4FileEEEEvEEu7__decayIDTclsr19__to_address_helperIT_EE6__callclsr3stdE7declvalIRKS6_EEEEES8_, symObjAddr: 0x122C0, symBinAddr: 0x100017E20, symSize: 0x20 }
  - { offsetInCU: 0x2A6E6, offset: 0x488A9, size: 0x8, addend: 0x0, symName: __ZNSt3__122__make_exception_guardB8ue170006INS_29_AllocatorDestroyRangeReverseINS_9allocatorI4FileEEPS3_EEEENS_28__exception_guard_exceptionsIT_EES8_, symObjAddr: 0x12480, symBinAddr: 0x100017FC0, symSize: 0x60 }
  - { offsetInCU: 0x2A71C, offset: 0x488DF, size: 0x8, addend: 0x0, symName: __ZNSt3__119__allocator_destroyB8ue170006INS_9allocatorI4FileEENS_16reverse_iteratorIPS2_EES6_EEvRT_T0_T1_, symObjAddr: 0x126B0, symBinAddr: 0x1000181F0, symSize: 0x70 }
  - { offsetInCU: 0x2A77E, offset: 0x48941, size: 0x8, addend: 0x0, symName: __ZNSt3__116forward_as_tupleB8ue170006IJNS_12basic_stringIcNS_11char_traitsIcEENS_9allocatorIcEEEEEEENS_5tupleIJDpOT_EEESA_, symObjAddr: 0x12F10, symBinAddr: 0x1000189E0, symSize: 0x30 }
  - { offsetInCU: 0x2A7B7, offset: 0x4897A, size: 0x8, addend: 0x0, symName: __ZNSt3__13getB8ue170006ILm0EJONS_12basic_stringIcNS_11char_traitsIcEENS_9allocatorIcEEEEEEERNS_13tuple_elementIXT_ENS_5tupleIJDpT0_EEEE4typeERSC_, symObjAddr: 0x131D0, symBinAddr: 0x100018CA0, symSize: 0x20 }
  - { offsetInCU: 0x2A842, offset: 0x48A05, size: 0x8, addend: 0x0, symName: __ZNSt3__1miB8ue170006IPKNS_12basic_stringIcNS_11char_traitsIcEENS_9allocatorIcEEEEPS6_EEDTmicldtfp_4baseEcldtfp0_4baseEERKNS_11__wrap_iterIT_EERKNSB_IT0_EE, symObjAddr: 0x133F0, symBinAddr: 0x100018E70, symSize: 0x40 }
  - { offsetInCU: 0x2A8C1, offset: 0x48A84, size: 0x8, addend: 0x0, symName: __ZNSt3__113move_backwardB8ue170006IPNS_12basic_stringIcNS_11char_traitsIcEENS_9allocatorIcEEEES7_EET0_T_S9_S8_, symObjAddr: 0x13BB0, symBinAddr: 0x100019630, symSize: 0x40 }
  - { offsetInCU: 0x2A91B, offset: 0x48ADE, size: 0x8, addend: 0x0, symName: __ZNSt3__115__move_backwardB8ue170006INS_17_ClassicAlgPolicyEPNS_12basic_stringIcNS_11char_traitsIcEENS_9allocatorIcEEEES8_S8_EENS_4pairIT0_T2_EESA_T1_SB_, symObjAddr: 0x13C20, symBinAddr: 0x1000196A0, symSize: 0x40 }
  - { offsetInCU: 0x2A987, offset: 0x48B4A, size: 0x8, addend: 0x0, symName: __ZNSt3__123__dispatch_copy_or_moveB8ue170006INS_17_ClassicAlgPolicyENS_20__move_backward_loopIS1_EENS_23__move_backward_trivialEPNS_12basic_stringIcNS_11char_traitsIcEENS_9allocatorIcEEEESB_SB_EENS_4pairIT2_T4_EESD_T3_SE_, symObjAddr: 0x13C60, symBinAddr: 0x1000196E0, symSize: 0x40 }
  - { offsetInCU: 0x2AA05, offset: 0x48BC8, size: 0x8, addend: 0x0, symName: __ZNSt3__121__unwrap_and_dispatchB8ue170006INS_10__overloadINS_20__move_backward_loopINS_17_ClassicAlgPolicyEEENS_23__move_backward_trivialEEEPNS_12basic_stringIcNS_11char_traitsIcEENS_9allocatorIcEEEESD_SD_Li0EEENS_4pairIT0_T2_EESF_T1_SG_, symObjAddr: 0x13CA0, symBinAddr: 0x100019720, symSize: 0xB0 }
  - { offsetInCU: 0x2AA94, offset: 0x48C57, size: 0x8, addend: 0x0, symName: __ZNSt3__114__rewrap_rangeB8ue170006IPNS_12basic_stringIcNS_11char_traitsIcEENS_9allocatorIcEEEES7_EET_S8_T0_, symObjAddr: 0x13DE0, symBinAddr: 0x100019860, symSize: 0x30 }
  - { offsetInCU: 0x2AB04, offset: 0x48CC7, size: 0x8, addend: 0x0, symName: __ZNSt3__14moveB8ue170006IPNS_12basic_stringIcNS_11char_traitsIcEENS_9allocatorIcEEEES7_EET0_T_S9_S8_, symObjAddr: 0x14050, symBinAddr: 0x100019AD0, symSize: 0x40 }
  - { offsetInCU: 0x2AB5E, offset: 0x48D21, size: 0x8, addend: 0x0, symName: __ZNSt3__14swapB8ue170006IPNS_12basic_stringIcNS_11char_traitsIcEENS_9allocatorIcEEEEEENS_9enable_ifIXaasr21is_move_constructibleIT_EE5valuesr18is_move_assignableIS9_EE5valueEvE4typeERS9_SC_, symObjAddr: 0x14120, symBinAddr: 0x100019BA0, symSize: 0x40 }
  - { offsetInCU: 0x2ABAF, offset: 0x48D72, size: 0x8, addend: 0x0, symName: __ZNSt3__16__moveB8ue170006INS_17_ClassicAlgPolicyEPNS_12basic_stringIcNS_11char_traitsIcEENS_9allocatorIcEEEES8_S8_EENS_4pairIT0_T2_EESA_T1_SB_, symObjAddr: 0x14160, symBinAddr: 0x100019BE0, symSize: 0x40 }
  - { offsetInCU: 0x2AC1B, offset: 0x48DDE, size: 0x8, addend: 0x0, symName: __ZNSt3__123__dispatch_copy_or_moveB8ue170006INS_17_ClassicAlgPolicyENS_11__move_loopIS1_EENS_14__move_trivialEPNS_12basic_stringIcNS_11char_traitsIcEENS_9allocatorIcEEEESB_SB_EENS_4pairIT2_T4_EESD_T3_SE_, symObjAddr: 0x141A0, symBinAddr: 0x100019C20, symSize: 0x40 }
  - { offsetInCU: 0x2AC99, offset: 0x48E5C, size: 0x8, addend: 0x0, symName: __ZNSt3__121__unwrap_and_dispatchB8ue170006INS_10__overloadINS_11__move_loopINS_17_ClassicAlgPolicyEEENS_14__move_trivialEEEPNS_12basic_stringIcNS_11char_traitsIcEENS_9allocatorIcEEEESD_SD_Li0EEENS_4pairIT0_T2_EESF_T1_SG_, symObjAddr: 0x141E0, symBinAddr: 0x100019C60, symSize: 0xB0 }
  - { offsetInCU: 0x2AD28, offset: 0x48EEB, size: 0x8, addend: 0x0, symName: __ZNSt3__18distanceB8ue170006INS_13move_iteratorIPNS_12basic_stringIcNS_11char_traitsIcEENS_9allocatorIcEEEEEEEENS_15iterator_traitsIT_E15difference_typeESB_SB_, symObjAddr: 0x143F0, symBinAddr: 0x100019E70, symSize: 0x40 }
  - { offsetInCU: 0x2AD6B, offset: 0x48F2E, size: 0x8, addend: 0x0, symName: __ZNSt3__110__distanceB8ue170006INS_13move_iteratorIPNS_12basic_stringIcNS_11char_traitsIcEENS_9allocatorIcEEEEEEEENS_15iterator_traitsIT_E15difference_typeESB_SB_NS_26random_access_iterator_tagE, symObjAddr: 0x14520, symBinAddr: 0x100019FA0, symSize: 0x30 }
  - { offsetInCU: 0x2ADB8, offset: 0x48F7B, size: 0x8, addend: 0x0, symName: __ZNSt3__1miB8ue170006IPNS_12basic_stringIcNS_11char_traitsIcEENS_9allocatorIcEEEES7_EEDTmicldtfp_4baseEcldtfp0_4baseEERKNS_13move_iteratorIT_EERKNS9_IT0_EE, symObjAddr: 0x14550, symBinAddr: 0x100019FD0, symSize: 0x40 }
  - { offsetInCU: 0x2AE07, offset: 0x48FCA, size: 0x8, addend: 0x0, symName: __ZNSt3__142__uninitialized_allocator_move_if_noexceptB8ue170006INS_9allocatorINS_12basic_stringIcNS_11char_traitsIcEENS1_IcEEEEEENS_16reverse_iteratorIPS6_EESA_SA_EET2_RT_T0_T1_SB_, symObjAddr: 0x145D0, symBinAddr: 0x10001A050, symSize: 0x170 }
  - { offsetInCU: 0x2AEA6, offset: 0x49069, size: 0x8, addend: 0x0, symName: __ZNSt3__142__uninitialized_allocator_move_if_noexceptB8ue170006INS_9allocatorINS_12basic_stringIcNS_11char_traitsIcEENS1_IcEEEEEEPS6_S8_S8_EET2_RT_T0_T1_S9_, symObjAddr: 0x14740, symBinAddr: 0x10001A1C0, symSize: 0x100 }
  - { offsetInCU: 0x2AF44, offset: 0x49107, size: 0x8, addend: 0x0, symName: __ZNSt3__122__make_exception_guardB8ue170006INS_29_AllocatorDestroyRangeReverseINS_9allocatorINS_12basic_stringIcNS_11char_traitsIcEENS2_IcEEEEEENS_16reverse_iteratorIPS7_EEEEEENS_28__exception_guard_exceptionsIT_EESE_, symObjAddr: 0x14840, symBinAddr: 0x10001A2C0, symSize: 0x60 }
  - { offsetInCU: 0x2AF7A, offset: 0x4913D, size: 0x8, addend: 0x0, symName: __ZNSt3__119__allocator_destroyB8ue170006INS_9allocatorINS_12basic_stringIcNS_11char_traitsIcEENS1_IcEEEEEENS_16reverse_iteratorINS8_IPS6_EEEESB_EEvRT_T0_T1_, symObjAddr: 0x14B00, symBinAddr: 0x10001A580, symSize: 0x70 }
  - { offsetInCU: 0x2AFDC, offset: 0x4919F, size: 0x8, addend: 0x0, symName: __ZNSt3__1neB8ue170006INS_16reverse_iteratorIPNS_12basic_stringIcNS_11char_traitsIcEENS_9allocatorIcEEEEEES9_EEbRKNS1_IT_EERKNS1_IT0_EE, symObjAddr: 0x14BA0, symBinAddr: 0x10001A620, symSize: 0x50 }
  - { offsetInCU: 0x2B028, offset: 0x491EB, size: 0x8, addend: 0x0, symName: __ZNSt3__112__to_addressB8ue170006INS_16reverse_iteratorINS1_IPNS_12basic_stringIcNS_11char_traitsIcEENS_9allocatorIcEEEEEEEEvEEu7__decayIDTclsr19__to_address_helperIT_EE6__callclsr3stdE7declvalIRKSB_EEEEESD_, symObjAddr: 0x14BF0, symBinAddr: 0x10001A670, symSize: 0x20 }
  - { offsetInCU: 0x2B0A5, offset: 0x49268, size: 0x8, addend: 0x0, symName: __ZNSt3__19use_facetB8ue170006INS_7collateIcEEEERKT_RKNS_6localeE, symObjAddr: 0x175B0, symBinAddr: 0x10001C240, symSize: 0x30 }
  - { offsetInCU: 0x2B0DB, offset: 0x4929E, size: 0x8, addend: 0x0, symName: __ZNSt3__119__throw_regex_errorB8ue170006ILNS_15regex_constants10error_typeE17EEEvv, symObjAddr: 0x17870, symBinAddr: 0x10001C500, symSize: 0x60 }
  - { offsetInCU: 0x2B56C, offset: 0x4972F, size: 0x8, addend: 0x0, symName: __ZNSt3__119__throw_regex_errorB8ue170006ILNS_15regex_constants10error_typeE14EEEvv, symObjAddr: 0x17FC0, symBinAddr: 0x10001CC50, symSize: 0x60 }
  - { offsetInCU: 0x2C136, offset: 0x4A2F9, size: 0x8, addend: 0x0, symName: __ZNSt3__14swapB8ue170006IPNS_13__empty_stateIcEEEENS_9enable_ifIXaasr21is_move_constructibleIT_EE5valuesr18is_move_assignableIS5_EE5valueEvE4typeERS5_S8_, symObjAddr: 0x18CE0, symBinAddr: 0x10001D970, symSize: 0x40 }
  - { offsetInCU: 0x2C187, offset: 0x4A34A, size: 0x8, addend: 0x0, symName: __ZNSt3__14swapB8ue170006IPNS_19__shared_weak_countEEENS_9enable_ifIXaasr21is_move_constructibleIT_EE5valuesr18is_move_assignableIS4_EE5valueEvE4typeERS4_S7_, symObjAddr: 0x18D20, symBinAddr: 0x10001D9B0, symSize: 0x40 }
  - { offsetInCU: 0x2C1D8, offset: 0x4A39B, size: 0x8, addend: 0x0, symName: __ZNSt3__14nextB8ue170006IPKcEENS_9enable_ifIXsr29__has_input_iterator_categoryIT_EE5valueES4_E4typeES4_NS_15iterator_traitsIS4_E15difference_typeE, symObjAddr: 0x1A1B0, symBinAddr: 0x10001EE40, symSize: 0x30 }
  - { offsetInCU: 0x2C21C, offset: 0x4A3DF, size: 0x8, addend: 0x0, symName: __ZNSt3__119__throw_regex_errorB8ue170006ILNS_15regex_constants10error_typeE6EEEvv, symObjAddr: 0x1A390, symBinAddr: 0x10001F020, symSize: 0x60 }
  - { offsetInCU: 0x2C2C6, offset: 0x4A489, size: 0x8, addend: 0x0, symName: __ZNSt3__18__is_eolB8ue170006IcEEbT_, symObjAddr: 0x1A690, symBinAddr: 0x10001F320, symSize: 0x40 }
  - { offsetInCU: 0x2C2FD, offset: 0x4A4C0, size: 0x8, addend: 0x0, symName: __ZNSt3__14prevB8ue170006IPKcEENS_9enable_ifIXsr29__has_input_iterator_categoryIT_EE5valueES4_E4typeES4_NS_15iterator_traitsIS4_E15difference_typeE, symObjAddr: 0x1A6D0, symBinAddr: 0x10001F360, symSize: 0x30 }
  - { offsetInCU: 0x2C340, offset: 0x4A503, size: 0x8, addend: 0x0, symName: __ZNSt3__19__advanceB8ue170006IPKcEEvRT_NS_15iterator_traitsIS3_E15difference_typeENS_26random_access_iterator_tagE, symObjAddr: 0x1A730, symBinAddr: 0x10001F3C0, symSize: 0x20 }
  - { offsetInCU: 0x2C591, offset: 0x4A754, size: 0x8, addend: 0x0, symName: __ZNSt3__134__libcpp_atomic_refcount_incrementB8ue170006IlEET_RS1_, symObjAddr: 0x1B2E0, symBinAddr: 0x10001FF70, symSize: 0x30 }
  - { offsetInCU: 0x2C8AE, offset: 0x4AA71, size: 0x8, addend: 0x0, symName: __ZNSt3__112__to_addressB8ue170006INS_9sub_matchIPKcEEEEPT_S6_, symObjAddr: 0x1C0F0, symBinAddr: 0x100020D80, symSize: 0x10 }
  - { offsetInCU: 0x2C8E3, offset: 0x4AAA6, size: 0x8, addend: 0x0, symName: __ZNSt3__16fill_nB8ue170006IPNS_9sub_matchIPKcEEmS4_EET_S6_T0_RKT1_, symObjAddr: 0x1C340, symBinAddr: 0x100020FD0, symSize: 0x40 }
  - { offsetInCU: 0x2C946, offset: 0x4AB09, size: 0x8, addend: 0x0, symName: __ZNSt3__18__fill_nB8ue170006IPNS_9sub_matchIPKcEEmS4_EET_S6_T0_RKT1_, symObjAddr: 0x1C660, symBinAddr: 0x1000212F0, symSize: 0x60 }
  - { offsetInCU: 0x2C9A9, offset: 0x4AB6C, size: 0x8, addend: 0x0, symName: __ZNSt3__119__allocate_at_leastB8ue170006INS_9allocatorINS_9sub_matchIPKcEEEEEENS_19__allocation_resultINS_16allocator_traitsIT_E7pointerEEERS9_m, symObjAddr: 0x1C980, symBinAddr: 0x100021610, symSize: 0x40 }
  - { offsetInCU: 0x2C9ED, offset: 0x4ABB0, size: 0x8, addend: 0x0, symName: __ZNSt3__119__throw_regex_errorB8ue170006ILNS_15regex_constants10error_typeE12EEEvv, symObjAddr: 0x1CD40, symBinAddr: 0x1000219D0, symSize: 0x60 }
  - { offsetInCU: 0x2CA12, offset: 0x4ABD5, size: 0x8, addend: 0x0, symName: __ZNSt3__119__throw_regex_errorB8ue170006ILNS_15regex_constants10error_typeE16EEEvv, symObjAddr: 0x1CE00, symBinAddr: 0x100021A90, symSize: 0x60 }
  - { offsetInCU: 0x2CA36, offset: 0x4ABF9, size: 0x8, addend: 0x0, symName: __ZNSt3__112__to_addressB8ue170006INS_7__stateIcEEEEPT_S4_, symObjAddr: 0x1D200, symBinAddr: 0x100021E90, symSize: 0x10 }
  - { offsetInCU: 0x2CA6B, offset: 0x4AC2E, size: 0x8, addend: 0x0, symName: __ZNSt3__119__allocate_at_leastB8ue170006INS_9allocatorINS_7__stateIcEEEEEENS_19__allocation_resultINS_16allocator_traitsIT_E7pointerEEERS7_m, symObjAddr: 0x1DC50, symBinAddr: 0x1000228E0, symSize: 0x40 }
  - { offsetInCU: 0x2CAAE, offset: 0x4AC71, size: 0x8, addend: 0x0, symName: __ZNSt3__142__uninitialized_allocator_move_if_noexceptB8ue170006INS_9allocatorINS_7__stateIcEEEENS_16reverse_iteratorIPS3_EES7_S7_EET2_RT_T0_T1_S8_, symObjAddr: 0x1DE90, symBinAddr: 0x100022B20, symSize: 0x180 }
  - { offsetInCU: 0x2CB4D, offset: 0x4AD10, size: 0x8, addend: 0x0, symName: __ZNSt3__14swapB8ue170006IPNS_7__stateIcEEEENS_9enable_ifIXaasr21is_move_constructibleIT_EE5valuesr18is_move_assignableIS5_EE5valueEvE4typeERS5_S8_, symObjAddr: 0x1E060, symBinAddr: 0x100022CF0, symSize: 0x40 }
  - { offsetInCU: 0x2CB9E, offset: 0x4AD61, size: 0x8, addend: 0x0, symName: __ZNSt3__122__make_exception_guardB8ue170006INS_29_AllocatorDestroyRangeReverseINS_9allocatorINS_7__stateIcEEEENS_16reverse_iteratorIPS4_EEEEEENS_28__exception_guard_exceptionsIT_EESB_, symObjAddr: 0x1E180, symBinAddr: 0x100022E10, symSize: 0x60 }
  - { offsetInCU: 0x2CBD3, offset: 0x4AD96, size: 0x8, addend: 0x0, symName: __ZNSt3__1neB8ue170006IPNS_7__stateIcEES3_EEbRKNS_16reverse_iteratorIT_EERKNS4_IT0_EE, symObjAddr: 0x1E220, symBinAddr: 0x100022EB0, symSize: 0x40 }
  - { offsetInCU: 0x2CC1F, offset: 0x4ADE2, size: 0x8, addend: 0x0, symName: __ZNSt3__112__to_addressB8ue170006INS_16reverse_iteratorIPNS_7__stateIcEEEEvEEu7__decayIDTclsr19__to_address_helperIT_EE6__callclsr3stdE7declvalIRKS6_EEEEES8_, symObjAddr: 0x1E260, symBinAddr: 0x100022EF0, symSize: 0x20 }
  - { offsetInCU: 0x2CC7F, offset: 0x4AE42, size: 0x8, addend: 0x0, symName: __ZNSt3__119__allocator_destroyB8ue170006INS_9allocatorINS_7__stateIcEEEENS_16reverse_iteratorINS5_IPS3_EEEES8_EEvRT_T0_T1_, symObjAddr: 0x1E550, symBinAddr: 0x1000231E0, symSize: 0x70 }
  - { offsetInCU: 0x2CCE1, offset: 0x4AEA4, size: 0x8, addend: 0x0, symName: __ZNSt3__1neB8ue170006INS_16reverse_iteratorIPNS_7__stateIcEEEES5_EEbRKNS1_IT_EERKNS1_IT0_EE, symObjAddr: 0x1E5F0, symBinAddr: 0x100023280, symSize: 0x50 }
  - { offsetInCU: 0x2CD2D, offset: 0x4AEF0, size: 0x8, addend: 0x0, symName: __ZNSt3__112__to_addressB8ue170006INS_16reverse_iteratorINS1_IPNS_7__stateIcEEEEEEvEEu7__decayIDTclsr19__to_address_helperIT_EE6__callclsr3stdE7declvalIRKS7_EEEEES9_, symObjAddr: 0x1E670, symBinAddr: 0x100023300, symSize: 0x20 }
  - { offsetInCU: 0x2CD8C, offset: 0x4AF4F, size: 0x8, addend: 0x0, symName: __ZNSt3__112__to_addressB8ue170006INS_4pairImPKcEEEEPT_S6_, symObjAddr: 0x1F050, symBinAddr: 0x100023CE0, symSize: 0x10 }
  - { offsetInCU: 0x2CDC1, offset: 0x4AF84, size: 0x8, addend: 0x0, symName: __ZNSt3__142__uninitialized_allocator_move_if_noexceptB8ue170006INS_9allocatorINS_9sub_matchIPKcEEEENS_16reverse_iteratorIPS5_EES9_S9_EET2_RT_T0_T1_SA_, symObjAddr: 0x1F740, symBinAddr: 0x1000243D0, symSize: 0x180 }
  - { offsetInCU: 0x2CE60, offset: 0x4B023, size: 0x8, addend: 0x0, symName: __ZNSt3__14swapB8ue170006IPNS_9sub_matchIPKcEEEENS_9enable_ifIXaasr21is_move_constructibleIT_EE5valuesr18is_move_assignableIS7_EE5valueEvE4typeERS7_SA_, symObjAddr: 0x1F910, symBinAddr: 0x1000245A0, symSize: 0x40 }
  - { offsetInCU: 0x2CEB1, offset: 0x4B074, size: 0x8, addend: 0x0, symName: __ZNSt3__122__make_exception_guardB8ue170006INS_29_AllocatorDestroyRangeReverseINS_9allocatorINS_9sub_matchIPKcEEEENS_16reverse_iteratorIPS6_EEEEEENS_28__exception_guard_exceptionsIT_EESD_, symObjAddr: 0x1F950, symBinAddr: 0x1000245E0, symSize: 0x60 }
  - { offsetInCU: 0x2CEE6, offset: 0x4B0A9, size: 0x8, addend: 0x0, symName: __ZNSt3__1neB8ue170006IPNS_9sub_matchIPKcEES5_EEbRKNS_16reverse_iteratorIT_EERKNS6_IT0_EE, symObjAddr: 0x1F9F0, symBinAddr: 0x100024680, symSize: 0x40 }
  - { offsetInCU: 0x2CF32, offset: 0x4B0F5, size: 0x8, addend: 0x0, symName: __ZNSt3__112__to_addressB8ue170006INS_16reverse_iteratorIPNS_9sub_matchIPKcEEEEvEEu7__decayIDTclsr19__to_address_helperIT_EE6__callclsr3stdE7declvalIRKS8_EEEEESA_, symObjAddr: 0x1FA60, symBinAddr: 0x1000246F0, symSize: 0x20 }
  - { offsetInCU: 0x2CF92, offset: 0x4B155, size: 0x8, addend: 0x0, symName: __ZNSt3__119__allocator_destroyB8ue170006INS_9allocatorINS_9sub_matchIPKcEEEENS_16reverse_iteratorINS7_IPS5_EEEESA_EEvRT_T0_T1_, symObjAddr: 0x1FD80, symBinAddr: 0x100024A10, symSize: 0x70 }
  - { offsetInCU: 0x2CFF4, offset: 0x4B1B7, size: 0x8, addend: 0x0, symName: __ZNSt3__1neB8ue170006INS_16reverse_iteratorIPNS_9sub_matchIPKcEEEES7_EEbRKNS1_IT_EERKNS1_IT0_EE, symObjAddr: 0x1FE20, symBinAddr: 0x100024AB0, symSize: 0x50 }
  - { offsetInCU: 0x2D040, offset: 0x4B203, size: 0x8, addend: 0x0, symName: __ZNSt3__112__to_addressB8ue170006INS_16reverse_iteratorINS1_IPNS_9sub_matchIPKcEEEEEEvEEu7__decayIDTclsr19__to_address_helperIT_EE6__callclsr3stdE7declvalIRKS9_EEEEESB_, symObjAddr: 0x1FE70, symBinAddr: 0x100024B00, symSize: 0x20 }
  - { offsetInCU: 0x2D09F, offset: 0x4B262, size: 0x8, addend: 0x0, symName: __ZNSt3__119__allocate_at_leastB8ue170006INS_9allocatorINS_4pairImPKcEEEEEENS_19__allocation_resultINS_16allocator_traitsIT_E7pointerEEERS9_m, symObjAddr: 0x20A00, symBinAddr: 0x100025690, symSize: 0x40 }
  - { offsetInCU: 0x2D0E2, offset: 0x4B2A5, size: 0x8, addend: 0x0, symName: __ZNSt3__142__uninitialized_allocator_move_if_noexceptB8ue170006INS_9allocatorINS_4pairImPKcEEEENS_16reverse_iteratorIPS5_EES9_S9_EET2_RT_T0_T1_SA_, symObjAddr: 0x20C40, symBinAddr: 0x1000258D0, symSize: 0x180 }
  - { offsetInCU: 0x2D181, offset: 0x4B344, size: 0x8, addend: 0x0, symName: __ZNSt3__14swapB8ue170006IPNS_4pairImPKcEEEENS_9enable_ifIXaasr21is_move_constructibleIT_EE5valuesr18is_move_assignableIS7_EE5valueEvE4typeERS7_SA_, symObjAddr: 0x20E10, symBinAddr: 0x100025AA0, symSize: 0x40 }
  - { offsetInCU: 0x2D1D2, offset: 0x4B395, size: 0x8, addend: 0x0, symName: __ZNSt3__122__make_exception_guardB8ue170006INS_29_AllocatorDestroyRangeReverseINS_9allocatorINS_4pairImPKcEEEENS_16reverse_iteratorIPS6_EEEEEENS_28__exception_guard_exceptionsIT_EESD_, symObjAddr: 0x20F00, symBinAddr: 0x100025B90, symSize: 0x60 }
  - { offsetInCU: 0x2D207, offset: 0x4B3CA, size: 0x8, addend: 0x0, symName: __ZNSt3__1neB8ue170006IPNS_4pairImPKcEES5_EEbRKNS_16reverse_iteratorIT_EERKNS6_IT0_EE, symObjAddr: 0x20FA0, symBinAddr: 0x100025C30, symSize: 0x40 }
  - { offsetInCU: 0x2D253, offset: 0x4B416, size: 0x8, addend: 0x0, symName: __ZNSt3__112__to_addressB8ue170006INS_16reverse_iteratorIPNS_4pairImPKcEEEEvEEu7__decayIDTclsr19__to_address_helperIT_EE6__callclsr3stdE7declvalIRKS8_EEEEESA_, symObjAddr: 0x21010, symBinAddr: 0x100025CA0, symSize: 0x20 }
  - { offsetInCU: 0x2D2B3, offset: 0x4B476, size: 0x8, addend: 0x0, symName: __ZNSt3__119__allocator_destroyB8ue170006INS_9allocatorINS_4pairImPKcEEEENS_16reverse_iteratorINS7_IPS5_EEEESA_EEvRT_T0_T1_, symObjAddr: 0x21330, symBinAddr: 0x100025FC0, symSize: 0x70 }
  - { offsetInCU: 0x2D315, offset: 0x4B4D8, size: 0x8, addend: 0x0, symName: __ZNSt3__1neB8ue170006INS_16reverse_iteratorIPNS_4pairImPKcEEEES7_EEbRKNS1_IT_EERKNS1_IT0_EE, symObjAddr: 0x213D0, symBinAddr: 0x100026060, symSize: 0x50 }
  - { offsetInCU: 0x2D361, offset: 0x4B524, size: 0x8, addend: 0x0, symName: __ZNSt3__112__to_addressB8ue170006INS_16reverse_iteratorINS1_IPNS_4pairImPKcEEEEEEvEEu7__decayIDTclsr19__to_address_helperIT_EE6__callclsr3stdE7declvalIRKS9_EEEEESB_, symObjAddr: 0x21420, symBinAddr: 0x1000260B0, symSize: 0x20 }
  - { offsetInCU: 0x2D3C0, offset: 0x4B583, size: 0x8, addend: 0x0, symName: __ZNSt3__122__make_exception_guardB8ue170006INS_6vectorINS_9sub_matchIPKcEENS_9allocatorIS5_EEE16__destroy_vectorEEENS_28__exception_guard_exceptionsIT_EESB_, symObjAddr: 0x21BE0, symBinAddr: 0x100026870, symSize: 0x40 }
  - { offsetInCU: 0x2D3F5, offset: 0x4B5B8, size: 0x8, addend: 0x0, symName: __ZNSt3__130__uninitialized_allocator_copyB8ue170006INS_9allocatorINS_9sub_matchIPKcEEEEPS5_S7_S7_EET2_RT_T0_T1_S8_, symObjAddr: 0x21D40, symBinAddr: 0x1000269D0, symSize: 0x80 }
  - { offsetInCU: 0x2D492, offset: 0x4B655, size: 0x8, addend: 0x0, symName: __ZNSt3__114__unwrap_rangeB8ue170006IPNS_9sub_matchIPKcEES5_EENS_4pairIT0_S7_EET_S9_, symObjAddr: 0x21DC0, symBinAddr: 0x100026A50, symSize: 0x50 }
  - { offsetInCU: 0x2D4DE, offset: 0x4B6A1, size: 0x8, addend: 0x0, symName: __ZNSt3__135__uninitialized_allocator_copy_implB8ue170006INS_9allocatorINS_9sub_matchIPKcEEEEPS5_S7_S7_EET2_RT_T0_T1_S8_, symObjAddr: 0x21E10, symBinAddr: 0x100026AA0, symSize: 0x100 }
  - { offsetInCU: 0x2D57C, offset: 0x4B73F, size: 0x8, addend: 0x0, symName: __ZNSt3__113__unwrap_iterB8ue170006IPNS_9sub_matchIPKcEENS_18__unwrap_iter_implIS5_Lb1EEELi0EEEDTclsrT0_8__unwrapclsr3stdE7declvalIT_EEEES9_, symObjAddr: 0x21F10, symBinAddr: 0x100026BA0, symSize: 0x20 }
  - { offsetInCU: 0x2D5C0, offset: 0x4B783, size: 0x8, addend: 0x0, symName: __ZNSt3__113__rewrap_iterB8ue170006IPNS_9sub_matchIPKcEES5_NS_18__unwrap_iter_implIS5_Lb1EEEEET_S8_T0_, symObjAddr: 0x21F30, symBinAddr: 0x100026BC0, symSize: 0x40 }
  - { offsetInCU: 0x2D615, offset: 0x4B7D8, size: 0x8, addend: 0x0, symName: __ZNSt3__19make_pairB8ue170006IPNS_9sub_matchIPKcEES5_EENS_4pairINS_18__unwrap_ref_decayIT_E4typeENS7_IT0_E4typeEEEOS8_OSB_, symObjAddr: 0x21F70, symBinAddr: 0x100026C00, symSize: 0x30 }
  - { offsetInCU: 0x2D738, offset: 0x4B8FB, size: 0x8, addend: 0x0, symName: __ZNSt3__122__make_exception_guardB8ue170006INS_29_AllocatorDestroyRangeReverseINS_9allocatorINS_9sub_matchIPKcEEEEPS6_EEEENS_28__exception_guard_exceptionsIT_EESB_, symObjAddr: 0x22000, symBinAddr: 0x100026C90, symSize: 0x60 }
  - { offsetInCU: 0x2D76E, offset: 0x4B931, size: 0x8, addend: 0x0, symName: __ZNSt3__119__allocator_destroyB8ue170006INS_9allocatorINS_9sub_matchIPKcEEEENS_16reverse_iteratorIPS5_EES9_EEvRT_T0_T1_, symObjAddr: 0x22290, symBinAddr: 0x100026F20, symSize: 0x70 }
  - { offsetInCU: 0x2D823, offset: 0x4B9E6, size: 0x8, addend: 0x0, symName: __ZNSt3__122__make_exception_guardB8ue170006INS_6vectorINS_4pairImPKcEENS_9allocatorIS5_EEE16__destroy_vectorEEENS_28__exception_guard_exceptionsIT_EESB_, symObjAddr: 0x22510, symBinAddr: 0x1000271A0, symSize: 0x40 }
  - { offsetInCU: 0x2D858, offset: 0x4BA1B, size: 0x8, addend: 0x0, symName: __ZNSt3__130__uninitialized_allocator_copyB8ue170006INS_9allocatorINS_4pairImPKcEEEEPS5_S7_S7_EET2_RT_T0_T1_S8_, symObjAddr: 0x22710, symBinAddr: 0x1000273A0, symSize: 0x80 }
  - { offsetInCU: 0x2D8F5, offset: 0x4BAB8, size: 0x8, addend: 0x0, symName: __ZNSt3__114__unwrap_rangeB8ue170006IPNS_4pairImPKcEES5_EENS1_IT0_S6_EET_S8_, symObjAddr: 0x22790, symBinAddr: 0x100027420, symSize: 0x50 }
  - { offsetInCU: 0x2D941, offset: 0x4BB04, size: 0x8, addend: 0x0, symName: __ZNSt3__135__uninitialized_allocator_copy_implB8ue170006INS_9allocatorINS_4pairImPKcEEEEPS5_S7_S7_EET2_RT_T0_T1_S8_, symObjAddr: 0x227E0, symBinAddr: 0x100027470, symSize: 0x100 }
  - { offsetInCU: 0x2D9DF, offset: 0x4BBA2, size: 0x8, addend: 0x0, symName: __ZNSt3__113__unwrap_iterB8ue170006IPNS_4pairImPKcEENS_18__unwrap_iter_implIS5_Lb1EEELi0EEEDTclsrT0_8__unwrapclsr3stdE7declvalIT_EEEES9_, symObjAddr: 0x228E0, symBinAddr: 0x100027570, symSize: 0x20 }
  - { offsetInCU: 0x2DA23, offset: 0x4BBE6, size: 0x8, addend: 0x0, symName: __ZNSt3__113__rewrap_iterB8ue170006IPNS_4pairImPKcEES5_NS_18__unwrap_iter_implIS5_Lb1EEEEET_S8_T0_, symObjAddr: 0x22900, symBinAddr: 0x100027590, symSize: 0x40 }
  - { offsetInCU: 0x2DA78, offset: 0x4BC3B, size: 0x8, addend: 0x0, symName: __ZNSt3__19make_pairB8ue170006IPNS_4pairImPKcEES5_EENS1_INS_18__unwrap_ref_decayIT_E4typeENS6_IT0_E4typeEEEOS7_OSA_, symObjAddr: 0x22940, symBinAddr: 0x1000275D0, symSize: 0x30 }
  - { offsetInCU: 0x2DB9B, offset: 0x4BD5E, size: 0x8, addend: 0x0, symName: __ZNSt3__122__make_exception_guardB8ue170006INS_29_AllocatorDestroyRangeReverseINS_9allocatorINS_4pairImPKcEEEEPS6_EEEENS_28__exception_guard_exceptionsIT_EESB_, symObjAddr: 0x229D0, symBinAddr: 0x100027660, symSize: 0x60 }
  - { offsetInCU: 0x2DBD1, offset: 0x4BD94, size: 0x8, addend: 0x0, symName: __ZNSt3__119__allocator_destroyB8ue170006INS_9allocatorINS_4pairImPKcEEEENS_16reverse_iteratorIPS5_EES9_EEvRT_T0_T1_, symObjAddr: 0x22C60, symBinAddr: 0x1000278F0, symSize: 0x70 }
  - { offsetInCU: 0x2DC87, offset: 0x4BE4A, size: 0x8, addend: 0x0, symName: __ZNSt3__119__throw_regex_errorB8ue170006ILNS_15regex_constants10error_typeE11EEEvv, symObjAddr: 0x233C0, symBinAddr: 0x100028050, symSize: 0x60 }
  - { offsetInCU: 0x2DD20, offset: 0x4BEE3, size: 0x8, addend: 0x0, symName: __ZNSt3__119__throw_regex_errorB8ue170006ILNS_15regex_constants10error_typeE3EEEvv, symObjAddr: 0x236F0, symBinAddr: 0x100028380, symSize: 0x60 }
  - { offsetInCU: 0x2DF31, offset: 0x4C0F4, size: 0x8, addend: 0x0, symName: __ZNSt3__119__throw_regex_errorB8ue170006ILNS_15regex_constants10error_typeE4EEEvv, symObjAddr: 0x24310, symBinAddr: 0x100028FA0, symSize: 0x60 }
  - { offsetInCU: 0x2E36F, offset: 0x4C532, size: 0x8, addend: 0x0, symName: __ZNSt3__15equalB8ue170006IPKcS2_EEbT_S3_T0_, symObjAddr: 0x25360, symBinAddr: 0x100029FF0, symSize: 0x30 }
  - { offsetInCU: 0x2E3C9, offset: 0x4C58C, size: 0x8, addend: 0x0, symName: __ZNSt3__15equalB8ue170006IPKcS2_NS_10__equal_toEEEbT_S4_T0_T1_, symObjAddr: 0x25390, symBinAddr: 0x10002A020, symSize: 0x60 }
  - { offsetInCU: 0x2E43A, offset: 0x4C5FD, size: 0x8, addend: 0x0, symName: __ZNSt3__117__equal_iter_implB8ue170006IKcS1_NS_10__equal_toELi0EEEbPT_S4_PT0_RT1_, symObjAddr: 0x253F0, symBinAddr: 0x10002A080, symSize: 0x40 }
  - { offsetInCU: 0x2E4AD, offset: 0x4C670, size: 0x8, addend: 0x0, symName: __ZNSt3__124__constexpr_memcmp_equalB8ue170006IccEEbPKT_PKT0_NS_15__element_countE, symObjAddr: 0x25430, symBinAddr: 0x10002A0C0, symSize: 0x50 }
  - { offsetInCU: 0x2E515, offset: 0x4C6D8, size: 0x8, addend: 0x0, symName: __ZNSt3__1neB8ue170006IcNS_11char_traitsIcEENS_9allocatorIcEEEEbRKNS_12basic_stringIT_T0_T1_EEPKS6_, symObjAddr: 0x25980, symBinAddr: 0x10002A610, symSize: 0x30 }
  - { offsetInCU: 0x2E56D, offset: 0x4C730, size: 0x8, addend: 0x0, symName: __ZNSt3__112__to_addressB8ue170006INS_4pairIccEEEEPT_S4_, symObjAddr: 0x26BE0, symBinAddr: 0x10002B7E0, symSize: 0x10 }
  - { offsetInCU: 0x2E5A2, offset: 0x4C765, size: 0x8, addend: 0x0, symName: __ZNSt3__112__to_addressB8ue170006INS_4pairINS_12basic_stringIcNS_11char_traitsIcEENS_9allocatorIcEEEES7_EEEEPT_SA_, symObjAddr: 0x27040, symBinAddr: 0x10002BC40, symSize: 0x10 }
  - { offsetInCU: 0x2E5D7, offset: 0x4C79A, size: 0x8, addend: 0x0, symName: __ZNSt3__1eqB8ue170006IccccEEbRKNS_4pairIT_T0_EERKNS1_IT1_T2_EE, symObjAddr: 0x276A0, symBinAddr: 0x10002C2A0, symSize: 0x50 }
  - { offsetInCU: 0x2E638, offset: 0x4C7FB, size: 0x8, addend: 0x0, symName: __ZNSt3__1leB8ue170006IcNS_11char_traitsIcEENS_9allocatorIcEEEEbRKNS_12basic_stringIT_T0_T1_EESB_, symObjAddr: 0x27840, symBinAddr: 0x10002C440, symSize: 0x30 }
  - { offsetInCU: 0x2E690, offset: 0x4C853, size: 0x8, addend: 0x0, symName: __ZNSt3__1neB8ue170006IPKcEEbRKNS_11__wrap_iterIT_EES7_, symObjAddr: 0x27950, symBinAddr: 0x10002C550, symSize: 0x30 }
  - { offsetInCU: 0x2E6D3, offset: 0x4C896, size: 0x8, addend: 0x0, symName: __ZNSt3__14findB8ue170006INS_11__wrap_iterIPKcEEcEET_S5_S5_RKT0_, symObjAddr: 0x27980, symBinAddr: 0x10002C580, symSize: 0x70 }
  - { offsetInCU: 0x2E73B, offset: 0x4C8FE, size: 0x8, addend: 0x0, symName: __ZNSt3__18distanceB8ue170006IPcEENS_15iterator_traitsIT_E15difference_typeES3_S3_, symObjAddr: 0x27D90, symBinAddr: 0x10002C990, symSize: 0x30 }
  - { offsetInCU: 0x2E77E, offset: 0x4C941, size: 0x8, addend: 0x0, symName: __ZNSt3__110__distanceB8ue170006IPcEENS_15iterator_traitsIT_E15difference_typeES3_S3_NS_26random_access_iterator_tagE, symObjAddr: 0x27F00, symBinAddr: 0x10002CB00, symSize: 0x20 }
  - { offsetInCU: 0x2E7CB, offset: 0x4C98E, size: 0x8, addend: 0x0, symName: __ZNSt3__119__allocate_at_leastB8ue170006INS_9allocatorIcEEEENS_19__allocation_resultINS_16allocator_traitsIT_E7pointerEEERS5_m, symObjAddr: 0x27F20, symBinAddr: 0x10002CB20, symSize: 0x40 }
  - { offsetInCU: 0x2E80E, offset: 0x4C9D1, size: 0x8, addend: 0x0, symName: __ZNSt3__1eqB8ue170006IPKcEEbRKNS_11__wrap_iterIT_EES7_, symObjAddr: 0x28160, symBinAddr: 0x10002CD60, symSize: 0x40 }
  - { offsetInCU: 0x2E851, offset: 0x4CA14, size: 0x8, addend: 0x0, symName: __ZNSt3__113__rewrap_iterB8ue170006INS_11__wrap_iterIPKcEES3_NS_18__unwrap_iter_implIS4_Lb1EEEEET_S7_T0_, symObjAddr: 0x281C0, symBinAddr: 0x10002CDC0, symSize: 0x50 }
  - { offsetInCU: 0x2E8A6, offset: 0x4CA69, size: 0x8, addend: 0x0, symName: __ZNSt3__111__find_implB8ue170006IKccNS_10__identityELi0EEEPT_S4_S4_RKT0_RT1_, symObjAddr: 0x28210, symBinAddr: 0x10002CE10, symSize: 0x70 }
  - { offsetInCU: 0x2E92D, offset: 0x4CAF0, size: 0x8, addend: 0x0, symName: __ZNSt3__113__unwrap_iterB8ue170006INS_11__wrap_iterIPKcEENS_18__unwrap_iter_implIS4_Lb1EEELi0EEEDTclsrT0_8__unwrapclsr3stdE7declvalIT_EEEES8_, symObjAddr: 0x28280, symBinAddr: 0x10002CE80, symSize: 0x30 }
  - { offsetInCU: 0x2E9C4, offset: 0x4CB87, size: 0x8, addend: 0x0, symName: __ZNSt3__112__to_addressB8ue170006INS_11__wrap_iterIPKcEEvEEu7__decayIDTclsr19__to_address_helperIT_EE6__callclsr3stdE7declvalIRKS5_EEEEES7_, symObjAddr: 0x28330, symBinAddr: 0x10002CF30, symSize: 0x20 }
  - { offsetInCU: 0x2EA61, offset: 0x4CC24, size: 0x8, addend: 0x0, symName: __ZNSt3__118__constexpr_memchrB8ue170006IKccEEPT_S3_T0_m, symObjAddr: 0x283D0, symBinAddr: 0x10002CFD0, symSize: 0x40 }
  - { offsetInCU: 0x2EAD7, offset: 0x4CC9A, size: 0x8, addend: 0x0, symName: __ZNSt3__142__uninitialized_allocator_move_if_noexceptB8ue170006INS_9allocatorIcEENS_16reverse_iteratorIPcEES5_cvEET1_RT_T0_S9_S6_, symObjAddr: 0x28CF0, symBinAddr: 0x10002D8F0, symSize: 0x70 }
  - { offsetInCU: 0x2EB53, offset: 0x4CD16, size: 0x8, addend: 0x0, symName: __ZNSt3__14swapB8ue170006IPcEENS_9enable_ifIXaasr21is_move_constructibleIT_EE5valuesr18is_move_assignableIS3_EE5valueEvE4typeERS3_S6_, symObjAddr: 0x28DB0, symBinAddr: 0x10002D9B0, symSize: 0x40 }
  - { offsetInCU: 0x2EBA4, offset: 0x4CD67, size: 0x8, addend: 0x0, symName: __ZNSt3__14moveB8ue170006INS_16reverse_iteratorIPcEES3_EET0_T_S5_S4_, symObjAddr: 0x28E90, symBinAddr: 0x10002DA90, symSize: 0x80 }
  - { offsetInCU: 0x2EBFE, offset: 0x4CDC1, size: 0x8, addend: 0x0, symName: __ZNSt3__16__moveB8ue170006INS_17_ClassicAlgPolicyENS_16reverse_iteratorIPcEES4_S4_EENS_4pairIT0_T2_EES6_T1_S7_, symObjAddr: 0x28F10, symBinAddr: 0x10002DB10, symSize: 0x90 }
  - { offsetInCU: 0x2EC6A, offset: 0x4CE2D, size: 0x8, addend: 0x0, symName: __ZNSt3__123__dispatch_copy_or_moveB8ue170006INS_17_ClassicAlgPolicyENS_11__move_loopIS1_EENS_14__move_trivialENS_16reverse_iteratorIPcEES7_S7_EENS_4pairIT2_T4_EES9_T3_SA_, symObjAddr: 0x28FA0, symBinAddr: 0x10002DBA0, symSize: 0x90 }
  - { offsetInCU: 0x2ECE8, offset: 0x4CEAB, size: 0x8, addend: 0x0, symName: __ZNSt3__121__unwrap_and_dispatchB8ue170006INS_10__overloadINS_11__move_loopINS_17_ClassicAlgPolicyEEENS_14__move_trivialEEENS_16reverse_iteratorIPcEES9_S9_Li0EEENS_4pairIT0_T2_EESB_T1_SC_, symObjAddr: 0x29030, symBinAddr: 0x10002DC30, symSize: 0x210 }
  - { offsetInCU: 0x2ED77, offset: 0x4CF3A, size: 0x8, addend: 0x0, symName: __ZNSt3__114__unwrap_rangeB8ue170006INS_16reverse_iteratorIPcEES3_EENS_4pairIT0_S5_EET_S7_, symObjAddr: 0x29240, symBinAddr: 0x10002DE40, symSize: 0x90 }
  - { offsetInCU: 0x2EE97, offset: 0x4D05A, size: 0x8, addend: 0x0, symName: __ZNSt3__113__unwrap_iterB8ue170006INS_16reverse_iteratorIPcEENS_18__unwrap_iter_implIS3_Lb0EEELi0EEEDTclsrT0_8__unwrapclsr3stdE7declvalIT_EEEES7_, symObjAddr: 0x29370, symBinAddr: 0x10002DF70, symSize: 0x40 }
  - { offsetInCU: 0x2EEDB, offset: 0x4D09E, size: 0x8, addend: 0x0, symName: __ZNSt3__19make_pairB8ue170006INS_16reverse_iteratorIPcEES3_EENS_4pairINS_18__unwrap_ref_decayIT_E4typeENS5_IT0_E4typeEEEOS6_OS9_, symObjAddr: 0x293B0, symBinAddr: 0x10002DFB0, symSize: 0x30 }
  - { offsetInCU: 0x2EF2A, offset: 0x4D0ED, size: 0x8, addend: 0x0, symName: __ZNSt3__114__rewrap_rangeB8ue170006INS_16reverse_iteratorIPcEES3_EET_S4_T0_, symObjAddr: 0x293E0, symBinAddr: 0x10002DFE0, symSize: 0x60 }
  - { offsetInCU: 0x2EF76, offset: 0x4D139, size: 0x8, addend: 0x0, symName: __ZNSt3__113__rewrap_iterB8ue170006INS_16reverse_iteratorIPcEES3_NS_18__unwrap_iter_implIS3_Lb0EEEEET_S6_T0_, symObjAddr: 0x29440, symBinAddr: 0x10002E040, symSize: 0x70 }
  - { offsetInCU: 0x2EFCB, offset: 0x4D18E, size: 0x8, addend: 0x0, symName: __ZNSt3__1neB8ue170006IPcS1_EEbRKNS_16reverse_iteratorIT_EERKNS2_IT0_EE, symObjAddr: 0x294B0, symBinAddr: 0x10002E0B0, symSize: 0x40 }
  - { offsetInCU: 0x2F083, offset: 0x4D246, size: 0x8, addend: 0x0, symName: __ZNSt3__17__is_07B8ue170006Eh, symObjAddr: 0x29AF0, symBinAddr: 0x10002E6F0, symSize: 0x20 }
  - { offsetInCU: 0x2F0B1, offset: 0x4D274, size: 0x8, addend: 0x0, symName: __ZNSt3__17__is_89B8ue170006Eh, symObjAddr: 0x29B10, symBinAddr: 0x10002E710, symSize: 0x20 }
  - { offsetInCU: 0x2F0DF, offset: 0x4D2A2, size: 0x8, addend: 0x0, symName: __ZNSt3__110__to_lowerB8ue170006Eh, symObjAddr: 0x29B30, symBinAddr: 0x10002E730, symSize: 0x20 }
  - { offsetInCU: 0x2F10E, offset: 0x4D2D1, size: 0x8, addend: 0x0, symName: __ZNSt3__119__throw_regex_errorB8ue170006ILNS_15regex_constants10error_typeE5EEEvv, symObjAddr: 0x29B50, symBinAddr: 0x10002E750, symSize: 0x60 }
  - { offsetInCU: 0x2F132, offset: 0x4D2F5, size: 0x8, addend: 0x0, symName: __ZNSt3__16searchB8ue170006IPKcPcEET_S4_S4_T0_S5_, symObjAddr: 0x2B4F0, symBinAddr: 0x1000300F0, symSize: 0x40 }
  - { offsetInCU: 0x2F19B, offset: 0x4D35E, size: 0x8, addend: 0x0, symName: __ZNSt3__119__throw_regex_errorB8ue170006ILNS_15regex_constants10error_typeE1EEEvv, symObjAddr: 0x2B570, symBinAddr: 0x100030170, symSize: 0x60 }
  - { offsetInCU: 0x2F1BF, offset: 0x4D382, size: 0x8, addend: 0x0, symName: __ZNSt3__16searchB8ue170006IPKcPcNS_10__equal_toEEET_S5_S5_T0_S6_T1_, symObjAddr: 0x2B650, symBinAddr: 0x100030250, symSize: 0x70 }
  - { offsetInCU: 0x2F24C, offset: 0x4D40F, size: 0x8, addend: 0x0, symName: __ZNSt3__113__search_implB8ue170006IPKcS2_PcS3_NS_10__equal_toENS_10__identityES5_EENS_4pairIT_S7_EES7_T0_T1_T2_RT3_RT4_RT5_PNS_9enable_ifIXaasr37__has_random_access_iterator_categoryIS7_EE5valuesr37__has_random_access_iterator_categoryISA_EE5valueEvE4typeE, symObjAddr: 0x2B6C0, symBinAddr: 0x1000302C0, symSize: 0xE0 }
  - { offsetInCU: 0x2F333, offset: 0x4D4F6, size: 0x8, addend: 0x0, symName: __ZNSt3__19make_pairB8ue170006IRPKcS3_EENS_4pairINS_18__unwrap_ref_decayIT_E4typeENS5_IT0_E4typeEEEOS6_OS9_, symObjAddr: 0x2B7A0, symBinAddr: 0x1000303A0, symSize: 0x30 }
  - { offsetInCU: 0x2F382, offset: 0x4D545, size: 0x8, addend: 0x0, symName: __ZNSt3__127__search_random_access_implB8ue170006INS_17_ClassicAlgPolicyEPKcS3_PcS4_NS_10__equal_toENS_10__identityES6_llEENS_4pairIT0_S8_EES8_T1_T2_T3_RT4_RT5_RT6_T7_T8_, symObjAddr: 0x2B7D0, symBinAddr: 0x1000303D0, symSize: 0x1A0 }
  - { offsetInCU: 0x2F4B3, offset: 0x4D676, size: 0x8, addend: 0x0, symName: __ZNSt3__18__invokeB8ue170006IRNS_10__equal_toEJRKcRcEEEDTclclsr3stdE7declvalIT_EEspclsr3stdE7declvalIT0_EEEEOS6_DpOS7_, symObjAddr: 0x2B9F0, symBinAddr: 0x1000305F0, symSize: 0x30 }
  - { offsetInCU: 0x2F518, offset: 0x4D6DB, size: 0x8, addend: 0x0, symName: __ZNSt3__18__invokeB8ue170006IRNS_10__identityEJRKcEEEDTclclsr3stdE7declvalIT_EEspclsr3stdE7declvalIT0_EEEEOS5_DpOS6_, symObjAddr: 0x2BA20, symBinAddr: 0x100030620, symSize: 0x30 }
  - { offsetInCU: 0x2F569, offset: 0x4D72C, size: 0x8, addend: 0x0, symName: __ZNSt3__18__invokeB8ue170006IRNS_10__identityEJRcEEEDTclclsr3stdE7declvalIT_EEspclsr3stdE7declvalIT0_EEEEOS4_DpOS5_, symObjAddr: 0x2BA50, symBinAddr: 0x100030650, symSize: 0x30 }
  - { offsetInCU: 0x2F5BA, offset: 0x4D77D, size: 0x8, addend: 0x0, symName: __ZNSt3__19make_pairB8ue170006IRPKcS2_EENS_4pairINS_18__unwrap_ref_decayIT_E4typeENS5_IT0_E4typeEEEOS6_OS9_, symObjAddr: 0x2BA80, symBinAddr: 0x100030680, symSize: 0x30 }
  - { offsetInCU: 0x2F644, offset: 0x4D807, size: 0x8, addend: 0x0, symName: __ZNSt3__18distanceB8ue170006IPKcEENS_15iterator_traitsIT_E15difference_typeES4_S4_, symObjAddr: 0x2BE90, symBinAddr: 0x100030A90, symSize: 0x30 }
  - { offsetInCU: 0x2F687, offset: 0x4D84A, size: 0x8, addend: 0x0, symName: __ZNSt3__110__distanceB8ue170006IPKcEENS_15iterator_traitsIT_E15difference_typeES4_S4_NS_26random_access_iterator_tagE, symObjAddr: 0x2C000, symBinAddr: 0x100030C00, symSize: 0x20 }
  - { offsetInCU: 0x2F6D4, offset: 0x4D897, size: 0x8, addend: 0x0, symName: __ZNSt3__18distanceB8ue170006INS_11__wrap_iterIPcEEEENS_15iterator_traitsIT_E15difference_typeES5_S5_, symObjAddr: 0x2C2F0, symBinAddr: 0x100030EF0, symSize: 0x40 }
  - { offsetInCU: 0x2F717, offset: 0x4D8DA, size: 0x8, addend: 0x0, symName: __ZNSt3__110__distanceB8ue170006INS_11__wrap_iterIPcEEEENS_15iterator_traitsIT_E15difference_typeES5_S5_NS_26random_access_iterator_tagE, symObjAddr: 0x2C490, symBinAddr: 0x100031090, symSize: 0x30 }
  - { offsetInCU: 0x2F764, offset: 0x4D927, size: 0x8, addend: 0x0, symName: __ZNSt3__1miB8ue170006IPcS1_EEDTmicldtfp_4baseEcldtfp0_4baseEERKNS_11__wrap_iterIT_EERKNS3_IT0_EE, symObjAddr: 0x2C4C0, symBinAddr: 0x1000310C0, symSize: 0x40 }
  - { offsetInCU: 0x2F7B1, offset: 0x4D974, size: 0x8, addend: 0x0, symName: __ZNSt3__119__throw_regex_errorB8ue170006ILNS_15regex_constants10error_typeE2EEEvv, symObjAddr: 0x2C790, symBinAddr: 0x100031390, symSize: 0x60 }
  - { offsetInCU: 0x2F7D5, offset: 0x4D998, size: 0x8, addend: 0x0, symName: __ZNSt3__19make_pairB8ue170006INS_12basic_stringIcNS_11char_traitsIcEENS_9allocatorIcEEEES6_EENS_4pairINS_18__unwrap_ref_decayIT_E4typeENS8_IT0_E4typeEEEOS9_OSC_, symObjAddr: 0x2CA50, symBinAddr: 0x100031650, symSize: 0x40 }
  - { offsetInCU: 0x2F825, offset: 0x4D9E8, size: 0x8, addend: 0x0, symName: __ZNSt3__119__throw_regex_errorB8ue170006ILNS_15regex_constants10error_typeE9EEEvv, symObjAddr: 0x2CBC0, symBinAddr: 0x1000317C0, symSize: 0x60 }
  - { offsetInCU: 0x2F849, offset: 0x4DA0C, size: 0x8, addend: 0x0, symName: __ZNSt3__119__allocate_at_leastB8ue170006INS_9allocatorINS_4pairINS_12basic_stringIcNS_11char_traitsIcEENS1_IcEEEES7_EEEEEENS_19__allocation_resultINS_16allocator_traitsIT_E7pointerEEERSC_m, symObjAddr: 0x2D370, symBinAddr: 0x100031F70, symSize: 0x40 }
  - { offsetInCU: 0x2F88C, offset: 0x4DA4F, size: 0x8, addend: 0x0, symName: __ZNSt3__142__uninitialized_allocator_move_if_noexceptB8ue170006INS_9allocatorINS_4pairINS_12basic_stringIcNS_11char_traitsIcEENS1_IcEEEES7_EEEENS_16reverse_iteratorIPS8_EESC_SC_EET2_RT_T0_T1_SD_, symObjAddr: 0x2D500, symBinAddr: 0x100032100, symSize: 0x180 }
  - { offsetInCU: 0x2F92B, offset: 0x4DAEE, size: 0x8, addend: 0x0, symName: __ZNSt3__14swapB8ue170006IPNS_4pairINS_12basic_stringIcNS_11char_traitsIcEENS_9allocatorIcEEEES7_EEEENS_9enable_ifIXaasr21is_move_constructibleIT_EE5valuesr18is_move_assignableISB_EE5valueEvE4typeERSB_SE_, symObjAddr: 0x2D6D0, symBinAddr: 0x1000322D0, symSize: 0x40 }
  - { offsetInCU: 0x2F97C, offset: 0x4DB3F, size: 0x8, addend: 0x0, symName: __ZNSt3__122__make_exception_guardB8ue170006INS_29_AllocatorDestroyRangeReverseINS_9allocatorINS_4pairINS_12basic_stringIcNS_11char_traitsIcEENS2_IcEEEES8_EEEENS_16reverse_iteratorIPS9_EEEEEENS_28__exception_guard_exceptionsIT_EESG_, symObjAddr: 0x2D7B0, symBinAddr: 0x1000323B0, symSize: 0x60 }
  - { offsetInCU: 0x2F9B1, offset: 0x4DB74, size: 0x8, addend: 0x0, symName: __ZNSt3__1neB8ue170006IPNS_4pairINS_12basic_stringIcNS_11char_traitsIcEENS_9allocatorIcEEEES7_EES9_EEbRKNS_16reverse_iteratorIT_EERKNSA_IT0_EE, symObjAddr: 0x2D850, symBinAddr: 0x100032450, symSize: 0x40 }
  - { offsetInCU: 0x2F9FD, offset: 0x4DBC0, size: 0x8, addend: 0x0, symName: __ZNSt3__112__to_addressB8ue170006INS_16reverse_iteratorIPNS_4pairINS_12basic_stringIcNS_11char_traitsIcEENS_9allocatorIcEEEES8_EEEEvEEu7__decayIDTclsr19__to_address_helperIT_EE6__callclsr3stdE7declvalIRKSC_EEEEESE_, symObjAddr: 0x2D890, symBinAddr: 0x100032490, symSize: 0x20 }
  - { offsetInCU: 0x2FA5D, offset: 0x4DC20, size: 0x8, addend: 0x0, symName: __ZNSt3__119__allocator_destroyB8ue170006INS_9allocatorINS_4pairINS_12basic_stringIcNS_11char_traitsIcEENS1_IcEEEES7_EEEENS_16reverse_iteratorINSA_IPS8_EEEESD_EEvRT_T0_T1_, symObjAddr: 0x2DB80, symBinAddr: 0x100032780, symSize: 0x70 }
  - { offsetInCU: 0x2FABF, offset: 0x4DC82, size: 0x8, addend: 0x0, symName: __ZNSt3__1neB8ue170006INS_16reverse_iteratorIPNS_4pairINS_12basic_stringIcNS_11char_traitsIcEENS_9allocatorIcEEEES8_EEEESB_EEbRKNS1_IT_EERKNS1_IT0_EE, symObjAddr: 0x2DC20, symBinAddr: 0x100032820, symSize: 0x50 }
  - { offsetInCU: 0x2FB0B, offset: 0x4DCCE, size: 0x8, addend: 0x0, symName: __ZNSt3__112__to_addressB8ue170006INS_16reverse_iteratorINS1_IPNS_4pairINS_12basic_stringIcNS_11char_traitsIcEENS_9allocatorIcEEEES8_EEEEEEvEEu7__decayIDTclsr19__to_address_helperIT_EE6__callclsr3stdE7declvalIRKSD_EEEEESF_, symObjAddr: 0x2DC70, symBinAddr: 0x100032870, symSize: 0x20 }
  - { offsetInCU: 0x2FB6A, offset: 0x4DD2D, size: 0x8, addend: 0x0, symName: __ZNSt3__19make_pairB8ue170006IccEENS_4pairINS_18__unwrap_ref_decayIT_E4typeENS2_IT0_E4typeEEEOS3_OS6_, symObjAddr: 0x2E0A0, symBinAddr: 0x100032CA0, symSize: 0x30 }
  - { offsetInCU: 0x2FBB9, offset: 0x4DD7C, size: 0x8, addend: 0x0, symName: __ZNSt3__19make_pairB8ue170006IRcS1_EENS_4pairINS_18__unwrap_ref_decayIT_E4typeENS3_IT0_E4typeEEEOS4_OS7_, symObjAddr: 0x2E0D0, symBinAddr: 0x100032CD0, symSize: 0x30 }
  - { offsetInCU: 0x2FC08, offset: 0x4DDCB, size: 0x8, addend: 0x0, symName: __ZNSt3__119__allocate_at_leastB8ue170006INS_9allocatorINS_4pairIccEEEEEENS_19__allocation_resultINS_16allocator_traitsIT_E7pointerEEERS7_m, symObjAddr: 0x2E7E0, symBinAddr: 0x1000333E0, symSize: 0x40 }
  - { offsetInCU: 0x2FC4B, offset: 0x4DE0E, size: 0x8, addend: 0x0, symName: __ZNSt3__142__uninitialized_allocator_move_if_noexceptB8ue170006INS_9allocatorINS_4pairIccEEEENS_16reverse_iteratorIPS3_EES7_S7_EET2_RT_T0_T1_S8_, symObjAddr: 0x2E970, symBinAddr: 0x100033570, symSize: 0x180 }
  - { offsetInCU: 0x2FCEA, offset: 0x4DEAD, size: 0x8, addend: 0x0, symName: __ZNSt3__14swapB8ue170006IPNS_4pairIccEEEENS_9enable_ifIXaasr21is_move_constructibleIT_EE5valuesr18is_move_assignableIS5_EE5valueEvE4typeERS5_S8_, symObjAddr: 0x2EB40, symBinAddr: 0x100033740, symSize: 0x40 }
  - { offsetInCU: 0x2FD3B, offset: 0x4DEFE, size: 0x8, addend: 0x0, symName: __ZNSt3__122__make_exception_guardB8ue170006INS_29_AllocatorDestroyRangeReverseINS_9allocatorINS_4pairIccEEEENS_16reverse_iteratorIPS4_EEEEEENS_28__exception_guard_exceptionsIT_EESB_, symObjAddr: 0x2EC30, symBinAddr: 0x100033830, symSize: 0x60 }
  - { offsetInCU: 0x2FD70, offset: 0x4DF33, size: 0x8, addend: 0x0, symName: __ZNSt3__1neB8ue170006IPNS_4pairIccEES3_EEbRKNS_16reverse_iteratorIT_EERKNS4_IT0_EE, symObjAddr: 0x2ECD0, symBinAddr: 0x1000338D0, symSize: 0x40 }
  - { offsetInCU: 0x2FDBC, offset: 0x4DF7F, size: 0x8, addend: 0x0, symName: __ZNSt3__112__to_addressB8ue170006INS_16reverse_iteratorIPNS_4pairIccEEEEvEEu7__decayIDTclsr19__to_address_helperIT_EE6__callclsr3stdE7declvalIRKS6_EEEEES8_, symObjAddr: 0x2ED10, symBinAddr: 0x100033910, symSize: 0x20 }
  - { offsetInCU: 0x2FE1C, offset: 0x4DFDF, size: 0x8, addend: 0x0, symName: __ZNSt3__119__allocator_destroyB8ue170006INS_9allocatorINS_4pairIccEEEENS_16reverse_iteratorINS5_IPS3_EEEES8_EEvRT_T0_T1_, symObjAddr: 0x2F000, symBinAddr: 0x100033C00, symSize: 0x70 }
  - { offsetInCU: 0x2FE7E, offset: 0x4E041, size: 0x8, addend: 0x0, symName: __ZNSt3__1neB8ue170006INS_16reverse_iteratorIPNS_4pairIccEEEES5_EEbRKNS1_IT_EERKNS1_IT0_EE, symObjAddr: 0x2F0A0, symBinAddr: 0x100033CA0, symSize: 0x50 }
  - { offsetInCU: 0x2FECA, offset: 0x4E08D, size: 0x8, addend: 0x0, symName: __ZNSt3__112__to_addressB8ue170006INS_16reverse_iteratorINS1_IPNS_4pairIccEEEEEEvEEu7__decayIDTclsr19__to_address_helperIT_EE6__callclsr3stdE7declvalIRKS7_EEEEES9_, symObjAddr: 0x2F0F0, symBinAddr: 0x100033CF0, symSize: 0x20 }
  - { offsetInCU: 0x30036, offset: 0x4E1F9, size: 0x8, addend: 0x0, symName: __ZNSt3__119__throw_regex_errorB8ue170006ILNS_15regex_constants10error_typeE8EEEvv, symObjAddr: 0x2FC30, symBinAddr: 0x100034830, symSize: 0x60 }
  - { offsetInCU: 0x3005B, offset: 0x4E21E, size: 0x8, addend: 0x0, symName: __ZNSt3__119__throw_regex_errorB8ue170006ILNS_15regex_constants10error_typeE7EEEvv, symObjAddr: 0x2FC90, symBinAddr: 0x100034890, symSize: 0x60 }
  - { offsetInCU: 0x309A4, offset: 0x4EB67, size: 0x8, addend: 0x0, symName: __ZNSt3__119__throw_regex_errorB8ue170006ILNS_15regex_constants10error_typeE15EEEvv, symObjAddr: 0x30AE0, symBinAddr: 0x1000356E0, symSize: 0x60 }
  - { offsetInCU: 0x30A3C, offset: 0x4EBFF, size: 0x8, addend: 0x0, symName: __ZNSt3__14findB8ue170006IPKccEET_S3_S3_RKT0_, symObjAddr: 0x31EE0, symBinAddr: 0x100036AE0, symSize: 0x60 }
  - { offsetInCU: 0x30AA4, offset: 0x4EC67, size: 0x8, addend: 0x0, symName: __ZNSt3__113regex_replaceB8ue170006INS_20back_insert_iteratorINS_12basic_stringIcNS_11char_traitsIcEENS_9allocatorIcEEEEEENS_11__wrap_iterIPKcEENS_12regex_traitsIcEEcEET_SF_T0_SG_RKNS_11basic_regexIT2_T1_EEPKSI_NS_15regex_constants15match_flag_typeE, symObjAddr: 0x31F40, symBinAddr: 0x100036B40, symSize: 0x440 }
  - { offsetInCU: 0x30BA9, offset: 0x4ED6C, size: 0x8, addend: 0x0, symName: __ZNSt3__113back_inserterB8ue170006INS_12basic_stringIcNS_11char_traitsIcEENS_9allocatorIcEEEEEENS_20back_insert_iteratorIT_EERS8_, symObjAddr: 0x32380, symBinAddr: 0x100036F80, symSize: 0x30 }
  - { offsetInCU: 0x310E3, offset: 0x4F2A6, size: 0x8, addend: 0x0, symName: __ZNSt3__14copyB8ue170006INS_11__wrap_iterIPKcEENS_20back_insert_iteratorINS_12basic_stringIcNS_11char_traitsIcEENS_9allocatorIcEEEEEEEET0_T_SE_SD_, symObjAddr: 0x32610, symBinAddr: 0x100037210, symSize: 0x60 }
  - { offsetInCU: 0x31149, offset: 0x4F30C, size: 0x8, addend: 0x0, symName: __ZNSt3__112regex_searchB8ue170006IPKcNS_9allocatorINS_9sub_matchINS_11__wrap_iterIS2_EEEEEEcNS_12regex_traitsIcEEEEbNS5_IT_EESC_RNS_13match_resultsISC_T0_EERKNS_11basic_regexIT1_T2_EENS_15regex_constants15match_flag_typeE, symObjAddr: 0x33080, symBinAddr: 0x100037C80, symSize: 0x150 }
  - { offsetInCU: 0x311F7, offset: 0x4F3BA, size: 0x8, addend: 0x0, symName: __ZNSt3__112__to_addressB8ue170006INS_9sub_matchINS_11__wrap_iterIPKcEEEEEEPT_S8_, symObjAddr: 0x337B0, symBinAddr: 0x1000383B0, symSize: 0x10 }
  - { offsetInCU: 0x315D1, offset: 0x4F794, size: 0x8, addend: 0x0, symName: __ZNSt3__14swapB8ue170006IPPNS_7__stateIcEEEENS_9enable_ifIXaasr21is_move_constructibleIT_EE5valuesr18is_move_assignableIS6_EE5valueEvE4typeERS6_S9_, symObjAddr: 0x37210, symBinAddr: 0x10003BE10, symSize: 0x40 }
  - { offsetInCU: 0x31622, offset: 0x4F7E5, size: 0x8, addend: 0x0, symName: __ZNSt3__14moveB8ue170006IPPNS_7__stateIcEES4_EET0_T_S6_S5_, symObjAddr: 0x37320, symBinAddr: 0x10003BF20, symSize: 0x40 }
  - { offsetInCU: 0x3167C, offset: 0x4F83F, size: 0x8, addend: 0x0, symName: __ZNSt3__112__to_addressB8ue170006IPNS_7__stateIcEEEEPT_S5_, symObjAddr: 0x37420, symBinAddr: 0x10003C020, symSize: 0x10 }
  - { offsetInCU: 0x316B1, offset: 0x4F874, size: 0x8, addend: 0x0, symName: __ZNSt3__16__moveB8ue170006INS_17_ClassicAlgPolicyEPPNS_7__stateIcEES5_S5_EENS_4pairIT0_T2_EES7_T1_S8_, symObjAddr: 0x37430, symBinAddr: 0x10003C030, symSize: 0x40 }
  - { offsetInCU: 0x3171D, offset: 0x4F8E0, size: 0x8, addend: 0x0, symName: __ZNSt3__123__dispatch_copy_or_moveB8ue170006INS_17_ClassicAlgPolicyENS_11__move_loopIS1_EENS_14__move_trivialEPPNS_7__stateIcEES8_S8_EENS_4pairIT2_T4_EESA_T3_SB_, symObjAddr: 0x37470, symBinAddr: 0x10003C070, symSize: 0x40 }
  - { offsetInCU: 0x3179B, offset: 0x4F95E, size: 0x8, addend: 0x0, symName: __ZNSt3__121__unwrap_and_dispatchB8ue170006INS_10__overloadINS_11__move_loopINS_17_ClassicAlgPolicyEEENS_14__move_trivialEEEPPNS_7__stateIcEESA_SA_Li0EEENS_4pairIT0_T2_EESC_T1_SD_, symObjAddr: 0x374B0, symBinAddr: 0x10003C0B0, symSize: 0xB0 }
  - { offsetInCU: 0x3182A, offset: 0x4F9ED, size: 0x8, addend: 0x0, symName: __ZNSt3__114__unwrap_rangeB8ue170006IPPNS_7__stateIcEES4_EENS_4pairIT0_S6_EET_S8_, symObjAddr: 0x37560, symBinAddr: 0x10003C160, symSize: 0x50 }
  - { offsetInCU: 0x31A2A, offset: 0x4FBED, size: 0x8, addend: 0x0, symName: __ZNSt3__113__unwrap_iterB8ue170006IPPNS_7__stateIcEENS_18__unwrap_iter_implIS4_Lb1EEELi0EEEDTclsrT0_8__unwrapclsr3stdE7declvalIT_EEEES8_, symObjAddr: 0x375F0, symBinAddr: 0x10003C1F0, symSize: 0x20 }
  - { offsetInCU: 0x31A6E, offset: 0x4FC31, size: 0x8, addend: 0x0, symName: __ZNSt3__19make_pairB8ue170006IPPNS_7__stateIcEES4_EENS_4pairINS_18__unwrap_ref_decayIT_E4typeENS6_IT0_E4typeEEEOS7_OSA_, symObjAddr: 0x37610, symBinAddr: 0x10003C210, symSize: 0x30 }
  - { offsetInCU: 0x31ABD, offset: 0x4FC80, size: 0x8, addend: 0x0, symName: __ZNSt3__114__rewrap_rangeB8ue170006IPPNS_7__stateIcEES4_EET_S5_T0_, symObjAddr: 0x37640, symBinAddr: 0x10003C240, symSize: 0x30 }
  - { offsetInCU: 0x31B09, offset: 0x4FCCC, size: 0x8, addend: 0x0, symName: __ZNSt3__113__rewrap_iterB8ue170006IPPNS_7__stateIcEES4_NS_18__unwrap_iter_implIS4_Lb1EEEEET_S7_T0_, symObjAddr: 0x37670, symBinAddr: 0x10003C270, symSize: 0x40 }
  - { offsetInCU: 0x31B5E, offset: 0x4FD21, size: 0x8, addend: 0x0, symName: __ZNSt3__119__copy_trivial_implB8ue170006IPNS_7__stateIcEES3_EENS_4pairIPT_PT0_EES6_S6_S8_, symObjAddr: 0x376B0, symBinAddr: 0x10003C2B0, symSize: 0x70 }
  - { offsetInCU: 0x31BC6, offset: 0x4FD89, size: 0x8, addend: 0x0, symName: __ZNSt3__119__constexpr_memmoveB8ue170006IPNS_7__stateIcEES3_Li0EEEPT_S5_PT0_NS_15__element_countE, symObjAddr: 0x37720, symBinAddr: 0x10003C320, symSize: 0x50 }
  - { offsetInCU: 0x31C34, offset: 0x4FDF7, size: 0x8, addend: 0x0, symName: __ZNSt3__19make_pairB8ue170006IRPPNS_7__stateIcEES4_EENS_4pairINS_18__unwrap_ref_decayIT_E4typeENS7_IT0_E4typeEEEOS8_OSB_, symObjAddr: 0x37770, symBinAddr: 0x10003C370, symSize: 0x30 }
  - { offsetInCU: 0x31CD6, offset: 0x4FE99, size: 0x8, addend: 0x0, symName: __ZNSt3__18distanceB8ue170006INS_13move_iteratorIPPNS_7__stateIcEEEEEENS_15iterator_traitsIT_E15difference_typeES8_S8_, symObjAddr: 0x379B0, symBinAddr: 0x10003C5B0, symSize: 0x40 }
  - { offsetInCU: 0x31D19, offset: 0x4FEDC, size: 0x8, addend: 0x0, symName: __ZNSt3__110__distanceB8ue170006INS_13move_iteratorIPPNS_7__stateIcEEEEEENS_15iterator_traitsIT_E15difference_typeES8_S8_NS_26random_access_iterator_tagE, symObjAddr: 0x37B90, symBinAddr: 0x10003C790, symSize: 0x30 }
  - { offsetInCU: 0x31D66, offset: 0x4FF29, size: 0x8, addend: 0x0, symName: __ZNSt3__1miB8ue170006IPPNS_7__stateIcEES4_EEDTmicldtfp_4baseEcldtfp0_4baseEERKNS_13move_iteratorIT_EERKNS6_IT0_EE, symObjAddr: 0x37BC0, symBinAddr: 0x10003C7C0, symSize: 0x40 }
  - { offsetInCU: 0x31DB5, offset: 0x4FF78, size: 0x8, addend: 0x0, symName: __ZNSt3__113move_backwardB8ue170006IPPNS_7__stateIcEES4_EET0_T_S6_S5_, symObjAddr: 0x37CB0, symBinAddr: 0x10003C8B0, symSize: 0x40 }
  - { offsetInCU: 0x31E0F, offset: 0x4FFD2, size: 0x8, addend: 0x0, symName: __ZNSt3__115__move_backwardB8ue170006INS_17_ClassicAlgPolicyEPPNS_7__stateIcEES5_S5_EENS_4pairIT0_T2_EES7_T1_S8_, symObjAddr: 0x37CF0, symBinAddr: 0x10003C8F0, symSize: 0x40 }
  - { offsetInCU: 0x31E7B, offset: 0x5003E, size: 0x8, addend: 0x0, symName: __ZNSt3__123__dispatch_copy_or_moveB8ue170006INS_17_ClassicAlgPolicyENS_20__move_backward_loopIS1_EENS_23__move_backward_trivialEPPNS_7__stateIcEES8_S8_EENS_4pairIT2_T4_EESA_T3_SB_, symObjAddr: 0x37D30, symBinAddr: 0x10003C930, symSize: 0x40 }
  - { offsetInCU: 0x31EF9, offset: 0x500BC, size: 0x8, addend: 0x0, symName: __ZNSt3__121__unwrap_and_dispatchB8ue170006INS_10__overloadINS_20__move_backward_loopINS_17_ClassicAlgPolicyEEENS_23__move_backward_trivialEEEPPNS_7__stateIcEESA_SA_Li0EEENS_4pairIT0_T2_EESC_T1_SD_, symObjAddr: 0x37D70, symBinAddr: 0x10003C970, symSize: 0xB0 }
  - { offsetInCU: 0x31FCE, offset: 0x50191, size: 0x8, addend: 0x0, symName: __ZNSt3__128__copy_backward_trivial_implB8ue170006IPNS_7__stateIcEES3_EENS_4pairIPT_PT0_EES6_S6_S8_, symObjAddr: 0x37E60, symBinAddr: 0x10003CA60, symSize: 0x70 }
  - { offsetInCU: 0x32036, offset: 0x501F9, size: 0x8, addend: 0x0, symName: __ZNSt3__19make_pairB8ue170006IRPPNS_7__stateIcEES5_EENS_4pairINS_18__unwrap_ref_decayIT_E4typeENS7_IT0_E4typeEEEOS8_OSB_, symObjAddr: 0x37ED0, symBinAddr: 0x10003CAD0, symSize: 0x30 }
  - { offsetInCU: 0x32085, offset: 0x50248, size: 0x8, addend: 0x0, symName: __ZNSt3__119__allocate_at_leastB8ue170006INS_9allocatorIPNS_7__stateIcEEEEEENS_19__allocation_resultINS_16allocator_traitsIT_E7pointerEEERS8_m, symObjAddr: 0x380D0, symBinAddr: 0x10003CCD0, symSize: 0x40 }
  - { offsetInCU: 0x320C8, offset: 0x5028B, size: 0x8, addend: 0x0, symName: __ZNSt3__1neB8ue170006ERKNS_16__deque_iteratorINS_7__stateIcEEPS2_RS2_PS3_lLl42EEES8_, symObjAddr: 0x38B80, symBinAddr: 0x10003D780, symSize: 0x30 }
  - { offsetInCU: 0x32105, offset: 0x502C8, size: 0x8, addend: 0x0, symName: __ZNSt3__1eqB8ue170006ERKNS_16__deque_iteratorINS_7__stateIcEEPS2_RS2_PS3_lLl42EEES8_, symObjAddr: 0x38C10, symBinAddr: 0x10003D810, symSize: 0x30 }
  - { offsetInCU: 0x32142, offset: 0x50305, size: 0x8, addend: 0x0, symName: __ZNSt3__18distanceB8ue170006IPNS_9sub_matchIPKcEEEENS_15iterator_traitsIT_E15difference_typeES7_S7_, symObjAddr: 0x39AE0, symBinAddr: 0x10003E6E0, symSize: 0x30 }
  - { offsetInCU: 0x32185, offset: 0x50348, size: 0x8, addend: 0x0, symName: __ZNSt3__14nextB8ue170006IPNS_9sub_matchIPKcEEEENS_9enable_ifIXsr29__has_input_iterator_categoryIT_EE5valueES7_E4typeES7_NS_15iterator_traitsIS7_E15difference_typeE, symObjAddr: 0x39B10, symBinAddr: 0x10003E710, symSize: 0x30 }
  - { offsetInCU: 0x321C8, offset: 0x5038B, size: 0x8, addend: 0x0, symName: __ZNSt3__14copyB8ue170006IPNS_9sub_matchIPKcEES5_EET0_T_S7_S6_, symObjAddr: 0x39B40, symBinAddr: 0x10003E740, symSize: 0x40 }
  - { offsetInCU: 0x32222, offset: 0x503E5, size: 0x8, addend: 0x0, symName: __ZNSt3__16__copyB8ue170006INS_17_ClassicAlgPolicyEPNS_9sub_matchIPKcEES6_S6_EENS_4pairIT0_T2_EES8_T1_S9_, symObjAddr: 0x39B80, symBinAddr: 0x10003E780, symSize: 0x40 }
  - { offsetInCU: 0x3228E, offset: 0x50451, size: 0x8, addend: 0x0, symName: __ZNSt3__19__advanceB8ue170006IPNS_9sub_matchIPKcEEEEvRT_NS_15iterator_traitsIS6_E15difference_typeENS_26random_access_iterator_tagE, symObjAddr: 0x39BF0, symBinAddr: 0x10003E7F0, symSize: 0x20 }
  - { offsetInCU: 0x322D7, offset: 0x5049A, size: 0x8, addend: 0x0, symName: __ZNSt3__123__dispatch_copy_or_moveB8ue170006INS_17_ClassicAlgPolicyENS_11__copy_loopIS1_EENS_14__copy_trivialEPNS_9sub_matchIPKcEES9_S9_EENS_4pairIT2_T4_EESB_T3_SC_, symObjAddr: 0x39C10, symBinAddr: 0x10003E810, symSize: 0x40 }
  - { offsetInCU: 0x32355, offset: 0x50518, size: 0x8, addend: 0x0, symName: __ZNSt3__121__unwrap_and_dispatchB8ue170006INS_10__overloadINS_11__copy_loopINS_17_ClassicAlgPolicyEEENS_14__copy_trivialEEEPNS_9sub_matchIPKcEESB_SB_Li0EEENS_4pairIT0_T2_EESD_T1_SE_, symObjAddr: 0x39C50, symBinAddr: 0x10003E850, symSize: 0xB0 }
  - { offsetInCU: 0x324B4, offset: 0x50677, size: 0x8, addend: 0x0, symName: __ZNSt3__114__rewrap_rangeB8ue170006IPNS_9sub_matchIPKcEES5_EET_S6_T0_, symObjAddr: 0x39D80, symBinAddr: 0x10003E980, symSize: 0x30 }
  - { offsetInCU: 0x32500, offset: 0x506C3, size: 0x8, addend: 0x0, symName: __ZNSt3__110__distanceB8ue170006IPNS_9sub_matchIPKcEEEENS_15iterator_traitsIT_E15difference_typeES7_S7_NS_26random_access_iterator_tagE, symObjAddr: 0x39DB0, symBinAddr: 0x10003E9B0, symSize: 0x30 }
  - { offsetInCU: 0x3254D, offset: 0x50710, size: 0x8, addend: 0x0, symName: __ZNSt3__18distanceB8ue170006IPNS_4pairImPKcEEEENS_15iterator_traitsIT_E15difference_typeES7_S7_, symObjAddr: 0x39FE0, symBinAddr: 0x10003EBE0, symSize: 0x30 }
  - { offsetInCU: 0x32590, offset: 0x50753, size: 0x8, addend: 0x0, symName: __ZNSt3__14nextB8ue170006IPNS_4pairImPKcEEEENS_9enable_ifIXsr29__has_input_iterator_categoryIT_EE5valueES7_E4typeES7_NS_15iterator_traitsIS7_E15difference_typeE, symObjAddr: 0x3A010, symBinAddr: 0x10003EC10, symSize: 0x30 }
  - { offsetInCU: 0x325D3, offset: 0x50796, size: 0x8, addend: 0x0, symName: __ZNSt3__14copyB8ue170006IPNS_4pairImPKcEES5_EET0_T_S7_S6_, symObjAddr: 0x3A040, symBinAddr: 0x10003EC40, symSize: 0x40 }
  - { offsetInCU: 0x3262D, offset: 0x507F0, size: 0x8, addend: 0x0, symName: __ZNSt3__16__copyB8ue170006INS_17_ClassicAlgPolicyEPNS_4pairImPKcEES6_S6_EENS2_IT0_T2_EES7_T1_S8_, symObjAddr: 0x3A080, symBinAddr: 0x10003EC80, symSize: 0x40 }
  - { offsetInCU: 0x32699, offset: 0x5085C, size: 0x8, addend: 0x0, symName: __ZNSt3__19__advanceB8ue170006IPNS_4pairImPKcEEEEvRT_NS_15iterator_traitsIS6_E15difference_typeENS_26random_access_iterator_tagE, symObjAddr: 0x3A180, symBinAddr: 0x10003ED80, symSize: 0x20 }
  - { offsetInCU: 0x326E2, offset: 0x508A5, size: 0x8, addend: 0x0, symName: __ZNSt3__123__dispatch_copy_or_moveB8ue170006INS_17_ClassicAlgPolicyENS_11__copy_loopIS1_EENS_14__copy_trivialEPNS_4pairImPKcEES9_S9_EENS5_IT2_T4_EESA_T3_SB_, symObjAddr: 0x3A1A0, symBinAddr: 0x10003EDA0, symSize: 0x40 }
  - { offsetInCU: 0x32760, offset: 0x50923, size: 0x8, addend: 0x0, symName: __ZNSt3__121__unwrap_and_dispatchB8ue170006INS_10__overloadINS_11__copy_loopINS_17_ClassicAlgPolicyEEENS_14__copy_trivialEEEPNS_4pairImPKcEESB_SB_Li0EEENS7_IT0_T2_EESC_T1_SD_, symObjAddr: 0x3A1E0, symBinAddr: 0x10003EDE0, symSize: 0xB0 }
  - { offsetInCU: 0x327EF, offset: 0x509B2, size: 0x8, addend: 0x0, symName: __ZNSt3__114__rewrap_rangeB8ue170006IPNS_4pairImPKcEES5_EET_S6_T0_, symObjAddr: 0x3A310, symBinAddr: 0x10003EF10, symSize: 0x30 }
  - { offsetInCU: 0x3283B, offset: 0x509FE, size: 0x8, addend: 0x0, symName: __ZNSt3__110__distanceB8ue170006IPNS_4pairImPKcEEEENS_15iterator_traitsIT_E15difference_typeES7_S7_NS_26random_access_iterator_tagE, symObjAddr: 0x3A3B0, symBinAddr: 0x10003EFB0, symSize: 0x20 }
  - { offsetInCU: 0x32888, offset: 0x50A4B, size: 0x8, addend: 0x0, symName: __ZNSt3__14nextB8ue170006INS_11__wrap_iterIPKcEEEENS_9enable_ifIXsr29__has_input_iterator_categoryIT_EE5valueES6_E4typeES6_NS_15iterator_traitsIS6_E15difference_typeE, symObjAddr: 0x3A490, symBinAddr: 0x10003F090, symSize: 0x30 }
  - { offsetInCU: 0x328CB, offset: 0x50A8E, size: 0x8, addend: 0x0, symName: __ZNSt3__119__allocate_at_leastB8ue170006INS_9allocatorINS_9sub_matchINS_11__wrap_iterIPKcEEEEEEEENS_19__allocation_resultINS_16allocator_traitsIT_E7pointerEEERSB_m, symObjAddr: 0x3AD50, symBinAddr: 0x10003F950, symSize: 0x40 }
  - { offsetInCU: 0x3290E, offset: 0x50AD1, size: 0x8, addend: 0x0, symName: __ZNSt3__142__uninitialized_allocator_move_if_noexceptB8ue170006INS_9allocatorINS_9sub_matchINS_11__wrap_iterIPKcEEEEEENS_16reverse_iteratorIPS7_EESB_SB_EET2_RT_T0_T1_SC_, symObjAddr: 0x3AF90, symBinAddr: 0x10003FB90, symSize: 0x180 }
  - { offsetInCU: 0x329AD, offset: 0x50B70, size: 0x8, addend: 0x0, symName: __ZNSt3__14swapB8ue170006IPNS_9sub_matchINS_11__wrap_iterIPKcEEEEEENS_9enable_ifIXaasr21is_move_constructibleIT_EE5valuesr18is_move_assignableIS9_EE5valueEvE4typeERS9_SC_, symObjAddr: 0x3B160, symBinAddr: 0x10003FD60, symSize: 0x40 }
  - { offsetInCU: 0x329FE, offset: 0x50BC1, size: 0x8, addend: 0x0, symName: __ZNSt3__122__make_exception_guardB8ue170006INS_29_AllocatorDestroyRangeReverseINS_9allocatorINS_9sub_matchINS_11__wrap_iterIPKcEEEEEENS_16reverse_iteratorIPS8_EEEEEENS_28__exception_guard_exceptionsIT_EESF_, symObjAddr: 0x3B240, symBinAddr: 0x10003FE40, symSize: 0x60 }
  - { offsetInCU: 0x32A33, offset: 0x50BF6, size: 0x8, addend: 0x0, symName: __ZNSt3__1neB8ue170006IPNS_9sub_matchINS_11__wrap_iterIPKcEEEES7_EEbRKNS_16reverse_iteratorIT_EERKNS8_IT0_EE, symObjAddr: 0x3B2E0, symBinAddr: 0x10003FEE0, symSize: 0x40 }
  - { offsetInCU: 0x32A7F, offset: 0x50C42, size: 0x8, addend: 0x0, symName: __ZNSt3__112__to_addressB8ue170006INS_16reverse_iteratorIPNS_9sub_matchINS_11__wrap_iterIPKcEEEEEEvEEu7__decayIDTclsr19__to_address_helperIT_EE6__callclsr3stdE7declvalIRKSA_EEEEESC_, symObjAddr: 0x3B350, symBinAddr: 0x10003FF50, symSize: 0x20 }
  - { offsetInCU: 0x32ADF, offset: 0x50CA2, size: 0x8, addend: 0x0, symName: __ZNSt3__119__allocator_destroyB8ue170006INS_9allocatorINS_9sub_matchINS_11__wrap_iterIPKcEEEEEENS_16reverse_iteratorINS9_IPS7_EEEESC_EEvRT_T0_T1_, symObjAddr: 0x3B670, symBinAddr: 0x100040270, symSize: 0x70 }
  - { offsetInCU: 0x32B41, offset: 0x50D04, size: 0x8, addend: 0x0, symName: __ZNSt3__1neB8ue170006INS_16reverse_iteratorIPNS_9sub_matchINS_11__wrap_iterIPKcEEEEEES9_EEbRKNS1_IT_EERKNS1_IT0_EE, symObjAddr: 0x3B710, symBinAddr: 0x100040310, symSize: 0x50 }
  - { offsetInCU: 0x32B8D, offset: 0x50D50, size: 0x8, addend: 0x0, symName: __ZNSt3__112__to_addressB8ue170006INS_16reverse_iteratorINS1_IPNS_9sub_matchINS_11__wrap_iterIPKcEEEEEEEEvEEu7__decayIDTclsr19__to_address_helperIT_EE6__callclsr3stdE7declvalIRKSB_EEEEESD_, symObjAddr: 0x3B760, symBinAddr: 0x100040360, symSize: 0x20 }
  - { offsetInCU: 0x32BEC, offset: 0x50DAF, size: 0x8, addend: 0x0, symName: __ZNSt3__19__advanceB8ue170006INS_11__wrap_iterIPKcEEEEvRT_NS_15iterator_traitsIS5_E15difference_typeENS_26random_access_iterator_tagE, symObjAddr: 0x3BB90, symBinAddr: 0x100040790, symSize: 0x30 }
  - { offsetInCU: 0x32C35, offset: 0x50DF8, size: 0x8, addend: 0x0, symName: __ZNSt3__1eqB8ue170006INS_11__wrap_iterIPKcEEEEbRKNS_9sub_matchIT_EES9_, symObjAddr: 0x3BC60, symBinAddr: 0x100040860, symSize: 0x30 }
  - { offsetInCU: 0x32C7B, offset: 0x50E3E, size: 0x8, addend: 0x0, symName: __ZNSt3__18distanceB8ue170006INS_11__wrap_iterIPKcEEEENS_15iterator_traitsIT_E15difference_typeES6_S6_, symObjAddr: 0x3BF00, symBinAddr: 0x100040B00, symSize: 0x40 }
  - { offsetInCU: 0x32CBE, offset: 0x50E81, size: 0x8, addend: 0x0, symName: __ZNSt3__110__distanceB8ue170006INS_11__wrap_iterIPKcEEEENS_15iterator_traitsIT_E15difference_typeES6_S6_NS_26random_access_iterator_tagE, symObjAddr: 0x3C0A0, symBinAddr: 0x100040CA0, symSize: 0x30 }
  - { offsetInCU: 0x32D0B, offset: 0x50ECE, size: 0x8, addend: 0x0, symName: __ZNSt3__1miB8ue170006IPKcS2_EEDTmicldtfp_4baseEcldtfp0_4baseEERKNS_11__wrap_iterIT_EERKNS4_IT0_EE, symObjAddr: 0x3C0D0, symBinAddr: 0x100040CD0, symSize: 0x40 }
  - { offsetInCU: 0x32D57, offset: 0x50F1A, size: 0x8, addend: 0x0, symName: __ZNSt3__16__copyB8ue170006INS_17_ClassicAlgPolicyENS_11__wrap_iterIPKcEES5_NS_20back_insert_iteratorINS_12basic_stringIcNS_11char_traitsIcEENS_9allocatorIcEEEEEEEENS_4pairIT0_T2_EESF_T1_SG_, symObjAddr: 0x3C170, symBinAddr: 0x100040D70, symSize: 0x60 }
  - { offsetInCU: 0x32DC3, offset: 0x50F86, size: 0x8, addend: 0x0, symName: __ZNSt3__123__dispatch_copy_or_moveB8ue170006INS_17_ClassicAlgPolicyENS_11__copy_loopIS1_EENS_14__copy_trivialENS_11__wrap_iterIPKcEES8_NS_20back_insert_iteratorINS_12basic_stringIcNS_11char_traitsIcEENS_9allocatorIcEEEEEEEENS_4pairIT2_T4_EESI_T3_SJ_, symObjAddr: 0x3C1D0, symBinAddr: 0x100040DD0, symSize: 0x60 }
  - { offsetInCU: 0x32E41, offset: 0x51004, size: 0x8, addend: 0x0, symName: __ZNSt3__121__unwrap_and_dispatchB8ue170006INS_10__overloadINS_11__copy_loopINS_17_ClassicAlgPolicyEEENS_14__copy_trivialEEENS_11__wrap_iterIPKcEESA_NS_20back_insert_iteratorINS_12basic_stringIcNS_11char_traitsIcEENS_9allocatorIcEEEEEELi0EEENS_4pairIT0_T2_EESK_T1_SL_, symObjAddr: 0x3C230, symBinAddr: 0x100040E30, symSize: 0x100 }
  - { offsetInCU: 0x32ED0, offset: 0x51093, size: 0x8, addend: 0x0, symName: __ZNSt3__114__unwrap_rangeB8ue170006INS_11__wrap_iterIPKcEES3_EENS_4pairIT0_S6_EET_S8_, symObjAddr: 0x3C330, symBinAddr: 0x100040F30, symSize: 0x60 }
  - { offsetInCU: 0x32FF0, offset: 0x511B3, size: 0x8, addend: 0x0, symName: __ZNSt3__113__unwrap_iterB8ue170006INS_20back_insert_iteratorINS_12basic_stringIcNS_11char_traitsIcEENS_9allocatorIcEEEEEENS_18__unwrap_iter_implIS8_Lb0EEELi0EEEDTclsrT0_8__unwrapclsr3stdE7declvalIT_EEEESC_, symObjAddr: 0x3C410, symBinAddr: 0x100041010, symSize: 0x30 }
  - { offsetInCU: 0x33034, offset: 0x511F7, size: 0x8, addend: 0x0, symName: __ZNSt3__19make_pairB8ue170006INS_11__wrap_iterIPKcEENS_20back_insert_iteratorINS_12basic_stringIcNS_11char_traitsIcEENS_9allocatorIcEEEEEEEENS_4pairINS_18__unwrap_ref_decayIT_E4typeENSE_IT0_E4typeEEEOSF_OSI_, symObjAddr: 0x3C440, symBinAddr: 0x100041040, symSize: 0x30 }
  - { offsetInCU: 0x33083, offset: 0x51246, size: 0x8, addend: 0x0, symName: __ZNSt3__114__rewrap_rangeB8ue170006INS_11__wrap_iterIPKcEES3_EET_S5_T0_, symObjAddr: 0x3C470, symBinAddr: 0x100041070, symSize: 0x40 }
  - { offsetInCU: 0x330CF, offset: 0x51292, size: 0x8, addend: 0x0, symName: __ZNSt3__113__rewrap_iterB8ue170006INS_20back_insert_iteratorINS_12basic_stringIcNS_11char_traitsIcEENS_9allocatorIcEEEEEES8_NS_18__unwrap_iter_implIS8_Lb0EEEEET_SB_T0_, symObjAddr: 0x3C4B0, symBinAddr: 0x1000410B0, symSize: 0x50 }
  - { offsetInCU: 0x33124, offset: 0x512E7, size: 0x8, addend: 0x0, symName: __ZNSt3__19make_pairB8ue170006IPKcNS_20back_insert_iteratorINS_12basic_stringIcNS_11char_traitsIcEENS_9allocatorIcEEEEEEEENS_4pairINS_18__unwrap_ref_decayIT_E4typeENSC_IT0_E4typeEEEOSD_OSG_, symObjAddr: 0x3C560, symBinAddr: 0x100041160, symSize: 0x30 }
  - { offsetInCU: 0x3328F, offset: 0x51452, size: 0x8, addend: 0x0, symName: __ZNSt3__16searchB8ue170006INS_11__wrap_iterIPKcEEPcEET_S6_S6_T0_S7_, symObjAddr: 0x40D70, symBinAddr: 0x100045970, symSize: 0x50 }
  - { offsetInCU: 0x332F7, offset: 0x514BA, size: 0x8, addend: 0x0, symName: __ZNSt3__16searchB8ue170006INS_11__wrap_iterIPKcEEPcNS_10__equal_toEEET_S7_S7_T0_S8_T1_, symObjAddr: 0x40E10, symBinAddr: 0x100045A10, symSize: 0x80 }
  - { offsetInCU: 0x33384, offset: 0x51547, size: 0x8, addend: 0x0, symName: __ZNSt3__113__search_implB8ue170006INS_11__wrap_iterIPKcEES4_PcS5_NS_10__equal_toENS_10__identityES7_EENS_4pairIT_S9_EES9_T0_T1_T2_RT3_RT4_RT5_PNS_9enable_ifIXaasr37__has_random_access_iterator_categoryIS9_EE5valuesr37__has_random_access_iterator_categoryISC_EE5valueEvE4typeE, symObjAddr: 0x40E90, symBinAddr: 0x100045A90, symSize: 0x100 }
  - { offsetInCU: 0x3346B, offset: 0x5162E, size: 0x8, addend: 0x0, symName: __ZNSt3__19make_pairB8ue170006IRNS_11__wrap_iterIPKcEES5_EENS_4pairINS_18__unwrap_ref_decayIT_E4typeENS7_IT0_E4typeEEEOS8_OSB_, symObjAddr: 0x40F90, symBinAddr: 0x100045B90, symSize: 0x30 }
  - { offsetInCU: 0x334BA, offset: 0x5167D, size: 0x8, addend: 0x0, symName: __ZNSt3__127__search_random_access_implB8ue170006INS_17_ClassicAlgPolicyENS_11__wrap_iterIPKcEES5_PcS6_NS_10__equal_toENS_10__identityES8_llEENS_4pairIT0_SA_EESA_T1_T2_T3_RT4_RT5_RT6_T7_T8_, symObjAddr: 0x40FC0, symBinAddr: 0x100045BC0, symSize: 0x200 }
  - { offsetInCU: 0x335EB, offset: 0x517AE, size: 0x8, addend: 0x0, symName: __ZNSt3__19make_pairB8ue170006IRNS_11__wrap_iterIPKcEES4_EENS_4pairINS_18__unwrap_ref_decayIT_E4typeENS7_IT0_E4typeEEEOS8_OSB_, symObjAddr: 0x41270, symBinAddr: 0x100045E70, symSize: 0x30 }
  - { offsetInCU: 0x3363A, offset: 0x517FD, size: 0x8, addend: 0x0, symName: __ZNSt3__111regex_matchB8ue170006INS_11__wrap_iterIPKcEEcNS_12regex_traitsIcEEEEbT_S7_RKNS_11basic_regexIT0_T1_EENS_15regex_constants15match_flag_typeE, symObjAddr: 0x43060, symBinAddr: 0x100047C60, symSize: 0xC0 }
  - { offsetInCU: 0x336C0, offset: 0x51883, size: 0x8, addend: 0x0, symName: __ZNSt3__111regex_matchB8ue170006INS_11__wrap_iterIPKcEENS_9allocatorINS_9sub_matchIS4_EEEEcNS_12regex_traitsIcEEEEbT_SB_RNS_13match_resultsISB_T0_EERKNS_11basic_regexIT1_T2_EENS_15regex_constants15match_flag_typeE, symObjAddr: 0x43120, symBinAddr: 0x100047D20, symSize: 0xC0 }
  - { offsetInCU: 0x3375D, offset: 0x51920, size: 0x8, addend: 0x0, symName: __ZNSt3__113__lower_boundB8ue170006INS_17_ClassicAlgPolicyENS_11__wrap_iterIP4FileEES5_jNS_10__identityE12LowerFunctorEET0_S8_T1_RKT2_RT4_RT3_, symObjAddr: 0x431E0, symBinAddr: 0x100047DE0, symSize: 0x100 }
  - { offsetInCU: 0x33831, offset: 0x519F4, size: 0x8, addend: 0x0, symName: __ZNSt3__18__invokeB8ue170006IR12LowerFunctorJR4FileRKjEEEDTclclsr3stdE7declvalIT_EEspclsr3stdE7declvalIT0_EEEEOS7_DpOS8_, symObjAddr: 0x432E0, symBinAddr: 0x100047EE0, symSize: 0x40 }
  - { offsetInCU: 0x33896, offset: 0x51A59, size: 0x8, addend: 0x0, symName: __ZNSt3__113__upper_boundB8ue170006INS_17_ClassicAlgPolicyE12UpperFunctorNS_11__wrap_iterIP4FileEES6_jNS_10__identityEEET1_S8_T2_RKT3_OT0_OT4_, symObjAddr: 0x43350, symBinAddr: 0x100047F20, symSize: 0x100 }
  - { offsetInCU: 0x3396A, offset: 0x51B2D, size: 0x8, addend: 0x0, symName: __ZNSt3__18__invokeB8ue170006IR12UpperFunctorJRKjR4FileEEEDTclclsr3stdE7declvalIT_EEspclsr3stdE7declvalIT0_EEEEOS7_DpOS8_, symObjAddr: 0x43490, symBinAddr: 0x100048060, symSize: 0x40 }
  - { offsetInCU: 0x339CF, offset: 0x51B92, size: 0x8, addend: 0x0, symName: __ZNSt3__14nextB8ue170006INS_11__wrap_iterIP4FileEEEENS_9enable_ifIXsr29__has_input_iterator_categoryIT_EE5valueES6_E4typeES6_NS_15iterator_traitsIS6_E15difference_typeE, symObjAddr: 0x434D0, symBinAddr: 0x1000480A0, symSize: 0x30 }
  - { offsetInCU: 0x33A12, offset: 0x51BD5, size: 0x8, addend: 0x0, symName: __ZNSt3__113__rewrap_iterB8ue170006INS_11__wrap_iterIPjEES2_NS_18__unwrap_iter_implIS3_Lb1EEEEET_S6_T0_, symObjAddr: 0x43700, symBinAddr: 0x100048150, symSize: 0x50 }
  - { offsetInCU: 0x33A67, offset: 0x51C2A, size: 0x8, addend: 0x0, symName: __ZNSt3__111__find_implB8ue170006IPjS1_jNS_10__identityEEET_S3_T0_RKT1_RT2_, symObjAddr: 0x43750, symBinAddr: 0x1000481A0, symSize: 0x70 }
  - { offsetInCU: 0x33AE1, offset: 0x51CA4, size: 0x8, addend: 0x0, symName: __ZNSt3__113__unwrap_iterB8ue170006INS_11__wrap_iterIPjEENS_18__unwrap_iter_implIS3_Lb1EEELi0EEEDTclsrT0_8__unwrapclsr3stdE7declvalIT_EEEES7_, symObjAddr: 0x437C0, symBinAddr: 0x100048210, symSize: 0x30 }
  - { offsetInCU: 0x33B78, offset: 0x51D3B, size: 0x8, addend: 0x0, symName: __ZNSt3__112__to_addressB8ue170006INS_11__wrap_iterIPjEEvEEu7__decayIDTclsr19__to_address_helperIT_EE6__callclsr3stdE7declvalIRKS4_EEEEES6_, symObjAddr: 0x43880, symBinAddr: 0x1000482D0, symSize: 0x20 }
  - { offsetInCU: 0x33C53, offset: 0x51E16, size: 0x8, addend: 0x0, symName: __ZNSt3__18__invokeB8ue170006IRNS_10__identityEJRjEEEDTclclsr3stdE7declvalIT_EEspclsr3stdE7declvalIT0_EEEEOS4_DpOS5_, symObjAddr: 0x43920, symBinAddr: 0x100048370, symSize: 0x30 }
  - { offsetInCU: 0x33CA4, offset: 0x51E67, size: 0x8, addend: 0x0, symName: __ZNSt3__1neB8ue170006IPjEEbRKNS_11__wrap_iterIT_EES6_, symObjAddr: 0x439E0, symBinAddr: 0x1000483E0, symSize: 0x30 }
  - { offsetInCU: 0x33CE7, offset: 0x51EAA, size: 0x8, addend: 0x0, symName: __ZNSt3__1miB8ue170006IPKjPjEEDTmicldtfp_4baseEcldtfp0_4baseEERKNS_11__wrap_iterIT_EERKNS5_IT0_EE, symObjAddr: 0x43A50, symBinAddr: 0x100048450, symSize: 0x40 }
  - { offsetInCU: 0x33D33, offset: 0x51EF6, size: 0x8, addend: 0x0, symName: __ZNSt3__14moveB8ue170006IPjS1_EET0_T_S3_S2_, symObjAddr: 0x43AE0, symBinAddr: 0x1000484E0, symSize: 0x40 }
  - { offsetInCU: 0x33D8D, offset: 0x51F50, size: 0x8, addend: 0x0, symName: __ZNSt3__1miB8ue170006IPKjS2_EEDTmicldtfp_4baseEcldtfp0_4baseEERKNS_11__wrap_iterIT_EERKNS4_IT0_EE, symObjAddr: 0x43B20, symBinAddr: 0x100048520, symSize: 0x40 }
  - { offsetInCU: 0x33DD9, offset: 0x51F9C, size: 0x8, addend: 0x0, symName: __ZNSt3__16__moveB8ue170006INS_17_ClassicAlgPolicyEPjS2_S2_EENS_4pairIT0_T2_EES4_T1_S5_, symObjAddr: 0x43C00, symBinAddr: 0x100048600, symSize: 0x40 }
  - { offsetInCU: 0x33E45, offset: 0x52008, size: 0x8, addend: 0x0, symName: __ZNSt3__123__dispatch_copy_or_moveB8ue170006INS_17_ClassicAlgPolicyENS_11__move_loopIS1_EENS_14__move_trivialEPjS5_S5_EENS_4pairIT2_T4_EES7_T3_S8_, symObjAddr: 0x43C40, symBinAddr: 0x100048640, symSize: 0x40 }
  - { offsetInCU: 0x33EC3, offset: 0x52086, size: 0x8, addend: 0x0, symName: __ZNSt3__121__unwrap_and_dispatchB8ue170006INS_10__overloadINS_11__move_loopINS_17_ClassicAlgPolicyEEENS_14__move_trivialEEEPjS7_S7_Li0EEENS_4pairIT0_T2_EES9_T1_SA_, symObjAddr: 0x43C80, symBinAddr: 0x100048680, symSize: 0xB0 }
  - { offsetInCU: 0x33F52, offset: 0x52115, size: 0x8, addend: 0x0, symName: __ZNSt3__114__unwrap_rangeB8ue170006IPjS1_EENS_4pairIT0_S3_EET_S5_, symObjAddr: 0x43D30, symBinAddr: 0x100048730, symSize: 0x50 }
  - { offsetInCU: 0x340A1, offset: 0x52264, size: 0x8, addend: 0x0, symName: __ZNSt3__113__unwrap_iterB8ue170006IPjNS_18__unwrap_iter_implIS1_Lb1EEELi0EEEDTclsrT0_8__unwrapclsr3stdE7declvalIT_EEEES5_, symObjAddr: 0x43DC0, symBinAddr: 0x1000487C0, symSize: 0x20 }
  - { offsetInCU: 0x340E5, offset: 0x522A8, size: 0x8, addend: 0x0, symName: __ZNSt3__19make_pairB8ue170006IPjS1_EENS_4pairINS_18__unwrap_ref_decayIT_E4typeENS3_IT0_E4typeEEEOS4_OS7_, symObjAddr: 0x43DE0, symBinAddr: 0x1000487E0, symSize: 0x30 }
  - { offsetInCU: 0x34134, offset: 0x522F7, size: 0x8, addend: 0x0, symName: __ZNSt3__114__rewrap_rangeB8ue170006IPjS1_EET_S2_T0_, symObjAddr: 0x43E10, symBinAddr: 0x100048810, symSize: 0x30 }
  - { offsetInCU: 0x34180, offset: 0x52343, size: 0x8, addend: 0x0, symName: __ZNSt3__113__rewrap_iterB8ue170006IPjS1_NS_18__unwrap_iter_implIS1_Lb1EEEEET_S4_T0_, symObjAddr: 0x43E40, symBinAddr: 0x100048840, symSize: 0x40 }
  - { offsetInCU: 0x341D5, offset: 0x52398, size: 0x8, addend: 0x0, symName: __ZNSt3__119__copy_trivial_implB8ue170006IjjEENS_4pairIPT_PT0_EES3_S3_S5_, symObjAddr: 0x43E80, symBinAddr: 0x100048880, symSize: 0x70 }
  - { offsetInCU: 0x3423D, offset: 0x52400, size: 0x8, addend: 0x0, symName: __ZNSt3__119__constexpr_memmoveB8ue170006IjjLi0EEEPT_S2_PT0_NS_15__element_countE, symObjAddr: 0x43EF0, symBinAddr: 0x1000488F0, symSize: 0x50 }
  - { offsetInCU: 0x342AB, offset: 0x5246E, size: 0x8, addend: 0x0, symName: __ZNSt3__19make_pairB8ue170006IRPjS1_EENS_4pairINS_18__unwrap_ref_decayIT_E4typeENS4_IT0_E4typeEEEOS5_OS8_, symObjAddr: 0x43F40, symBinAddr: 0x100048940, symSize: 0x30 }
  - { offsetInCU: 0x36668, offset: 0x5482B, size: 0x8, addend: 0x0, symName: __ZNSt3__16vectorI4FileNS_9allocatorIS1_EEE26__swap_out_circular_bufferERNS_14__split_bufferIS1_RS3_EEPS1_, symObjAddr: 0x10500, symBinAddr: 0x100016280, symSize: 0x160 }
  - { offsetInCU: 0x367B5, offset: 0x54978, size: 0x8, addend: 0x0, symName: __ZNSt3__16vectorINS_12basic_stringIcNS_11char_traitsIcEENS_9allocatorIcEEEENS4_IS6_EEE26__swap_out_circular_bufferERNS_14__split_bufferIS6_RS7_EEPS6_, symObjAddr: 0x13980, symBinAddr: 0x100019400, symSize: 0x160 }
  - { offsetInCU: 0x36B1F, offset: 0x54CE2, size: 0x8, addend: 0x0, symName: __ZNSt3__16vectorINS_7__stateIcEENS_9allocatorIS2_EEE26__swap_out_circular_bufferERNS_14__split_bufferIS2_RS4_EE, symObjAddr: 0x1D880, symBinAddr: 0x100022510, symSize: 0x120 }
  - { offsetInCU: 0x36BB8, offset: 0x54D7B, size: 0x8, addend: 0x0, symName: __ZNSt3__16vectorINS_9sub_matchIPKcEENS_9allocatorIS4_EEE26__swap_out_circular_bufferERNS_14__split_bufferIS4_RS6_EE, symObjAddr: 0x1F360, symBinAddr: 0x100023FF0, symSize: 0x120 }
  - { offsetInCU: 0x36C4C, offset: 0x54E0F, size: 0x8, addend: 0x0, symName: __ZNSt3__16vectorINS_4pairImPKcEENS_9allocatorIS4_EEE26__swap_out_circular_bufferERNS_14__split_bufferIS4_RS6_EE, symObjAddr: 0x20570, symBinAddr: 0x100025200, symSize: 0x120 }
  - { offsetInCU: 0x36D7A, offset: 0x54F3D, size: 0x8, addend: 0x0, symName: __ZNSt3__16vectorIcNS_9allocatorIcEEE26__swap_out_circular_bufferERNS_14__split_bufferIcRS2_EE, symObjAddr: 0x28900, symBinAddr: 0x10002D500, symSize: 0x120 }
  - { offsetInCU: 0x36DD1, offset: 0x54F94, size: 0x8, addend: 0x0, symName: __ZNSt3__16vectorINS_12basic_stringIcNS_11char_traitsIcEENS_9allocatorIcEEEENS4_IS6_EEE26__swap_out_circular_bufferERNS_14__split_bufferIS6_RS7_EE, symObjAddr: 0x2C630, symBinAddr: 0x100031230, symSize: 0x120 }
  - { offsetInCU: 0x36E14, offset: 0x54FD7, size: 0x8, addend: 0x0, symName: __ZNSt3__16vectorINS_4pairINS_12basic_stringIcNS_11char_traitsIcEENS_9allocatorIcEEEES7_EENS5_IS8_EEE26__swap_out_circular_bufferERNS_14__split_bufferIS8_RS9_EE, symObjAddr: 0x2D030, symBinAddr: 0x100031C30, symSize: 0x120 }
  - { offsetInCU: 0x36EA8, offset: 0x5506B, size: 0x8, addend: 0x0, symName: __ZNSt3__16vectorINS_4pairIccEENS_9allocatorIS2_EEE26__swap_out_circular_bufferERNS_14__split_bufferIS2_RS4_EE, symObjAddr: 0x2E490, symBinAddr: 0x100033090, symSize: 0x120 }
  - { offsetInCU: 0x3719C, offset: 0x5535F, size: 0x8, addend: 0x0, symName: __ZNSt3__16vectorINS_9sub_matchINS_11__wrap_iterIPKcEEEENS_9allocatorIS6_EEE26__swap_out_circular_bufferERNS_14__split_bufferIS6_RS8_EE, symObjAddr: 0x3A8E0, symBinAddr: 0x10003F4E0, symSize: 0x120 }
  - { offsetInCU: 0x37606, offset: 0x557C9, size: 0x8, addend: 0x0, symName: __Z7isdigiti, symObjAddr: 0xED0, symBinAddr: 0x10000F3C0, symSize: 0x20 }
  - { offsetInCU: 0x376C9, offset: 0x5588C, size: 0x8, addend: 0x0, symName: __Z7toloweri, symObjAddr: 0x5A40, symBinAddr: 0x100013640, symSize: 0x20 }
  - { offsetInCU: 0x39145, offset: 0x57308, size: 0x8, addend: 0x0, symName: __Z12process_nameRNSt3__112basic_stringIcNS_11char_traitsIcEENS_9allocatorIcEEEER11MasterFiles, symObjAddr: 0x0, symBinAddr: 0x10000E6A0, symSize: 0x450 }
  - { offsetInCU: 0x39278, offset: 0x5743B, size: 0x8, addend: 0x0, symName: __ZN5Input15get_menu_optionEjj, symObjAddr: 0x500, symBinAddr: 0x10000EAF0, symSize: 0xD0 }
  - { offsetInCU: 0x392C8, offset: 0x5748B, size: 0x8, addend: 0x0, symName: __ZN5Input13is_valid_nameERKNSt3__112basic_stringIcNS0_11char_traitsIcEENS0_9allocatorIcEEEE, symObjAddr: 0x8A0, symBinAddr: 0x10000EE90, symSize: 0x60 }
  - { offsetInCU: 0x392FB, offset: 0x574BE, size: 0x8, addend: 0x0, symName: __Z8new_listR11MasterFilesRNSt3__112basic_stringIcNS1_11char_traitsIcEENS1_9allocatorIcEEEE, symObjAddr: 0x900, symBinAddr: 0x10000EEF0, symSize: 0x3A0 }
  - { offsetInCU: 0x3970B, offset: 0x578CE, size: 0x8, addend: 0x0, symName: __ZNSt3__112basic_stringIcNS_11char_traitsIcEENS_9allocatorIcEEE5beginB8ue170006Ev, symObjAddr: 0xE30, symBinAddr: 0x10000F320, symSize: 0x50 }
  - { offsetInCU: 0x39731, offset: 0x578F4, size: 0x8, addend: 0x0, symName: __ZNSt3__112basic_stringIcNS_11char_traitsIcEENS_9allocatorIcEEE3endB8ue170006Ev, symObjAddr: 0xE80, symBinAddr: 0x10000F370, symSize: 0x50 }
  - { offsetInCU: 0x39757, offset: 0x5791A, size: 0x8, addend: 0x0, symName: __ZNSt3__112basic_stringIcNS_11char_traitsIcEENS_9allocatorIcEEEaSB8ue170006EOS5_, symObjAddr: 0xF90, symBinAddr: 0x10000F3E0, symSize: 0x30 }
  - { offsetInCU: 0x3978C, offset: 0x5794F, size: 0x8, addend: 0x0, symName: __ZN5Input20print_search_optionsEv, symObjAddr: 0xFC0, symBinAddr: 0x10000F410, symSize: 0x50 }
  - { offsetInCU: 0x397B2, offset: 0x57975, size: 0x8, addend: 0x0, symName: __ZN11MasterFiles14search_by_dateEv, symObjAddr: 0x1010, symBinAddr: 0x10000F460, symSize: 0x310 }
  - { offsetInCU: 0x39863, offset: 0x57A26, size: 0x8, addend: 0x0, symName: __ZN11MasterFiles13do_key_searchEv, symObjAddr: 0x1320, symBinAddr: 0x10000F770, symSize: 0x770 }
  - { offsetInCU: 0x39A0B, offset: 0x57BCE, size: 0x8, addend: 0x0, symName: __ZN11MasterFiles10list_foundERKNSt3__112basic_stringIcNS0_11char_traitsIcEENS0_9allocatorIcEEEE, symObjAddr: 0x1BD0, symBinAddr: 0x10000FEE0, symSize: 0x1D0 }
  - { offsetInCU: 0x39A71, offset: 0x57C34, size: 0x8, addend: 0x0, symName: __ZNSt3__112basic_stringIcNS_11char_traitsIcEENS_9allocatorIcEEEC1B8ue170006Ev, symObjAddr: 0x1DC0, symBinAddr: 0x1000100B0, symSize: 0x20 }
  - { offsetInCU: 0x39A9B, offset: 0x57C5E, size: 0x8, addend: 0x0, symName: __ZNKSt3__112basic_stringIcNS_11char_traitsIcEENS_9allocatorIcEEE5emptyB8ue170006Ev, symObjAddr: 0x1E30, symBinAddr: 0x100010120, symSize: 0x30 }
  - { offsetInCU: 0x39AC1, offset: 0x57C84, size: 0x8, addend: 0x0, symName: __ZNSt3__112basic_stringIcNS_11char_traitsIcEENS_9allocatorIcEEEpLB8ue170006ERKS5_, symObjAddr: 0x1F00, symBinAddr: 0x1000101F0, symSize: 0x30 }
  - { offsetInCU: 0x39AF6, offset: 0x57CB9, size: 0x8, addend: 0x0, symName: __ZN11MasterFiles8add_fileE4File, symObjAddr: 0x1F30, symBinAddr: 0x100010220, symSize: 0x4F0 }
  - { offsetInCU: 0x39C15, offset: 0x57DD8, size: 0x8, addend: 0x0, symName: __ZNSt3__114basic_ofstreamIcNS_11char_traitsIcEEEC1ERKNS_12basic_stringIcS2_NS_9allocatorIcEEEEj, symObjAddr: 0x2550, symBinAddr: 0x100010810, symSize: 0x160 }
  - { offsetInCU: 0x39C5F, offset: 0x57E22, size: 0x8, addend: 0x0, symName: __ZNKSt3__19basic_iosIcNS_11char_traitsIcEEEntB8ue170006Ev, symObjAddr: 0x26B0, symBinAddr: 0x100010970, symSize: 0x20 }
  - { offsetInCU: 0x39C85, offset: 0x57E48, size: 0x8, addend: 0x0, symName: __ZNSt3__113basic_ostreamIcNS_11char_traitsIcEEElsB8ue170006EPFRS3_S4_E, symObjAddr: 0x26D0, symBinAddr: 0x100010990, symSize: 0x20 }
  - { offsetInCU: 0x39CB9, offset: 0x57E7C, size: 0x8, addend: 0x0, symName: __ZNSt3__114basic_ofstreamIcNS_11char_traitsIcEEE5closeEv, symObjAddr: 0x2740, symBinAddr: 0x100010A00, symSize: 0x50 }
  - { offsetInCU: 0x39CE1, offset: 0x57EA4, size: 0x8, addend: 0x0, symName: __ZNSt3__16vectorI4FileNS_9allocatorIS1_EEE5beginB8ue170006Ev, symObjAddr: 0x27F0, symBinAddr: 0x100010AB0, symSize: 0x30 }
  - { offsetInCU: 0x39D09, offset: 0x57ECC, size: 0x8, addend: 0x0, symName: __ZNSt3__16vectorI4FileNS_9allocatorIS1_EEE3endB8ue170006Ev, symObjAddr: 0x2820, symBinAddr: 0x100010AE0, symSize: 0x30 }
  - { offsetInCU: 0x39D31, offset: 0x57EF4, size: 0x8, addend: 0x0, symName: __ZNSt3__16vectorI4FileNS_9allocatorIS1_EEE6insertENS_11__wrap_iterIPKS1_EEOS1_, symObjAddr: 0x2890, symBinAddr: 0x100010B50, symSize: 0x1D0 }
  - { offsetInCU: 0x39DB5, offset: 0x57F78, size: 0x8, addend: 0x0, symName: __ZNSt3__111__wrap_iterIPK4FileEC1B8ue170006IPS1_EERKNS0_IT_EEPNS_9enable_ifIXsr14is_convertibleIS7_S3_EE5valueEvE4typeE, symObjAddr: 0x2A60, symBinAddr: 0x100010D20, symSize: 0x30 }
  - { offsetInCU: 0x39E00, offset: 0x57FC3, size: 0x8, addend: 0x0, symName: __ZNSt3__113unordered_mapINS_12basic_stringIcNS_11char_traitsIcEENS_9allocatorIcEEEENS_6vectorIjNS4_IjEEEENS_4hashIS6_EENS_8equal_toIS6_EENS4_INS_4pairIKS6_S9_EEEEEixEOS6_, symObjAddr: 0x2B50, symBinAddr: 0x100010D80, symSize: 0x70 }
  - { offsetInCU: 0x39E37, offset: 0x57FFA, size: 0x8, addend: 0x0, symName: __ZNKSt3__119__hash_map_iteratorINS_15__hash_iteratorIPNS_11__hash_nodeINS_17__hash_value_typeINS_12basic_stringIcNS_11char_traitsIcEENS_9allocatorIcEEEENS_6vectorIjNS7_IjEEEEEEPvEEEEEptB8ue170006Ev, symObjAddr: 0x2C20, symBinAddr: 0x100010DF0, symSize: 0x30 }
  - { offsetInCU: 0x39E5D, offset: 0x58020, size: 0x8, addend: 0x0, symName: __ZN11MasterFiles16process_commandsER4Filej, symObjAddr: 0x2DC0, symBinAddr: 0x100010E20, symSize: 0x9E0 }
  - { offsetInCU: 0x39FA3, offset: 0x58166, size: 0x8, addend: 0x0, symName: __ZNSt3__114basic_ofstreamIcNS_11char_traitsIcEEED1Ev, symObjAddr: 0x37A0, symBinAddr: 0x100011800, symSize: 0x40 }
  - { offsetInCU: 0x3A051, offset: 0x58214, size: 0x8, addend: 0x0, symName: __ZNSt3__114basic_ifstreamIcNS_11char_traitsIcEEEC1Ev, symObjAddr: 0x37E0, symBinAddr: 0x100011840, symSize: 0xE0 }
  - { offsetInCU: 0x3A07D, offset: 0x58240, size: 0x8, addend: 0x0, symName: __ZNKSt3__114basic_ifstreamIcNS_11char_traitsIcEEE7is_openEv, symObjAddr: 0x38C0, symBinAddr: 0x100011920, symSize: 0x30 }
  - { offsetInCU: 0x3A0A5, offset: 0x58268, size: 0x8, addend: 0x0, symName: __ZN5Input17print_cmd_optionsEv, symObjAddr: 0x38F0, symBinAddr: 0x100011950, symSize: 0xD0 }
  - { offsetInCU: 0x3A0CB, offset: 0x5828E, size: 0x8, addend: 0x0, symName: __ZN4File10print_listEv, symObjAddr: 0x3B30, symBinAddr: 0x100011B90, symSize: 0xB0 }
  - { offsetInCU: 0x3A10D, offset: 0x582D0, size: 0x8, addend: 0x0, symName: __ZN4File8get_sizeEv, symObjAddr: 0x3BE0, symBinAddr: 0x100011C40, symSize: 0x20 }
  - { offsetInCU: 0x3A133, offset: 0x582F6, size: 0x8, addend: 0x0, symName: __ZNSt3__16vectorINS_12basic_stringIcNS_11char_traitsIcEENS_9allocatorIcEEEENS4_IS6_EEE6insertENS_11__wrap_iterIPKS6_EERSA_, symObjAddr: 0x3C00, symBinAddr: 0x100011C60, symSize: 0x210 }
  - { offsetInCU: 0x3A1CA, offset: 0x5838D, size: 0x8, addend: 0x0, symName: __ZNSt3__16vectorINS_12basic_stringIcNS_11char_traitsIcEENS_9allocatorIcEEEENS4_IS6_EEE5beginB8ue170006Ev, symObjAddr: 0x3E10, symBinAddr: 0x100011E70, symSize: 0x30 }
  - { offsetInCU: 0x3A1F2, offset: 0x583B5, size: 0x8, addend: 0x0, symName: __ZNKSt3__111__wrap_iterIPNS_12basic_stringIcNS_11char_traitsIcEENS_9allocatorIcEEEEEplB8ue170006El, symObjAddr: 0x3E40, symBinAddr: 0x100011EA0, symSize: 0x40 }
  - { offsetInCU: 0x3A239, offset: 0x583FC, size: 0x8, addend: 0x0, symName: __ZNSt3__111__wrap_iterIPKNS_12basic_stringIcNS_11char_traitsIcEENS_9allocatorIcEEEEEC1B8ue170006IPS6_EERKNS0_IT_EEPNS_9enable_ifIXsr14is_convertibleISC_S8_EE5valueEvE4typeE, symObjAddr: 0x3E80, symBinAddr: 0x100011EE0, symSize: 0x30 }
  - { offsetInCU: 0x3A284, offset: 0x58447, size: 0x8, addend: 0x0, symName: __ZN11MasterFiles10add_phraseERKNSt3__112basic_stringIcNS0_11char_traitsIcEENS0_9allocatorIcEEEEjS8_, symObjAddr: 0x3EB0, symBinAddr: 0x100011F10, symSize: 0x390 }
  - { offsetInCU: 0x3A325, offset: 0x584E8, size: 0x8, addend: 0x0, symName: __ZNSt3__16vectorINS_12basic_stringIcNS_11char_traitsIcEENS_9allocatorIcEEEENS4_IS6_EEE3endB8ue170006Ev, symObjAddr: 0x4270, symBinAddr: 0x1000122A0, symSize: 0x30 }
  - { offsetInCU: 0x3A34D, offset: 0x58510, size: 0x8, addend: 0x0, symName: __ZNKSt3__111__wrap_iterIPNS_12basic_stringIcNS_11char_traitsIcEENS_9allocatorIcEEEEEdeB8ue170006Ev, symObjAddr: 0x42D0, symBinAddr: 0x100012300, symSize: 0x20 }
  - { offsetInCU: 0x3A373, offset: 0x58536, size: 0x8, addend: 0x0, symName: __ZN11MasterFiles13delete_phraseERKNSt3__112basic_stringIcNS0_11char_traitsIcEENS0_9allocatorIcEEEEj, symObjAddr: 0x42F0, symBinAddr: 0x100012320, symSize: 0x2A0 }
  - { offsetInCU: 0x3A41A, offset: 0x585DD, size: 0x8, addend: 0x0, symName: __ZNSt3__111__wrap_iterIPNS_12basic_stringIcNS_11char_traitsIcEENS_9allocatorIcEEEEEppB8ue170006Ev, symObjAddr: 0x4590, symBinAddr: 0x1000125C0, symSize: 0x20 }
  - { offsetInCU: 0x3A440, offset: 0x58603, size: 0x8, addend: 0x0, symName: __ZNSt3__16vectorINS_12basic_stringIcNS_11char_traitsIcEENS_9allocatorIcEEEENS4_IS6_EEE5clearB8ue170006Ev, symObjAddr: 0x45B0, symBinAddr: 0x1000125E0, symSize: 0x40 }
  - { offsetInCU: 0x3A475, offset: 0x58638, size: 0x8, addend: 0x0, symName: __ZNSt3__16vectorI4FileNS_9allocatorIS1_EEE5eraseB8ue170006ENS_11__wrap_iterIPKS1_EE, symObjAddr: 0x45F0, symBinAddr: 0x100012620, symSize: 0x90 }
  - { offsetInCU: 0x3A4CA, offset: 0x5868D, size: 0x8, addend: 0x0, symName: __ZNKSt3__111__wrap_iterIP4FileEplB8ue170006El, symObjAddr: 0x4680, symBinAddr: 0x1000126B0, symSize: 0x40 }
  - { offsetInCU: 0x3A50C, offset: 0x586CF, size: 0x8, addend: 0x0, symName: __ZNSt3__114basic_ifstreamIcNS_11char_traitsIcEEE5closeEv, symObjAddr: 0x46C0, symBinAddr: 0x1000126F0, symSize: 0x50 }
  - { offsetInCU: 0x3A539, offset: 0x586FC, size: 0x8, addend: 0x0, symName: __ZNSt3__114basic_ifstreamIcNS_11char_traitsIcEEED1Ev, symObjAddr: 0x4710, symBinAddr: 0x100012740, symSize: 0x40 }
  - { offsetInCU: 0x3A566, offset: 0x58729, size: 0x8, addend: 0x0, symName: __ZN11MasterFiles21search_with_wildcardsERKNSt3__112basic_stringIcNS0_11char_traitsIcEENS0_9allocatorIcEEEERNS0_13unordered_setIjNS0_4hashIjEENS0_8equal_toIjEENS4_IjEEEES8_, symObjAddr: 0x4780, symBinAddr: 0x100012780, symSize: 0x760 }
  - { offsetInCU: 0x3A770, offset: 0x58933, size: 0x8, addend: 0x0, symName: __ZNSt3__113unordered_setIjNS_4hashIjEENS_8equal_toIjEENS_9allocatorIjEEE6insertB8ue170006ERKj, symObjAddr: 0x4FC0, symBinAddr: 0x100012EE0, symSize: 0x40 }
  - { offsetInCU: 0x3A7A5, offset: 0x58968, size: 0x8, addend: 0x0, symName: __ZNKSt3__113unordered_setIjNS_4hashIjEENS_8equal_toIjEENS_9allocatorIjEEE5emptyB8ue170006Ev, symObjAddr: 0x5000, symBinAddr: 0x100012F20, symSize: 0x30 }
  - { offsetInCU: 0x3A7CB, offset: 0x5898E, size: 0x8, addend: 0x0, symName: __ZNSt3__111basic_regexIcNS_12regex_traitsIcEEEC1B8ue170006EPKcNS_15regex_constants18syntax_option_typeE, symObjAddr: 0x5140, symBinAddr: 0x100013040, symSize: 0x30 }
  - { offsetInCU: 0x3A818, offset: 0x589DB, size: 0x8, addend: 0x0, symName: __ZNSt3__111basic_regexIcNS_12regex_traitsIcEEED1Ev, symObjAddr: 0x5170, symBinAddr: 0x100013070, symSize: 0x20 }
  - { offsetInCU: 0x3A845, offset: 0x58A08, size: 0x8, addend: 0x0, symName: __ZNSt3__111basic_regexIcNS_12regex_traitsIcEEEC1B8ue170006INS_11char_traitsIcEENS_9allocatorIcEEEERKNS_12basic_stringIcT_T0_EENS_15regex_constants18syntax_option_typeE, symObjAddr: 0x52A0, symBinAddr: 0x1000131A0, symSize: 0x30 }
  - { offsetInCU: 0x3A89F, offset: 0x58A62, size: 0x8, addend: 0x0, symName: __ZNSt3__113unordered_mapINS_12basic_stringIcNS_11char_traitsIcEENS_9allocatorIcEEEENS_6vectorIjNS4_IjEEEENS_4hashIS6_EENS_8equal_toIS6_EENS4_INS_4pairIKS6_S9_EEEEE5beginB8ue170006Ev, symObjAddr: 0x52D0, symBinAddr: 0x1000131D0, symSize: 0x30 }
  - { offsetInCU: 0x3A8C5, offset: 0x58A88, size: 0x8, addend: 0x0, symName: __ZNKSt3__119__hash_map_iteratorINS_15__hash_iteratorIPNS_11__hash_nodeINS_17__hash_value_typeINS_12basic_stringIcNS_11char_traitsIcEENS_9allocatorIcEEEENS_6vectorIjNS7_IjEEEEEEPvEEEEEdeB8ue170006Ev, symObjAddr: 0x5330, symBinAddr: 0x100013200, symSize: 0x30 }
  - { offsetInCU: 0x3A8EB, offset: 0x58AAE, size: 0x8, addend: 0x0, symName: __ZNKSt3__16vectorIjNS_9allocatorIjEEE5beginB8ue170006Ev, symObjAddr: 0x5360, symBinAddr: 0x100013230, symSize: 0x30 }
  - { offsetInCU: 0x3A913, offset: 0x58AD6, size: 0x8, addend: 0x0, symName: __ZNKSt3__16vectorIjNS_9allocatorIjEEE3endB8ue170006Ev, symObjAddr: 0x5390, symBinAddr: 0x100013260, symSize: 0x30 }
  - { offsetInCU: 0x3A93B, offset: 0x58AFE, size: 0x8, addend: 0x0, symName: __ZNKSt3__111__wrap_iterIPKjEdeB8ue170006Ev, symObjAddr: 0x53F0, symBinAddr: 0x1000132C0, symSize: 0x20 }
  - { offsetInCU: 0x3A961, offset: 0x58B24, size: 0x8, addend: 0x0, symName: __ZNSt3__111__wrap_iterIPKjEppB8ue170006Ev, symObjAddr: 0x5410, symBinAddr: 0x1000132E0, symSize: 0x20 }
  - { offsetInCU: 0x3A987, offset: 0x58B4A, size: 0x8, addend: 0x0, symName: __ZNSt3__119__hash_map_iteratorINS_15__hash_iteratorIPNS_11__hash_nodeINS_17__hash_value_typeINS_12basic_stringIcNS_11char_traitsIcEENS_9allocatorIcEEEENS_6vectorIjNS7_IjEEEEEEPvEEEEEppB8ue170006Ev, symObjAddr: 0x5430, symBinAddr: 0x100013300, symSize: 0x30 }
  - { offsetInCU: 0x3A9AD, offset: 0x58B70, size: 0x8, addend: 0x0, symName: __ZNSt3__113unordered_setIjNS_4hashIjEENS_8equal_toIjEENS_9allocatorIjEEE6insertINS_11__wrap_iterIPKjEEEEvT_SD_, symObjAddr: 0x54B0, symBinAddr: 0x100013380, symSize: 0x70 }
  - { offsetInCU: 0x3A9FC, offset: 0x58BBF, size: 0x8, addend: 0x0, symName: __ZNKSt3__19basic_iosIcNS_11char_traitsIcEEE4failB8ue170006Ev, symObjAddr: 0x5520, symBinAddr: 0x1000133F0, symSize: 0x20 }
  - { offsetInCU: 0x3AA22, offset: 0x58BE5, size: 0x8, addend: 0x0, symName: __ZNSt3__19basic_iosIcNS_11char_traitsIcEEE5clearB8ue170006Ej, symObjAddr: 0x5540, symBinAddr: 0x100013410, symSize: 0x30 }
  - { offsetInCU: 0x3AA57, offset: 0x58C1A, size: 0x8, addend: 0x0, symName: __ZNKSt3__111__wrap_iterIP4FileEptB8ue170006Ev, symObjAddr: 0x5820, symBinAddr: 0x100013520, symSize: 0x20 }
  - { offsetInCU: 0x3AA7D, offset: 0x58C40, size: 0x8, addend: 0x0, symName: __ZNSt3__111__wrap_iterIP4FileEppB8ue170006Ev, symObjAddr: 0x5840, symBinAddr: 0x100013540, symSize: 0x20 }
  - { offsetInCU: 0x3AAA3, offset: 0x58C66, size: 0x8, addend: 0x0, symName: __ZNSt3__16vectorIjNS_9allocatorIjEEEixB8ue170006Em, symObjAddr: 0x5880, symBinAddr: 0x100013560, symSize: 0x20 }
  - { offsetInCU: 0x3AB2C, offset: 0x58CEF, size: 0x8, addend: 0x0, symName: __ZNKSt3__19basic_iosIcNS_11char_traitsIcEEEcvbB8ue170006Ev, symObjAddr: 0x5980, symBinAddr: 0x100013580, symSize: 0x30 }
  - { offsetInCU: 0x3AB52, offset: 0x58D15, size: 0x8, addend: 0x0, symName: __ZNSt3__16vectorIjNS_9allocatorIjEEE5beginB8ue170006Ev, symObjAddr: 0x5B80, symBinAddr: 0x100013710, symSize: 0x30 }
  - { offsetInCU: 0x3AB7A, offset: 0x58D3D, size: 0x8, addend: 0x0, symName: __ZNSt3__16vectorIjNS_9allocatorIjEEE3endB8ue170006Ev, symObjAddr: 0x5BB0, symBinAddr: 0x100013740, symSize: 0x30 }
  - { offsetInCU: 0x3ABA7, offset: 0x58D6A, size: 0x8, addend: 0x0, symName: __ZNKSt3__112basic_stringIcNS_11char_traitsIcEENS_9allocatorIcEEEixB8ue170006Em, symObjAddr: 0x5C70, symBinAddr: 0x100013770, symSize: 0x30 }
  - { offsetInCU: 0x3ABDC, offset: 0x58D9F, size: 0x8, addend: 0x0, symName: __ZNSt3__112basic_stringIcNS_11char_traitsIcEENS_9allocatorIcEEEpLB8ue170006Ec, symObjAddr: 0x5CD0, symBinAddr: 0x1000137A0, symSize: 0x30 }
  - { offsetInCU: 0x3AC11, offset: 0x58DD4, size: 0x8, addend: 0x0, symName: __ZNSt3__16vectorIjNS_9allocatorIjEEE5eraseENS_11__wrap_iterIPKjEES7_, symObjAddr: 0x5D00, symBinAddr: 0x1000137D0, symSize: 0xC0 }
  - { offsetInCU: 0x3AC6B, offset: 0x58E2E, size: 0x8, addend: 0x0, symName: __ZNSt3__111__wrap_iterIPKjEC1B8ue170006IPjEERKNS0_IT_EEPNS_9enable_ifIXsr14is_convertibleIS6_S2_EE5valueEvE4typeE, symObjAddr: 0x5EA0, symBinAddr: 0x100013970, symSize: 0x30 }
  - { offsetInCU: 0x3ACB6, offset: 0x58E79, size: 0x8, addend: 0x0, symName: __ZNKSt3__16vectorIjNS_9allocatorIjEEE5emptyB8ue170006Ev, symObjAddr: 0x5ED0, symBinAddr: 0x1000139A0, symSize: 0x20 }
  - { offsetInCU: 0x3ACDC, offset: 0x58E9F, size: 0x8, addend: 0x0, symName: __ZNSt3__113unordered_mapINS_12basic_stringIcNS_11char_traitsIcEENS_9allocatorIcEEEENS_6vectorIjNS4_IjEEEENS_4hashIS6_EENS_8equal_toIS6_EENS4_INS_4pairIKS6_S9_EEEEE5eraseB8ue170006ENS_19__hash_map_iteratorINS_15__hash_iteratorIPNS_11__hash_nodeINS_17__hash_value_typeIS6_S9_EEPvEEEEEE, symObjAddr: 0x5EF0, symBinAddr: 0x1000139C0, symSize: 0x50 }
  - { offsetInCU: 0x3AD1C, offset: 0x58EDF, size: 0x8, addend: 0x0, symName: __Z9__isctypeim, symObjAddr: 0x6130, symBinAddr: 0x100013A10, symSize: 0x60 }
  - { offsetInCU: 0x3AD9A, offset: 0x58F5D, size: 0x8, addend: 0x0, symName: __ZNKSt3__111__wrap_iterIP4FileE4baseB8ue170006Ev, symObjAddr: 0x7AC0, symBinAddr: 0x100013AE0, symSize: 0x20 }
  - { offsetInCU: 0x3ADC0, offset: 0x58F83, size: 0x8, addend: 0x0, symName: __ZNSt3__111__wrap_iterIPK4FileEC2B8ue170006IPS1_EERKNS0_IT_EEPNS_9enable_ifIXsr14is_convertibleIS7_S3_EE5valueEvE4typeE, symObjAddr: 0x7AE0, symBinAddr: 0x100013B00, symSize: 0x40 }
  - { offsetInCU: 0x3AE17, offset: 0x58FDA, size: 0x8, addend: 0x0, symName: __ZNSt3__114basic_ofstreamIcNS_11char_traitsIcEEED2Ev, symObjAddr: 0x9220, symBinAddr: 0x100013B40, symSize: 0x60 }
  - { offsetInCU: 0x3AE51, offset: 0x59014, size: 0x8, addend: 0x0, symName: __ZTv0_n24_NSt3__114basic_ofstreamIcNS_11char_traitsIcEEED1Ev, symObjAddr: 0x9280, symBinAddr: 0x100013BA0, symSize: 0x20 }
  - { offsetInCU: 0x3AE68, offset: 0x5902B, size: 0x8, addend: 0x0, symName: __ZNSt3__16vectorINS_12basic_stringIcNS_11char_traitsIcEENS_9allocatorIcEEEENS4_IS6_EEEixB8ue170006Em, symObjAddr: 0x92A0, symBinAddr: 0x100013BC0, symSize: 0x20 }
  - { offsetInCU: 0x3AE9F, offset: 0x59062, size: 0x8, addend: 0x0, symName: __ZNSt3__111__wrap_iterIPNS_12basic_stringIcNS_11char_traitsIcEENS_9allocatorIcEEEEEpLB8ue170006El, symObjAddr: 0x92C0, symBinAddr: 0x100013BE0, symSize: 0x20 }
  - { offsetInCU: 0x3AED3, offset: 0x59096, size: 0x8, addend: 0x0, symName: __ZNSt3__111__wrap_iterIPKNS_12basic_stringIcNS_11char_traitsIcEENS_9allocatorIcEEEEEC2B8ue170006IPS6_EERKNS0_IT_EEPNS_9enable_ifIXsr14is_convertibleISC_S8_EE5valueEvE4typeE, symObjAddr: 0x92E0, symBinAddr: 0x100013C00, symSize: 0x40 }
  - { offsetInCU: 0x3AF1E, offset: 0x590E1, size: 0x8, addend: 0x0, symName: __ZNKSt3__111__wrap_iterIPNS_12basic_stringIcNS_11char_traitsIcEENS_9allocatorIcEEEEE4baseB8ue170006Ev, symObjAddr: 0x9320, symBinAddr: 0x100013C40, symSize: 0x20 }
  - { offsetInCU: 0x3AF44, offset: 0x59107, size: 0x8, addend: 0x0, symName: __ZNSt3__111__wrap_iterIP4FileEpLB8ue170006El, symObjAddr: 0x9380, symBinAddr: 0x100013CA0, symSize: 0x20 }
  - { offsetInCU: 0x3AF78, offset: 0x5913B, size: 0x8, addend: 0x0, symName: __ZNSt3__114basic_ifstreamIcNS_11char_traitsIcEEED2Ev, symObjAddr: 0x93A0, symBinAddr: 0x100013CC0, symSize: 0x60 }
  - { offsetInCU: 0x3AFB2, offset: 0x59175, size: 0x8, addend: 0x0, symName: __ZTv0_n24_NSt3__114basic_ifstreamIcNS_11char_traitsIcEEED1Ev, symObjAddr: 0x9400, symBinAddr: 0x100013D20, symSize: 0x20 }
  - { offsetInCU: 0x3AFC9, offset: 0x5918C, size: 0x8, addend: 0x0, symName: __ZNSt3__111basic_regexIcNS_12regex_traitsIcEEED2Ev, symObjAddr: 0x9420, symBinAddr: 0x100013D40, symSize: 0x30 }
  - { offsetInCU: 0x3AFF6, offset: 0x591B9, size: 0x8, addend: 0x0, symName: __ZNSt3__110shared_ptrINS_13__empty_stateIcEEED1B8ue170006Ev, symObjAddr: 0x9450, symBinAddr: 0x100013D70, symSize: 0x20 }
  - { offsetInCU: 0x3B020, offset: 0x591E3, size: 0x8, addend: 0x0, symName: __ZNSt3__112regex_traitsIcED1Ev, symObjAddr: 0x9470, symBinAddr: 0x100013D90, symSize: 0x20 }
  - { offsetInCU: 0x3B04D, offset: 0x59210, size: 0x8, addend: 0x0, symName: __ZNSt3__110shared_ptrINS_13__empty_stateIcEEED2B8ue170006Ev, symObjAddr: 0x9490, symBinAddr: 0x100013DB0, symSize: 0x40 }
  - { offsetInCU: 0x3B077, offset: 0x5923A, size: 0x8, addend: 0x0, symName: __ZNSt3__119__shared_weak_count16__release_sharedB8ue170006Ev, symObjAddr: 0x94D0, symBinAddr: 0x100013DF0, symSize: 0x40 }
  - { offsetInCU: 0x3B09D, offset: 0x59260, size: 0x8, addend: 0x0, symName: __ZNSt3__114__shared_count16__release_sharedB8ue170006Ev, symObjAddr: 0x9510, symBinAddr: 0x100013E30, symSize: 0x50 }
  - { offsetInCU: 0x3B0C3, offset: 0x59286, size: 0x8, addend: 0x0, symName: __ZNSt3__112regex_traitsIcED2Ev, symObjAddr: 0x9590, symBinAddr: 0x100013EB0, symSize: 0x20 }
  - { offsetInCU: 0x3B0F0, offset: 0x592B3, size: 0x8, addend: 0x0, symName: __ZNKSt3__111__wrap_iterIPKjE4baseB8ue170006Ev, symObjAddr: 0x95F0, symBinAddr: 0x100013F10, symSize: 0x20 }
  - { offsetInCU: 0x3B116, offset: 0x592D9, size: 0x8, addend: 0x0, symName: __ZNKSt3__111__wrap_iterIPjE4baseB8ue170006Ev, symObjAddr: 0x9660, symBinAddr: 0x100013F70, symSize: 0x20 }
  - { offsetInCU: 0x3B141, offset: 0x59304, size: 0x8, addend: 0x0, symName: __ZNSt3__111__wrap_iterIPKjEC2B8ue170006IPjEERKNS0_IT_EEPNS_9enable_ifIXsr14is_convertibleIS6_S2_EE5valueEvE4typeE, symObjAddr: 0x9760, symBinAddr: 0x100013F90, symSize: 0x40 }
  - { offsetInCU: 0x3B18C, offset: 0x5934F, size: 0x8, addend: 0x0, symName: __ZNSt3__112basic_stringIcNS_11char_traitsIcEENS_9allocatorIcEEEC2B8ue170006Ev, symObjAddr: 0x97A0, symBinAddr: 0x100013FD0, symSize: 0x50 }
  - { offsetInCU: 0x3B1B6, offset: 0x59379, size: 0x8, addend: 0x0, symName: __ZNSt3__112basic_stringIcNS_11char_traitsIcEENS_9allocatorIcEEE13__move_assignB8ue170006ERS5_NS_17integral_constantIbLb1EEE, symObjAddr: 0x9930, symBinAddr: 0x100014020, symSize: 0xD0 }
  - { offsetInCU: 0x3B1F8, offset: 0x593BB, size: 0x8, addend: 0x0, symName: __ZNSt3__116allocator_traitsINS_9allocatorIcEEE10deallocateB8ue170006ERS2_Pcm, symObjAddr: 0x9A30, symBinAddr: 0x1000140F0, symSize: 0x30 }
  - { offsetInCU: 0x3B23A, offset: 0x593FD, size: 0x8, addend: 0x0, symName: __ZNSt3__112basic_stringIcNS_11char_traitsIcEENS_9allocatorIcEEE7__allocB8ue170006Ev, symObjAddr: 0x9A60, symBinAddr: 0x100014120, symSize: 0x20 }
  - { offsetInCU: 0x3B260, offset: 0x59423, size: 0x8, addend: 0x0, symName: __ZNKSt3__112basic_stringIcNS_11char_traitsIcEENS_9allocatorIcEEE14__get_long_capB8ue170006Ev, symObjAddr: 0x9AA0, symBinAddr: 0x100014140, symSize: 0x30 }
  - { offsetInCU: 0x3B286, offset: 0x59449, size: 0x8, addend: 0x0, symName: __ZNSt3__112basic_stringIcNS_11char_traitsIcEENS_9allocatorIcEEE19__move_assign_allocB8ue170006ERS5_, symObjAddr: 0x9AD0, symBinAddr: 0x100014170, symSize: 0x30 }
  - { offsetInCU: 0x3B2BB, offset: 0x5947E, size: 0x8, addend: 0x0, symName: __ZNSt3__112basic_stringIcNS_11char_traitsIcEENS_9allocatorIcEEE16__set_short_sizeB8ue170006Em, symObjAddr: 0x9B00, symBinAddr: 0x1000141A0, symSize: 0x50 }
  - { offsetInCU: 0x3B2F0, offset: 0x594B3, size: 0x8, addend: 0x0, symName: __ZNSt3__111char_traitsIcE6assignB8ue170006ERcRKc, symObjAddr: 0x9B50, symBinAddr: 0x1000141F0, symSize: 0x20 }
  - { offsetInCU: 0x3B321, offset: 0x594E4, size: 0x8, addend: 0x0, symName: __ZNSt3__19allocatorIcE10deallocateB8ue170006EPcm, symObjAddr: 0x9BD0, symBinAddr: 0x100014210, symSize: 0x40 }
  - { offsetInCU: 0x3B363, offset: 0x59526, size: 0x8, addend: 0x0, symName: __ZNSt3__117__compressed_pairINS_12basic_stringIcNS_11char_traitsIcEENS_9allocatorIcEEE5__repES5_E6secondB8ue170006Ev, symObjAddr: 0x9C10, symBinAddr: 0x100014250, symSize: 0x20 }
  - { offsetInCU: 0x3B389, offset: 0x5954C, size: 0x8, addend: 0x0, symName: __ZNSt3__122__compressed_pair_elemINS_9allocatorIcEELi1ELb1EE5__getB8ue170006Ev, symObjAddr: 0x9C30, symBinAddr: 0x100014270, symSize: 0x10 }
  - { offsetInCU: 0x3B3AF, offset: 0x59572, size: 0x8, addend: 0x0, symName: __ZNSt3__112basic_stringIcNS_11char_traitsIcEENS_9allocatorIcEEE19__move_assign_allocB8ue170006ERS5_NS_17integral_constantIbLb1EEE, symObjAddr: 0x9C40, symBinAddr: 0x100014280, symSize: 0x30 }
  - { offsetInCU: 0x3B3EF, offset: 0x595B2, size: 0x8, addend: 0x0, symName: __ZNSt3__112basic_stringIcNS_11char_traitsIcEENS_9allocatorIcEEE6appendB8ue170006ERKS5_, symObjAddr: 0x9C80, symBinAddr: 0x1000142B0, symSize: 0x50 }
  - { offsetInCU: 0x3B460, offset: 0x59623, size: 0x8, addend: 0x0, symName: __ZNKSt3__113basic_istreamIcNS_11char_traitsIcEEE6sentrycvbB8ue170006Ev, symObjAddr: 0xA910, symBinAddr: 0x100014520, symSize: 0x20 }
  - { offsetInCU: 0x3B486, offset: 0x59649, size: 0x8, addend: 0x0, symName: __ZNSt3__112basic_stringIcNS_11char_traitsIcEENS_9allocatorIcEEE5clearB8ue170006Ev, symObjAddr: 0xA930, symBinAddr: 0x100014540, symSize: 0x80 }
  - { offsetInCU: 0x3B4AE, offset: 0x59671, size: 0x8, addend: 0x0, symName: __ZNSt3__115basic_streambufIcNS_11char_traitsIcEEE6sbumpcB8ue170006Ev, symObjAddr: 0xA9B0, symBinAddr: 0x1000145C0, symSize: 0x60 }
  - { offsetInCU: 0x3B4D4, offset: 0x59697, size: 0x8, addend: 0x0, symName: __ZNSt3__111char_traitsIcE12to_char_typeB8ue170006Ei, symObjAddr: 0xAA10, symBinAddr: 0x100014620, symSize: 0x10 }
  - { offsetInCU: 0x3B4F7, offset: 0x596BA, size: 0x8, addend: 0x0, symName: __ZNSt3__111char_traitsIcE2eqEcc, symObjAddr: 0xAA20, symBinAddr: 0x100014630, symSize: 0x30 }
  - { offsetInCU: 0x3B528, offset: 0x596EB, size: 0x8, addend: 0x0, symName: __ZNKSt3__112basic_stringIcNS_11char_traitsIcEENS_9allocatorIcEEE8max_sizeB8ue170006Ev, symObjAddr: 0xAA50, symBinAddr: 0x100014660, symSize: 0xA0 }
  - { offsetInCU: 0x3B57A, offset: 0x5973D, size: 0x8, addend: 0x0, symName: __ZNSt3__18ios_base18__setstate_nothrowB8ue170006Ej, symObjAddr: 0xAAF0, symBinAddr: 0x100014700, symSize: 0x50 }
  - { offsetInCU: 0x3B5AF, offset: 0x59772, size: 0x8, addend: 0x0, symName: __ZNKSt3__19basic_iosIcNS_11char_traitsIcEEE10exceptionsB8ue170006Ev, symObjAddr: 0xAB40, symBinAddr: 0x100014750, symSize: 0x20 }
  - { offsetInCU: 0x3B5D5, offset: 0x59798, size: 0x8, addend: 0x0, symName: __ZNSt3__112basic_stringIcNS_11char_traitsIcEENS_9allocatorIcEEE15__set_long_sizeB8ue170006Em, symObjAddr: 0xAB60, symBinAddr: 0x100014770, symSize: 0x30 }
  - { offsetInCU: 0x3B60A, offset: 0x597CD, size: 0x8, addend: 0x0, symName: __ZNSt3__111char_traitsIcE11to_int_typeB8ue170006Ec, symObjAddr: 0xAB90, symBinAddr: 0x1000147A0, symSize: 0x10 }
  - { offsetInCU: 0x3B638, offset: 0x597FB, size: 0x8, addend: 0x0, symName: __ZNSt3__116allocator_traitsINS_9allocatorIcEEE8max_sizeB8ue170006IS2_vEEmRKS2_, symObjAddr: 0xABA0, symBinAddr: 0x1000147B0, symSize: 0x20 }
  - { offsetInCU: 0x3B666, offset: 0x59829, size: 0x8, addend: 0x0, symName: __ZNSt3__114numeric_limitsImE3maxB8ue170006Ev, symObjAddr: 0xABE0, symBinAddr: 0x1000147D0, symSize: 0x10 }
  - { offsetInCU: 0x3B67A, offset: 0x5983D, size: 0x8, addend: 0x0, symName: __ZNKSt3__19allocatorIcE8max_sizeB8ue170006Ev, symObjAddr: 0xABF0, symBinAddr: 0x1000147E0, symSize: 0x20 }
  - { offsetInCU: 0x3B6A0, offset: 0x59863, size: 0x8, addend: 0x0, symName: __ZNSt3__123__libcpp_numeric_limitsImLb1EE3maxB8ue170006Ev, symObjAddr: 0xAC40, symBinAddr: 0x100014800, symSize: 0x10 }
  - { offsetInCU: 0x3B6B4, offset: 0x59877, size: 0x8, addend: 0x0, symName: __ZNKSt3__18ios_base10exceptionsB8ue170006Ev, symObjAddr: 0xAC50, symBinAddr: 0x100014810, symSize: 0x20 }
  - { offsetInCU: 0x3B6DC, offset: 0x5989F, size: 0x8, addend: 0x0, symName: __ZNKSt3__18ios_base4failB8ue170006Ev, symObjAddr: 0xAC70, symBinAddr: 0x100014830, symSize: 0x20 }
  - { offsetInCU: 0x3B747, offset: 0x5990A, size: 0x8, addend: 0x0, symName: __ZNSt3__115basic_streambufIcNS_11char_traitsIcEEE5sgetcB8ue170006Ev, symObjAddr: 0xE930, symBinAddr: 0x100014850, symSize: 0x50 }
  - { offsetInCU: 0x3B76D, offset: 0x59930, size: 0x8, addend: 0x0, symName: __ZNKSt3__15ctypeIcE2isB8ue170006Ejc, symObjAddr: 0xE980, symBinAddr: 0x1000148A0, symSize: 0x70 }
  - { offsetInCU: 0x3B7B0, offset: 0x59973, size: 0x8, addend: 0x0, symName: __Z7isasciii, symObjAddr: 0xE9F0, symBinAddr: 0x100014910, symSize: 0x20 }
  - { offsetInCU: 0x3B7DD, offset: 0x599A0, size: 0x8, addend: 0x0, symName: __ZNSt3__112basic_stringIcNS_11char_traitsIcEENS_9allocatorIcEEE15__make_iteratorB8ue170006EPc, symObjAddr: 0xEA10, symBinAddr: 0x100014930, symSize: 0x30 }
  - { offsetInCU: 0x3B812, offset: 0x599D5, size: 0x8, addend: 0x0, symName: __ZNSt3__111__wrap_iterIPcEC1B8ue170006ES1_, symObjAddr: 0xEA40, symBinAddr: 0x100014960, symSize: 0x30 }
  - { offsetInCU: 0x3B84A, offset: 0x59A0D, size: 0x8, addend: 0x0, symName: __ZNSt3__111__wrap_iterIPcEC2B8ue170006ES1_, symObjAddr: 0xEA70, symBinAddr: 0x100014990, symSize: 0x20 }
  - { offsetInCU: 0x3B882, offset: 0x59A45, size: 0x8, addend: 0x0, symName: __ZNKSt3__111__wrap_iterIPcEdeB8ue170006Ev, symObjAddr: 0xEAC0, symBinAddr: 0x1000149E0, symSize: 0x20 }
  - { offsetInCU: 0x3B8A8, offset: 0x59A6B, size: 0x8, addend: 0x0, symName: __ZNSt3__111__wrap_iterIPcEppB8ue170006Ev, symObjAddr: 0xEAE0, symBinAddr: 0x100014A00, symSize: 0x20 }
  - { offsetInCU: 0x3B8CE, offset: 0x59A91, size: 0x8, addend: 0x0, symName: __ZNKSt3__111__wrap_iterIPcE4baseB8ue170006Ev, symObjAddr: 0xEB40, symBinAddr: 0x100014A60, symSize: 0x20 }
  - { offsetInCU: 0x3B8F4, offset: 0x59AB7, size: 0x8, addend: 0x0, symName: __ZNSt3__112basic_stringIcNS_11char_traitsIcEENS_9allocatorIcEEEC1B8ue170006EOS5_, symObjAddr: 0xEB60, symBinAddr: 0x100014A80, symSize: 0x30 }
  - { offsetInCU: 0x3B92D, offset: 0x59AF0, size: 0x8, addend: 0x0, symName: __ZNSt3__112basic_stringIcNS_11char_traitsIcEENS_9allocatorIcEEEC2B8ue170006EOS5_, symObjAddr: 0xEB90, symBinAddr: 0x100014AB0, symSize: 0x40 }
  - { offsetInCU: 0x3B966, offset: 0x59B29, size: 0x8, addend: 0x0, symName: __ZNSt3__116allocator_traitsINS_9allocatorIcEEE37select_on_container_copy_constructionB8ue170006IS2_vvEES2_RKS2_, symObjAddr: 0xEBD0, symBinAddr: 0x100014AF0, symSize: 0x10 }
  - { offsetInCU: 0x3B995, offset: 0x59B58, size: 0x8, addend: 0x0, symName: __ZNSt3__112basic_stringIcNS_11char_traitsIcEENS_9allocatorIcEEEC1B8ue170006ENS_24__uninitialized_size_tagEmRKS4_, symObjAddr: 0xEC00, symBinAddr: 0x100014B00, symSize: 0x30 }
  - { offsetInCU: 0x3B9E8, offset: 0x59BAB, size: 0x8, addend: 0x0, symName: __ZNSt3__111char_traitsIcE4copyB8ue170006EPcPKcm, symObjAddr: 0xEC30, symBinAddr: 0x100014B30, symSize: 0x40 }
  - { offsetInCU: 0x3BA27, offset: 0x59BEA, size: 0x8, addend: 0x0, symName: __ZNSt3__111char_traitsIcE6assignB8ue170006EPcmc, symObjAddr: 0xEC70, symBinAddr: 0x100014B70, symSize: 0x40 }
  - { offsetInCU: 0x3BA66, offset: 0x59C29, size: 0x8, addend: 0x0, symName: __ZNSt3__112basic_stringIcNS_11char_traitsIcEENS_9allocatorIcEEEC2B8ue170006ENS_24__uninitialized_size_tagEmRKS4_, symObjAddr: 0xECB0, symBinAddr: 0x100014BB0, symSize: 0x110 }
  - { offsetInCU: 0x3BAE7, offset: 0x59CAA, size: 0x8, addend: 0x0, symName: __ZNKSt3__112basic_stringIcNS_11char_traitsIcEENS_9allocatorIcEEE20__throw_length_errorB8ue170006Ev, symObjAddr: 0xEDF0, symBinAddr: 0x100014CC0, symSize: 0x20 }
  - { offsetInCU: 0x3BB0D, offset: 0x59CD0, size: 0x8, addend: 0x0, symName: __ZNSt3__112basic_stringIcNS_11char_traitsIcEENS_9allocatorIcEEE13__fits_in_ssoB8ue170006Em, symObjAddr: 0xEE10, symBinAddr: 0x100014CE0, symSize: 0x20 }
  - { offsetInCU: 0x3BB31, offset: 0x59CF4, size: 0x8, addend: 0x0, symName: __ZNSt3__112basic_stringIcNS_11char_traitsIcEENS_9allocatorIcEEE11__recommendB8ue170006Em, symObjAddr: 0xEE30, symBinAddr: 0x100014D00, symSize: 0x70 }
  - { offsetInCU: 0x3BB64, offset: 0x59D27, size: 0x8, addend: 0x0, symName: __ZNSt3__116allocator_traitsINS_9allocatorIcEEE8allocateB8ue170006ERS2_m, symObjAddr: 0xEEA0, symBinAddr: 0x100014D70, symSize: 0x30 }
  - { offsetInCU: 0x3BB97, offset: 0x59D5A, size: 0x8, addend: 0x0, symName: __ZNSt3__112basic_stringIcNS_11char_traitsIcEENS_9allocatorIcEEE16__begin_lifetimeB8ue170006EPcm, symObjAddr: 0xEED0, symBinAddr: 0x100014DA0, symSize: 0x10 }
  - { offsetInCU: 0x3BBCA, offset: 0x59D8D, size: 0x8, addend: 0x0, symName: __ZNSt3__112basic_stringIcNS_11char_traitsIcEENS_9allocatorIcEEE14__set_long_capB8ue170006Em, symObjAddr: 0xEEE0, symBinAddr: 0x100014DB0, symSize: 0x70 }
  - { offsetInCU: 0x3BBFF, offset: 0x59DC2, size: 0x8, addend: 0x0, symName: __ZNSt3__112basic_stringIcNS_11char_traitsIcEENS_9allocatorIcEEE18__set_long_pointerB8ue170006EPc, symObjAddr: 0xEF50, symBinAddr: 0x100014E20, symSize: 0x30 }
  - { offsetInCU: 0x3BC34, offset: 0x59DF7, size: 0x8, addend: 0x0, symName: __ZNSt3__112basic_stringIcNS_11char_traitsIcEENS_9allocatorIcEEE10__align_itB8ue170006ILm16EEEmm, symObjAddr: 0xEFD0, symBinAddr: 0x100014E50, symSize: 0x20 }
  - { offsetInCU: 0x3BC62, offset: 0x59E25, size: 0x8, addend: 0x0, symName: __ZNSt3__19allocatorIcE8allocateB8ue170006Em, symObjAddr: 0xEFF0, symBinAddr: 0x100014E70, symSize: 0x50 }
  - { offsetInCU: 0x3BCBA, offset: 0x59E7D, size: 0x8, addend: 0x0, symName: __ZNKSt3__114__copy_trivialclB8ue170006IKccLi0EEENS_4pairIPT_PT0_EES5_S5_S7_, symObjAddr: 0xF240, symBinAddr: 0x1000150C0, symSize: 0x40 }
  - { offsetInCU: 0x3BD28, offset: 0x59EEB, size: 0x8, addend: 0x0, symName: __ZNSt3__14pairIPKcS2_EC1B8ue170006IS2_S2_LPv0EEEOT_OT0_, symObjAddr: 0xF390, symBinAddr: 0x100015210, symSize: 0x30 }
  - { offsetInCU: 0x3BD86, offset: 0x59F49, size: 0x8, addend: 0x0, symName: __ZNSt3__14pairIPKcS2_EC2B8ue170006IS2_S2_LPv0EEEOT_OT0_, symObjAddr: 0xF3C0, symBinAddr: 0x100015240, symSize: 0x30 }
  - { offsetInCU: 0x3BDE4, offset: 0x59FA7, size: 0x8, addend: 0x0, symName: __ZNSt3__118__unwrap_iter_implIPKcLb1EE8__unwrapB8ue170006ES2_, symObjAddr: 0xF3F0, symBinAddr: 0x100015270, symSize: 0x20 }
  - { offsetInCU: 0x3BE12, offset: 0x59FD5, size: 0x8, addend: 0x0, symName: __ZNSt3__14pairIPKcPcEC1B8ue170006IRS2_S3_LPv0EEEOT_OT0_, symObjAddr: 0xF500, symBinAddr: 0x100015380, symSize: 0x30 }
  - { offsetInCU: 0x3BE70, offset: 0x5A033, size: 0x8, addend: 0x0, symName: __ZNSt3__14pairIPKcPcEC2B8ue170006IRS2_S3_LPv0EEEOT_OT0_, symObjAddr: 0xF530, symBinAddr: 0x1000153B0, symSize: 0x30 }
  - { offsetInCU: 0x3BECE, offset: 0x5A091, size: 0x8, addend: 0x0, symName: __ZNSt3__118__unwrap_iter_implIPcLb1EE8__unwrapB8ue170006ES1_, symObjAddr: 0xF560, symBinAddr: 0x1000153E0, symSize: 0x20 }
  - { offsetInCU: 0x3BEF1, offset: 0x5A0B4, size: 0x8, addend: 0x0, symName: __ZNSt3__14pairIPKcPcEC1B8ue170006IS2_S3_LPv0EEEOT_OT0_, symObjAddr: 0xF580, symBinAddr: 0x100015400, symSize: 0x30 }
  - { offsetInCU: 0x3BF4F, offset: 0x5A112, size: 0x8, addend: 0x0, symName: __ZNSt3__14pairIPKcPcEC2B8ue170006IS2_S3_LPv0EEEOT_OT0_, symObjAddr: 0xF5B0, symBinAddr: 0x100015430, symSize: 0x30 }
  - { offsetInCU: 0x3BFAD, offset: 0x5A170, size: 0x8, addend: 0x0, symName: __ZNSt3__118__unwrap_iter_implIPKcLb1EE8__rewrapB8ue170006ES2_S2_, symObjAddr: 0xF620, symBinAddr: 0x1000154A0, symSize: 0x40 }
  - { offsetInCU: 0x3BFDE, offset: 0x5A1A1, size: 0x8, addend: 0x0, symName: __ZNSt3__118__unwrap_iter_implIPcLb1EE8__rewrapB8ue170006ES1_S1_, symObjAddr: 0xF660, symBinAddr: 0x1000154E0, symSize: 0x40 }
  - { offsetInCU: 0x3C00F, offset: 0x5A1D2, size: 0x8, addend: 0x0, symName: __ZNSt3__113basic_ostreamIcNS_11char_traitsIcEEEC2B8ue170006EPNS_15basic_streambufIcS2_EE, symObjAddr: 0xF780, symBinAddr: 0x1000155C0, symSize: 0x50 }
  - { offsetInCU: 0x3C054, offset: 0x5A217, size: 0x8, addend: 0x0, symName: __ZNSt3__113basic_filebufIcNS_11char_traitsIcEEE4openERKNS_12basic_stringIcS2_NS_9allocatorIcEEEEj, symObjAddr: 0xF7D0, symBinAddr: 0x100015610, symSize: 0x40 }
  - { offsetInCU: 0x3C098, offset: 0x5A25B, size: 0x8, addend: 0x0, symName: __ZNKSt3__112basic_stringIcNS_11char_traitsIcEENS_9allocatorIcEEE5c_strB8ue170006Ev, symObjAddr: 0xF880, symBinAddr: 0x100015650, symSize: 0x20 }
  - { offsetInCU: 0x3C0BE, offset: 0x5A281, size: 0x8, addend: 0x0, symName: __ZNSt3__16vectorI4FileNS_9allocatorIS1_EEE11__make_iterB8ue170006EPS1_, symObjAddr: 0xF8A0, symBinAddr: 0x100015670, symSize: 0x30 }
  - { offsetInCU: 0x3C0F3, offset: 0x5A2B6, size: 0x8, addend: 0x0, symName: __ZNSt3__111__wrap_iterIP4FileEC1B8ue170006ES2_, symObjAddr: 0xF8D0, symBinAddr: 0x1000156A0, symSize: 0x30 }
  - { offsetInCU: 0x3C12B, offset: 0x5A2EE, size: 0x8, addend: 0x0, symName: __ZNSt3__111__wrap_iterIP4FileEC2B8ue170006ES2_, symObjAddr: 0xF900, symBinAddr: 0x1000156D0, symSize: 0x20 }
  - { offsetInCU: 0x3C163, offset: 0x5A326, size: 0x8, addend: 0x0, symName: __ZNSt3__18_IterOpsINS_17_ClassicAlgPolicyEE8distanceB8ue170006INS_11__wrap_iterIP4FileEEEENS_15iterator_traitsIT_E15difference_typeES9_S9_, symObjAddr: 0xFA20, symBinAddr: 0x1000157F0, symSize: 0x40 }
  - { offsetInCU: 0x3C19D, offset: 0x5A360, size: 0x8, addend: 0x0, symName: __ZNSt3__18_IterOpsINS_17_ClassicAlgPolicyEE7advanceB8ue170006INS_11__wrap_iterIP4FileEElEEvRT_T0_, symObjAddr: 0xFA80, symBinAddr: 0x100015830, symSize: 0x30 }
  - { offsetInCU: 0x3C1E0, offset: 0x5A3A3, size: 0x8, addend: 0x0, symName: __ZNKSt3__111__wrap_iterIP4FileEdeB8ue170006Ev, symObjAddr: 0xFB10, symBinAddr: 0x1000158C0, symSize: 0x20 }
  - { offsetInCU: 0x3C239, offset: 0x5A3FC, size: 0x8, addend: 0x0, symName: __ZNK6SorterclERK4FileS2_, symObjAddr: 0xFBA0, symBinAddr: 0x100015940, symSize: 0xC0 }
  - { offsetInCU: 0x3C27B, offset: 0x5A43E, size: 0x8, addend: 0x0, symName: __ZNKSt3__112basic_stringIcNS_11char_traitsIcEENS_9allocatorIcEEE7compareB8ue170006ERKS5_, symObjAddr: 0xFC90, symBinAddr: 0x100015A30, symSize: 0x40 }
  - { offsetInCU: 0x3C2B2, offset: 0x5A475, size: 0x8, addend: 0x0, symName: __ZNKSt3__112basic_stringIcNS_11char_traitsIcEENS_9allocatorIcEEE7compareINS_17basic_string_viewIcS2_EELi0EEEiRKT_, symObjAddr: 0xFCD0, symBinAddr: 0x100015A70, symSize: 0xF0 }
  - { offsetInCU: 0x3C335, offset: 0x5A4F8, size: 0x8, addend: 0x0, symName: __ZNKSt3__112basic_stringIcNS_11char_traitsIcEENS_9allocatorIcEEEcvNS_17basic_string_viewIcS2_EEB8ue170006Ev, symObjAddr: 0xFDC0, symBinAddr: 0x100015B60, symSize: 0x50 }
  - { offsetInCU: 0x3C35B, offset: 0x5A51E, size: 0x8, addend: 0x0, symName: __ZNKSt3__117basic_string_viewIcNS_11char_traitsIcEEE4sizeB8ue170006Ev, symObjAddr: 0xFE10, symBinAddr: 0x100015BB0, symSize: 0x20 }
  - { offsetInCU: 0x3C381, offset: 0x5A544, size: 0x8, addend: 0x0, symName: __ZNKSt3__117basic_string_viewIcNS_11char_traitsIcEEE4dataB8ue170006Ev, symObjAddr: 0xFE30, symBinAddr: 0x100015BD0, symSize: 0x20 }
  - { offsetInCU: 0x3C3A7, offset: 0x5A56A, size: 0x8, addend: 0x0, symName: __ZNSt3__117basic_string_viewIcNS_11char_traitsIcEEEC1B8ue170006EPKcm, symObjAddr: 0xFE50, symBinAddr: 0x100015BF0, symSize: 0x30 }
  - { offsetInCU: 0x3C3EF, offset: 0x5A5B2, size: 0x8, addend: 0x0, symName: __ZNSt3__117basic_string_viewIcNS_11char_traitsIcEEEC2B8ue170006EPKcm, symObjAddr: 0xFE80, symBinAddr: 0x100015C20, symSize: 0x30 }
  - { offsetInCU: 0x3C441, offset: 0x5A604, size: 0x8, addend: 0x0, symName: __ZNKSt3__110__identityclB8ue170006IR4FileEEOT_S5_, symObjAddr: 0xFEB0, symBinAddr: 0x100015C50, symSize: 0x20 }
  - { offsetInCU: 0x3C47E, offset: 0x5A641, size: 0x8, addend: 0x0, symName: __ZNSt3__16vectorI4FileNS_9allocatorIS1_EEE9__end_capB8ue170006Ev, symObjAddr: 0xFF10, symBinAddr: 0x100015CB0, symSize: 0x20 }
  - { offsetInCU: 0x3C4A4, offset: 0x5A667, size: 0x8, addend: 0x0, symName: __ZNSt3__16vectorI4FileNS_9allocatorIS1_EEE22__construct_one_at_endB8ue170006IJS1_EEEvDpOT_, symObjAddr: 0xFF30, symBinAddr: 0x100015CD0, symSize: 0x90 }
  - { offsetInCU: 0x3C4F3, offset: 0x5A6B6, size: 0x8, addend: 0x0, symName: __ZNSt3__16vectorI4FileNS_9allocatorIS1_EEE12__move_rangeEPS1_S5_S5_, symObjAddr: 0xFFC0, symBinAddr: 0x100015D60, symSize: 0x130 }
  - { offsetInCU: 0x3C5B1, offset: 0x5A774, size: 0x8, addend: 0x0, symName: __ZN4FileaSEOS_, symObjAddr: 0x100F0, symBinAddr: 0x100015E90, symSize: 0x70 }
  - { offsetInCU: 0x3C5E2, offset: 0x5A7A5, size: 0x8, addend: 0x0, symName: __ZNKSt3__16vectorI4FileNS_9allocatorIS1_EEE11__recommendB8ue170006Em, symObjAddr: 0x10180, symBinAddr: 0x100015F00, symSize: 0xA0 }
  - { offsetInCU: 0x3C637, offset: 0x5A7FA, size: 0x8, addend: 0x0, symName: __ZNSt3__114__split_bufferI4FileRNS_9allocatorIS1_EEEC1EmmS4_, symObjAddr: 0x10220, symBinAddr: 0x100015FA0, symSize: 0x40 }
  - { offsetInCU: 0x3C68D, offset: 0x5A850, size: 0x8, addend: 0x0, symName: __ZNSt3__114__split_bufferI4FileRNS_9allocatorIS1_EEE9push_backEOS1_, symObjAddr: 0x10260, symBinAddr: 0x100015FE0, symSize: 0x2A0 }
  - { offsetInCU: 0x3C705, offset: 0x5A8C8, size: 0x8, addend: 0x0, symName: __ZNSt3__114__split_bufferI4FileRNS_9allocatorIS1_EEED1Ev, symObjAddr: 0x10660, symBinAddr: 0x1000163E0, symSize: 0x20 }
  - { offsetInCU: 0x3C731, offset: 0x5A8F4, size: 0x8, addend: 0x0, symName: __ZNSt3__117__compressed_pairIP4FileNS_9allocatorIS1_EEE5firstB8ue170006Ev, symObjAddr: 0x106A0, symBinAddr: 0x100016400, symSize: 0x20 }
  - { offsetInCU: 0x3C757, offset: 0x5A91A, size: 0x8, addend: 0x0, symName: __ZNSt3__122__compressed_pair_elemIP4FileLi0ELb0EE5__getB8ue170006Ev, symObjAddr: 0x106C0, symBinAddr: 0x100016420, symSize: 0x10 }
  - { offsetInCU: 0x3C796, offset: 0x5A959, size: 0x8, addend: 0x0, symName: __ZNSt3__16vectorI4FileNS_9allocatorIS1_EEE21_ConstructTransactionC1B8ue170006ERS4_m, symObjAddr: 0x106D0, symBinAddr: 0x100016430, symSize: 0x30 }
  - { offsetInCU: 0x3C7DE, offset: 0x5A9A1, size: 0x8, addend: 0x0, symName: __ZNSt3__116allocator_traitsINS_9allocatorI4FileEEE9constructB8ue170006IS2_JS2_EvEEvRS3_PT_DpOT0_, symObjAddr: 0x10700, symBinAddr: 0x100016460, symSize: 0x30 }
  - { offsetInCU: 0x3C835, offset: 0x5A9F8, size: 0x8, addend: 0x0, symName: __ZNSt3__16vectorI4FileNS_9allocatorIS1_EEE21_ConstructTransactionD1B8ue170006Ev, symObjAddr: 0x10730, symBinAddr: 0x100016490, symSize: 0x20 }
  - { offsetInCU: 0x3C85F, offset: 0x5AA22, size: 0x8, addend: 0x0, symName: __ZNSt3__16vectorI4FileNS_9allocatorIS1_EEE21_ConstructTransactionC2B8ue170006ERS4_m, symObjAddr: 0x10750, symBinAddr: 0x1000164B0, symSize: 0x40 }
  - { offsetInCU: 0x3C8A7, offset: 0x5AA6A, size: 0x8, addend: 0x0, symName: __ZNSt3__19allocatorI4FileE9constructB8ue170006IS1_JS1_EEEvPT_DpOT0_, symObjAddr: 0x10790, symBinAddr: 0x1000164F0, symSize: 0x30 }
  - { offsetInCU: 0x3C8FD, offset: 0x5AAC0, size: 0x8, addend: 0x0, symName: __ZN4FileC1EOS_, symObjAddr: 0x107C0, symBinAddr: 0x100016520, symSize: 0x30 }
  - { offsetInCU: 0x3C932, offset: 0x5AAF5, size: 0x8, addend: 0x0, symName: __ZN4FileC2EOS_, symObjAddr: 0x107F0, symBinAddr: 0x100016550, symSize: 0x70 }
  - { offsetInCU: 0x3C967, offset: 0x5AB2A, size: 0x8, addend: 0x0, symName: __ZNSt3__16vectorINS_12basic_stringIcNS_11char_traitsIcEENS_9allocatorIcEEEENS4_IS6_EEEC1B8ue170006EOS8_, symObjAddr: 0x10860, symBinAddr: 0x1000165C0, symSize: 0x30 }
  - { offsetInCU: 0x3C9A2, offset: 0x5AB65, size: 0x8, addend: 0x0, symName: __ZNSt3__16vectorINS_12basic_stringIcNS_11char_traitsIcEENS_9allocatorIcEEEENS4_IS6_EEEC2B8ue170006EOS8_, symObjAddr: 0x10890, symBinAddr: 0x1000165F0, symSize: 0xD0 }
  - { offsetInCU: 0x3C9DD, offset: 0x5ABA0, size: 0x8, addend: 0x0, symName: __ZNSt3__16vectorI4FileNS_9allocatorIS1_EEE21_ConstructTransactionD2B8ue170006Ev, symObjAddr: 0x10960, symBinAddr: 0x1000166C0, symSize: 0x20 }
  - { offsetInCU: 0x3CA2B, offset: 0x5ABEE, size: 0x8, addend: 0x0, symName: __ZNKSt3__120__move_backward_loopINS_17_ClassicAlgPolicyEEclB8ue170006IP4FileS5_S5_EENS_4pairIT_T1_EES7_T0_S8_, symObjAddr: 0x10B40, symBinAddr: 0x1000168A0, symSize: 0x90 }
  - { offsetInCU: 0x3CAB2, offset: 0x5AC75, size: 0x8, addend: 0x0, symName: __ZNSt3__18_IterOpsINS_17_ClassicAlgPolicyEE4nextB8ue170006IP4FileEET_S6_S6_, symObjAddr: 0x10C90, symBinAddr: 0x1000169F0, symSize: 0x20 }
  - { offsetInCU: 0x3CAE8, offset: 0x5ACAB, size: 0x8, addend: 0x0, symName: __ZNSt3__18_IterOpsINS_17_ClassicAlgPolicyEE11__iter_moveB8ue170006IRP4FileEENS_9enable_ifIXsr12is_referenceIDTdeclsr3stdE7declvalIRT_EEEEE5valueEDTclsr3stdE4movedeclsr3stdE7declvalIS9_EEEEE4typeEOS8_, symObjAddr: 0x10CB0, symBinAddr: 0x100016A10, symSize: 0x20 }
  - { offsetInCU: 0x3CB14, offset: 0x5ACD7, size: 0x8, addend: 0x0, symName: __ZNSt3__18_IterOpsINS_17_ClassicAlgPolicyEE25__validate_iter_referenceB8ue170006IRP4FileEEvv, symObjAddr: 0x10CD0, symBinAddr: 0x100016A30, symSize: 0x10 }
  - { offsetInCU: 0x3CB32, offset: 0x5ACF5, size: 0x8, addend: 0x0, symName: __ZNSt3__118__unwrap_iter_implIP4FileLb1EE8__unwrapB8ue170006ES2_, symObjAddr: 0x10CE0, symBinAddr: 0x100016A40, symSize: 0x20 }
  - { offsetInCU: 0x3CB5B, offset: 0x5AD1E, size: 0x8, addend: 0x0, symName: __ZNSt3__14pairIP4FileS2_EC1B8ue170006IS2_S2_LPv0EEEOT_OT0_, symObjAddr: 0x10D00, symBinAddr: 0x100016A60, symSize: 0x30 }
  - { offsetInCU: 0x3CBB9, offset: 0x5AD7C, size: 0x8, addend: 0x0, symName: __ZNSt3__14pairIP4FileS2_EC2B8ue170006IS2_S2_LPv0EEEOT_OT0_, symObjAddr: 0x10D30, symBinAddr: 0x100016A90, symSize: 0x30 }
  - { offsetInCU: 0x3CC17, offset: 0x5ADDA, size: 0x8, addend: 0x0, symName: __ZNSt3__118__unwrap_iter_implIP4FileLb1EE8__rewrapB8ue170006ES2_S2_, symObjAddr: 0x10D60, symBinAddr: 0x100016AC0, symSize: 0x60 }
  - { offsetInCU: 0x3CC48, offset: 0x5AE0B, size: 0x8, addend: 0x0, symName: __ZNSt3__16vectorINS_12basic_stringIcNS_11char_traitsIcEENS_9allocatorIcEEEENS4_IS6_EEEaSB8ue170006EOS8_, symObjAddr: 0x10DC0, symBinAddr: 0x100016B20, symSize: 0x30 }
  - { offsetInCU: 0x3CC7F, offset: 0x5AE42, size: 0x8, addend: 0x0, symName: __ZNSt3__16vectorINS_12basic_stringIcNS_11char_traitsIcEENS_9allocatorIcEEEENS4_IS6_EEE13__move_assignERS8_NS_17integral_constantIbLb1EEE, symObjAddr: 0x10DF0, symBinAddr: 0x100016B50, symSize: 0xA0 }
  - { offsetInCU: 0x3CCC1, offset: 0x5AE84, size: 0x8, addend: 0x0, symName: __ZNSt3__16vectorINS_12basic_stringIcNS_11char_traitsIcEENS_9allocatorIcEEEENS4_IS6_EEE13__vdeallocateEv, symObjAddr: 0x10E90, symBinAddr: 0x100016BF0, symSize: 0x90 }
  - { offsetInCU: 0x3CCE9, offset: 0x5AEAC, size: 0x8, addend: 0x0, symName: __ZNSt3__16vectorINS_12basic_stringIcNS_11char_traitsIcEENS_9allocatorIcEEEENS4_IS6_EEE19__move_assign_allocB8ue170006ERS8_, symObjAddr: 0x10F20, symBinAddr: 0x100016C80, symSize: 0x30 }
  - { offsetInCU: 0x3CD1E, offset: 0x5AEE1, size: 0x8, addend: 0x0, symName: __ZNSt3__16vectorINS_12basic_stringIcNS_11char_traitsIcEENS_9allocatorIcEEEENS4_IS6_EEE19__move_assign_allocB8ue170006ERS8_NS_17integral_constantIbLb1EEE, symObjAddr: 0x10F50, symBinAddr: 0x100016CB0, symSize: 0x30 }
  - { offsetInCU: 0x3CD5E, offset: 0x5AF21, size: 0x8, addend: 0x0, symName: __ZNKSt3__16vectorI4FileNS_9allocatorIS1_EEE8max_sizeEv, symObjAddr: 0x10FB0, symBinAddr: 0x100016CE0, symSize: 0x60 }
  - { offsetInCU: 0x3CD86, offset: 0x5AF49, size: 0x8, addend: 0x0, symName: __ZNKSt3__16vectorI4FileNS_9allocatorIS1_EEE20__throw_length_errorB8ue170006Ev, symObjAddr: 0x11010, symBinAddr: 0x100016D40, symSize: 0x20 }
  - { offsetInCU: 0x3CDB6, offset: 0x5AF79, size: 0x8, addend: 0x0, symName: __ZNSt3__116allocator_traitsINS_9allocatorI4FileEEE8max_sizeB8ue170006IS3_vEEmRKS3_, symObjAddr: 0x11070, symBinAddr: 0x100016D60, symSize: 0x20 }
  - { offsetInCU: 0x3CDE4, offset: 0x5AFA7, size: 0x8, addend: 0x0, symName: __ZNKSt3__16vectorI4FileNS_9allocatorIS1_EEE7__allocB8ue170006Ev, symObjAddr: 0x11090, symBinAddr: 0x100016D80, symSize: 0x20 }
  - { offsetInCU: 0x3CE0A, offset: 0x5AFCD, size: 0x8, addend: 0x0, symName: __ZNKSt3__19allocatorI4FileE8max_sizeB8ue170006Ev, symObjAddr: 0x110B0, symBinAddr: 0x100016DA0, symSize: 0x20 }
  - { offsetInCU: 0x3CE30, offset: 0x5AFF3, size: 0x8, addend: 0x0, symName: __ZNKSt3__117__compressed_pairIP4FileNS_9allocatorIS1_EEE6secondB8ue170006Ev, symObjAddr: 0x110D0, symBinAddr: 0x100016DC0, symSize: 0x20 }
  - { offsetInCU: 0x3CE56, offset: 0x5B019, size: 0x8, addend: 0x0, symName: __ZNKSt3__122__compressed_pair_elemINS_9allocatorI4FileEELi1ELb1EE5__getB8ue170006Ev, symObjAddr: 0x110F0, symBinAddr: 0x100016DE0, symSize: 0x10 }
  - { offsetInCU: 0x3CE7C, offset: 0x5B03F, size: 0x8, addend: 0x0, symName: __ZNSt3__114__split_bufferI4FileRNS_9allocatorIS1_EEEC2EmmS4_, symObjAddr: 0x11150, symBinAddr: 0x100016DF0, symSize: 0xC0 }
  - { offsetInCU: 0x3CEEF, offset: 0x5B0B2, size: 0x8, addend: 0x0, symName: __ZNSt3__117__compressed_pairIP4FileRNS_9allocatorIS1_EEEC1B8ue170006IDnS5_EEOT_OT0_, symObjAddr: 0x11210, symBinAddr: 0x100016EB0, symSize: 0x30 }
  - { offsetInCU: 0x3CF47, offset: 0x5B10A, size: 0x8, addend: 0x0, symName: __ZNSt3__114__split_bufferI4FileRNS_9allocatorIS1_EEE7__allocB8ue170006Ev, symObjAddr: 0x11280, symBinAddr: 0x100016F20, symSize: 0x20 }
  - { offsetInCU: 0x3CF6D, offset: 0x5B130, size: 0x8, addend: 0x0, symName: __ZNSt3__114__split_bufferI4FileRNS_9allocatorIS1_EEE9__end_capB8ue170006Ev, symObjAddr: 0x112A0, symBinAddr: 0x100016F40, symSize: 0x20 }
  - { offsetInCU: 0x3CF93, offset: 0x5B156, size: 0x8, addend: 0x0, symName: __ZNSt3__117__compressed_pairIP4FileRNS_9allocatorIS1_EEEC2B8ue170006IDnS5_EEOT_OT0_, symObjAddr: 0x112C0, symBinAddr: 0x100016F60, symSize: 0x40 }
  - { offsetInCU: 0x3CFEB, offset: 0x5B1AE, size: 0x8, addend: 0x0, symName: __ZNSt3__122__compressed_pair_elemIRNS_9allocatorI4FileEELi1ELb0EEC2B8ue170006IS4_vEEOT_, symObjAddr: 0x11320, symBinAddr: 0x100016FA0, symSize: 0x20 }
  - { offsetInCU: 0x3D02D, offset: 0x5B1F0, size: 0x8, addend: 0x0, symName: __ZNSt3__19allocatorI4FileE8allocateB8ue170006Em, symObjAddr: 0x11340, symBinAddr: 0x100016FC0, symSize: 0x50 }
  - { offsetInCU: 0x3D061, offset: 0x5B224, size: 0x8, addend: 0x0, symName: __ZNSt3__117__compressed_pairIP4FileRNS_9allocatorIS1_EEE6secondB8ue170006Ev, symObjAddr: 0x11390, symBinAddr: 0x100017010, symSize: 0x20 }
  - { offsetInCU: 0x3D087, offset: 0x5B24A, size: 0x8, addend: 0x0, symName: __ZNSt3__122__compressed_pair_elemIRNS_9allocatorI4FileEELi1ELb0EE5__getB8ue170006Ev, symObjAddr: 0x113B0, symBinAddr: 0x100017030, symSize: 0x20 }
  - { offsetInCU: 0x3D0AD, offset: 0x5B270, size: 0x8, addend: 0x0, symName: __ZNSt3__117__compressed_pairIP4FileRNS_9allocatorIS1_EEE5firstB8ue170006Ev, symObjAddr: 0x113D0, symBinAddr: 0x100017050, symSize: 0x20 }
  - { offsetInCU: 0x3D0D3, offset: 0x5B296, size: 0x8, addend: 0x0, symName: __ZNSt3__114__split_bufferI4FileRNS_9allocatorIS1_EEE18__construct_at_endINS_13move_iteratorIPS1_EEEENS_9enable_ifIXsr31__has_forward_iterator_categoryIT_EE5valueEvE4typeESB_SB_, symObjAddr: 0x11430, symBinAddr: 0x1000170B0, symSize: 0x60 }
  - { offsetInCU: 0x3D120, offset: 0x5B2E3, size: 0x8, addend: 0x0, symName: __ZNSt3__113move_iteratorIP4FileEC1B8ue170006ES2_, symObjAddr: 0x11490, symBinAddr: 0x100017110, symSize: 0x30 }
  - { offsetInCU: 0x3D158, offset: 0x5B31B, size: 0x8, addend: 0x0, symName: __ZNKSt3__111__move_loopINS_17_ClassicAlgPolicyEEclB8ue170006IP4FileS5_S5_EENS_4pairIT_T1_EES7_T0_S8_, symObjAddr: 0x11630, symBinAddr: 0x1000172B0, symSize: 0x80 }
  - { offsetInCU: 0x3D1C3, offset: 0x5B386, size: 0x8, addend: 0x0, symName: __ZNSt3__114__split_bufferI4FileRNS_9allocatorIS1_EEE28__construct_at_end_with_sizeINS_13move_iteratorIPS1_EEEEvT_m, symObjAddr: 0x116B0, symBinAddr: 0x100017330, symSize: 0xE0 }
  - { offsetInCU: 0x3D229, offset: 0x5B3EC, size: 0x8, addend: 0x0, symName: __ZNSt3__114__split_bufferI4FileRNS_9allocatorIS1_EEE21_ConstructTransactionC1B8ue170006EPPS1_m, symObjAddr: 0x117D0, symBinAddr: 0x100017450, symSize: 0x30 }
  - { offsetInCU: 0x3D26F, offset: 0x5B432, size: 0x8, addend: 0x0, symName: __ZNKSt3__113move_iteratorIP4FileEdeB8ue170006Ev, symObjAddr: 0x11800, symBinAddr: 0x100017480, symSize: 0x20 }
  - { offsetInCU: 0x3D295, offset: 0x5B458, size: 0x8, addend: 0x0, symName: __ZNSt3__113move_iteratorIP4FileEppB8ue170006Ev, symObjAddr: 0x11820, symBinAddr: 0x1000174A0, symSize: 0x20 }
  - { offsetInCU: 0x3D2BB, offset: 0x5B47E, size: 0x8, addend: 0x0, symName: __ZNSt3__114__split_bufferI4FileRNS_9allocatorIS1_EEE21_ConstructTransactionD1B8ue170006Ev, symObjAddr: 0x11840, symBinAddr: 0x1000174C0, symSize: 0x20 }
  - { offsetInCU: 0x3D2E5, offset: 0x5B4A8, size: 0x8, addend: 0x0, symName: __ZNSt3__114__split_bufferI4FileRNS_9allocatorIS1_EEE21_ConstructTransactionC2B8ue170006EPPS1_m, symObjAddr: 0x11860, symBinAddr: 0x1000174E0, symSize: 0x40 }
  - { offsetInCU: 0x3D32B, offset: 0x5B4EE, size: 0x8, addend: 0x0, symName: __ZNSt3__114__split_bufferI4FileRNS_9allocatorIS1_EEE21_ConstructTransactionD2B8ue170006Ev, symObjAddr: 0x118A0, symBinAddr: 0x100017520, symSize: 0x20 }
  - { offsetInCU: 0x3D355, offset: 0x5B518, size: 0x8, addend: 0x0, symName: __ZNKSt3__113move_iteratorIP4FileE4baseB8ue170006Ev, symObjAddr: 0x11930, symBinAddr: 0x1000175B0, symSize: 0x20 }
  - { offsetInCU: 0x3D37B, offset: 0x5B53E, size: 0x8, addend: 0x0, symName: __ZNSt3__113move_iteratorIP4FileEC2B8ue170006ES2_, symObjAddr: 0x11950, symBinAddr: 0x1000175D0, symSize: 0x20 }
  - { offsetInCU: 0x3D3B3, offset: 0x5B576, size: 0x8, addend: 0x0, symName: __ZNSt3__116reverse_iteratorIP4FileEC1B8ue170006ES2_, symObjAddr: 0x11BA0, symBinAddr: 0x100017770, symSize: 0x30 }
  - { offsetInCU: 0x3D3EB, offset: 0x5B5AE, size: 0x8, addend: 0x0, symName: __ZNKSt3__116reverse_iteratorIP4FileE4baseB8ue170006Ev, symObjAddr: 0x11BD0, symBinAddr: 0x1000177A0, symSize: 0x20 }
  - { offsetInCU: 0x3D411, offset: 0x5B5D4, size: 0x8, addend: 0x0, symName: __ZNKSt3__16vectorI4FileNS_9allocatorIS1_EEE14__annotate_newB8ue170006Em, symObjAddr: 0x11CF0, symBinAddr: 0x1000178C0, symSize: 0xA0 }
  - { offsetInCU: 0x3D446, offset: 0x5B609, size: 0x8, addend: 0x0, symName: __ZNSt3__129_AllocatorDestroyRangeReverseINS_9allocatorI4FileEENS_16reverse_iteratorIPS2_EEEC1B8ue170006ERS3_RS6_S9_, symObjAddr: 0x11E30, symBinAddr: 0x1000179C0, symSize: 0x40 }
  - { offsetInCU: 0x3D49D, offset: 0x5B660, size: 0x8, addend: 0x0, symName: __ZNKSt3__116reverse_iteratorIP4FileEdeB8ue170006Ev, symObjAddr: 0x11ED0, symBinAddr: 0x100017A60, symSize: 0x30 }
  - { offsetInCU: 0x3D4D1, offset: 0x5B694, size: 0x8, addend: 0x0, symName: __ZNSt3__116reverse_iteratorIP4FileEppB8ue170006Ev, symObjAddr: 0x11F00, symBinAddr: 0x100017A90, symSize: 0x20 }
  - { offsetInCU: 0x3D4F7, offset: 0x5B6BA, size: 0x8, addend: 0x0, symName: __ZNSt3__128__exception_guard_exceptionsINS_29_AllocatorDestroyRangeReverseINS_9allocatorI4FileEENS_16reverse_iteratorIPS3_EEEEE10__completeB8ue170006Ev, symObjAddr: 0x11F20, symBinAddr: 0x100017AB0, symSize: 0x20 }
  - { offsetInCU: 0x3D51D, offset: 0x5B6E0, size: 0x8, addend: 0x0, symName: __ZNSt3__128__exception_guard_exceptionsINS_29_AllocatorDestroyRangeReverseINS_9allocatorI4FileEENS_16reverse_iteratorIPS3_EEEEED1B8ue170006Ev, symObjAddr: 0x11F40, symBinAddr: 0x100017AD0, symSize: 0x20 }
  - { offsetInCU: 0x3D547, offset: 0x5B70A, size: 0x8, addend: 0x0, symName: __ZNSt3__128__exception_guard_exceptionsINS_29_AllocatorDestroyRangeReverseINS_9allocatorI4FileEENS_16reverse_iteratorIPS3_EEEEEC1B8ue170006ES8_, symObjAddr: 0x11F60, symBinAddr: 0x100017AF0, symSize: 0x40 }
  - { offsetInCU: 0x3D57F, offset: 0x5B742, size: 0x8, addend: 0x0, symName: __ZNSt3__128__exception_guard_exceptionsINS_29_AllocatorDestroyRangeReverseINS_9allocatorI4FileEENS_16reverse_iteratorIPS3_EEEEEC2B8ue170006ES8_, symObjAddr: 0x11FA0, symBinAddr: 0x100017B30, symSize: 0x30 }
  - { offsetInCU: 0x3D5B7, offset: 0x5B77A, size: 0x8, addend: 0x0, symName: __ZNSt3__129_AllocatorDestroyRangeReverseINS_9allocatorI4FileEENS_16reverse_iteratorIPS2_EEEC2B8ue170006ERS3_RS6_S9_, symObjAddr: 0x11FD0, symBinAddr: 0x100017B60, symSize: 0x40 }
  - { offsetInCU: 0x3D613, offset: 0x5B7D6, size: 0x8, addend: 0x0, symName: __ZNSt3__119__to_address_helperINS_16reverse_iteratorIP4FileEEvE6__callB8ue170006ERKS4_, symObjAddr: 0x12010, symBinAddr: 0x100017BA0, symSize: 0x40 }
  - { offsetInCU: 0x3D636, offset: 0x5B7F9, size: 0x8, addend: 0x0, symName: __ZNKSt3__116reverse_iteratorIP4FileEptB8ue170006Ev, symObjAddr: 0x12050, symBinAddr: 0x100017BE0, symSize: 0x20 }
  - { offsetInCU: 0x3D65C, offset: 0x5B81F, size: 0x8, addend: 0x0, symName: __ZNSt3__128__exception_guard_exceptionsINS_29_AllocatorDestroyRangeReverseINS_9allocatorI4FileEENS_16reverse_iteratorIPS3_EEEEED2B8ue170006Ev, symObjAddr: 0x12070, symBinAddr: 0x100017C00, symSize: 0x40 }
  - { offsetInCU: 0x3D686, offset: 0x5B849, size: 0x8, addend: 0x0, symName: __ZNKSt3__129_AllocatorDestroyRangeReverseINS_9allocatorI4FileEENS_16reverse_iteratorIPS2_EEEclB8ue170006Ev, symObjAddr: 0x120B0, symBinAddr: 0x100017C40, symSize: 0xF0 }
  - { offsetInCU: 0x3D6AD, offset: 0x5B870, size: 0x8, addend: 0x0, symName: __ZNSt3__116reverse_iteratorINS0_IP4FileEEEC1B8ue170006ES3_, symObjAddr: 0x12210, symBinAddr: 0x100017DA0, symSize: 0x30 }
  - { offsetInCU: 0x3D6E5, offset: 0x5B8A8, size: 0x8, addend: 0x0, symName: __ZNSt3__116reverse_iteratorINS0_IP4FileEEEppB8ue170006Ev, symObjAddr: 0x122E0, symBinAddr: 0x100017E40, symSize: 0x30 }
  - { offsetInCU: 0x3D70B, offset: 0x5B8CE, size: 0x8, addend: 0x0, symName: __ZNKSt3__116reverse_iteratorINS0_IP4FileEEE4baseB8ue170006Ev, symObjAddr: 0x12310, symBinAddr: 0x100017E70, symSize: 0x20 }
  - { offsetInCU: 0x3D736, offset: 0x5B8F9, size: 0x8, addend: 0x0, symName: __ZNSt3__119__to_address_helperINS_16reverse_iteratorINS1_IP4FileEEEEvE6__callB8ue170006ERKS5_, symObjAddr: 0x12350, symBinAddr: 0x100017E90, symSize: 0x40 }
  - { offsetInCU: 0x3D759, offset: 0x5B91C, size: 0x8, addend: 0x0, symName: __ZNKSt3__116reverse_iteratorINS0_IP4FileEEEptB8ue170006Ev, symObjAddr: 0x12390, symBinAddr: 0x100017ED0, symSize: 0x20 }
  - { offsetInCU: 0x3D77F, offset: 0x5B942, size: 0x8, addend: 0x0, symName: __ZNKSt3__116reverse_iteratorINS0_IP4FileEEEdeB8ue170006Ev, symObjAddr: 0x123B0, symBinAddr: 0x100017EF0, symSize: 0x40 }
  - { offsetInCU: 0x3D7B3, offset: 0x5B976, size: 0x8, addend: 0x0, symName: __ZNSt3__116reverse_iteratorIP4FileEmmB8ue170006Ev, symObjAddr: 0x123F0, symBinAddr: 0x100017F30, symSize: 0x20 }
  - { offsetInCU: 0x3D7D9, offset: 0x5B99C, size: 0x8, addend: 0x0, symName: __ZNSt3__116reverse_iteratorINS0_IP4FileEEEC2B8ue170006ES3_, symObjAddr: 0x12410, symBinAddr: 0x100017F50, symSize: 0x40 }
  - { offsetInCU: 0x3D811, offset: 0x5B9D4, size: 0x8, addend: 0x0, symName: __ZNSt3__116reverse_iteratorIP4FileEC2B8ue170006ES2_, symObjAddr: 0x12450, symBinAddr: 0x100017F90, symSize: 0x30 }
  - { offsetInCU: 0x3D849, offset: 0x5BA0C, size: 0x8, addend: 0x0, symName: __ZNSt3__129_AllocatorDestroyRangeReverseINS_9allocatorI4FileEEPS2_EC1B8ue170006ERS3_RS4_S7_, symObjAddr: 0x124E0, symBinAddr: 0x100018020, symSize: 0x40 }
  - { offsetInCU: 0x3D8A0, offset: 0x5BA63, size: 0x8, addend: 0x0, symName: __ZNSt3__128__exception_guard_exceptionsINS_29_AllocatorDestroyRangeReverseINS_9allocatorI4FileEEPS3_EEE10__completeB8ue170006Ev, symObjAddr: 0x12520, symBinAddr: 0x100018060, symSize: 0x20 }
  - { offsetInCU: 0x3D8C6, offset: 0x5BA89, size: 0x8, addend: 0x0, symName: __ZNSt3__128__exception_guard_exceptionsINS_29_AllocatorDestroyRangeReverseINS_9allocatorI4FileEEPS3_EEED1B8ue170006Ev, symObjAddr: 0x12540, symBinAddr: 0x100018080, symSize: 0x20 }
  - { offsetInCU: 0x3D8F0, offset: 0x5BAB3, size: 0x8, addend: 0x0, symName: __ZNSt3__128__exception_guard_exceptionsINS_29_AllocatorDestroyRangeReverseINS_9allocatorI4FileEEPS3_EEEC1B8ue170006ES6_, symObjAddr: 0x12560, symBinAddr: 0x1000180A0, symSize: 0x40 }
  - { offsetInCU: 0x3D928, offset: 0x5BAEB, size: 0x8, addend: 0x0, symName: __ZNSt3__128__exception_guard_exceptionsINS_29_AllocatorDestroyRangeReverseINS_9allocatorI4FileEEPS3_EEEC2B8ue170006ES6_, symObjAddr: 0x125A0, symBinAddr: 0x1000180E0, symSize: 0x30 }
  - { offsetInCU: 0x3D960, offset: 0x5BB23, size: 0x8, addend: 0x0, symName: __ZNSt3__129_AllocatorDestroyRangeReverseINS_9allocatorI4FileEEPS2_EC2B8ue170006ERS3_RS4_S7_, symObjAddr: 0x125D0, symBinAddr: 0x100018110, symSize: 0x40 }
  - { offsetInCU: 0x3D9B7, offset: 0x5BB7A, size: 0x8, addend: 0x0, symName: __ZNSt3__128__exception_guard_exceptionsINS_29_AllocatorDestroyRangeReverseINS_9allocatorI4FileEEPS3_EEED2B8ue170006Ev, symObjAddr: 0x12610, symBinAddr: 0x100018150, symSize: 0x40 }
  - { offsetInCU: 0x3D9E1, offset: 0x5BBA4, size: 0x8, addend: 0x0, symName: __ZNKSt3__129_AllocatorDestroyRangeReverseINS_9allocatorI4FileEEPS2_EclB8ue170006Ev, symObjAddr: 0x12650, symBinAddr: 0x100018190, symSize: 0x60 }
  - { offsetInCU: 0x3DA07, offset: 0x5BBCA, size: 0x8, addend: 0x0, symName: __ZNSt3__114__split_bufferI4FileRNS_9allocatorIS1_EEED2Ev, symObjAddr: 0x12720, symBinAddr: 0x100018260, symSize: 0x70 }
  - { offsetInCU: 0x3DA33, offset: 0x5BBF6, size: 0x8, addend: 0x0, symName: __ZNSt3__114__split_bufferI4FileRNS_9allocatorIS1_EEE5clearB8ue170006Ev, symObjAddr: 0x12790, symBinAddr: 0x1000182D0, symSize: 0x20 }
  - { offsetInCU: 0x3DA59, offset: 0x5BC1C, size: 0x8, addend: 0x0, symName: __ZNKSt3__114__split_bufferI4FileRNS_9allocatorIS1_EEE8capacityB8ue170006Ev, symObjAddr: 0x127E0, symBinAddr: 0x1000182F0, symSize: 0x40 }
  - { offsetInCU: 0x3DA7F, offset: 0x5BC42, size: 0x8, addend: 0x0, symName: __ZNSt3__114__split_bufferI4FileRNS_9allocatorIS1_EEE17__destruct_at_endB8ue170006EPS1_, symObjAddr: 0x12820, symBinAddr: 0x100018330, symSize: 0x30 }
  - { offsetInCU: 0x3DAB3, offset: 0x5BC76, size: 0x8, addend: 0x0, symName: __ZNSt3__114__split_bufferI4FileRNS_9allocatorIS1_EEE17__destruct_at_endB8ue170006EPS1_NS_17integral_constantIbLb0EEE, symObjAddr: 0x12850, symBinAddr: 0x100018360, symSize: 0x80 }
  - { offsetInCU: 0x3DAF3, offset: 0x5BCB6, size: 0x8, addend: 0x0, symName: __ZNKSt3__114__split_bufferI4FileRNS_9allocatorIS1_EEE9__end_capB8ue170006Ev, symObjAddr: 0x12910, symBinAddr: 0x1000183E0, symSize: 0x20 }
  - { offsetInCU: 0x3DB19, offset: 0x5BCDC, size: 0x8, addend: 0x0, symName: __ZNKSt3__117__compressed_pairIP4FileRNS_9allocatorIS1_EEE5firstB8ue170006Ev, symObjAddr: 0x12930, symBinAddr: 0x100018400, symSize: 0x20 }
  - { offsetInCU: 0x3DB3F, offset: 0x5BD02, size: 0x8, addend: 0x0, symName: __ZNSt3__112__hash_tableINS_17__hash_value_typeINS_12basic_stringIcNS_11char_traitsIcEENS_9allocatorIcEEEENS_6vectorIjNS5_IjEEEEEENS_22__unordered_map_hasherIS7_SB_NS_4hashIS7_EENS_8equal_toIS7_EELb1EEENS_21__unordered_map_equalIS7_SB_SG_SE_Lb1EEENS5_ISB_EEE25__emplace_unique_key_argsIS7_JRKNS_21piecewise_construct_tENS_5tupleIJOS7_EEENSQ_IJEEEEEENS_4pairINS_15__hash_iteratorIPNS_11__hash_nodeISB_PvEEEEbEERKT_DpOT0_, symObjAddr: 0x12950, symBinAddr: 0x100018420, symSize: 0x5C0 }
  - { offsetInCU: 0x3DC47, offset: 0x5BE0A, size: 0x8, addend: 0x0, symName: __ZNSt3__112__hash_tableINS_17__hash_value_typeINS_12basic_stringIcNS_11char_traitsIcEENS_9allocatorIcEEEENS_6vectorIjNS5_IjEEEEEENS_22__unordered_map_hasherIS7_SB_NS_4hashIS7_EENS_8equal_toIS7_EELb1EEENS_21__unordered_map_equalIS7_SB_SG_SE_Lb1EEENS5_ISB_EEE21__construct_node_hashIRKNS_21piecewise_construct_tEJNS_5tupleIJOS7_EEENSQ_IJEEEEEENS_10unique_ptrINS_11__hash_nodeISB_PvEENS_22__hash_node_destructorINS5_ISX_EEEEEEmOT_DpOT0_, symObjAddr: 0x12F40, symBinAddr: 0x100018A10, symSize: 0x150 }
  - { offsetInCU: 0x3DCE3, offset: 0x5BEA6, size: 0x8, addend: 0x0, symName: __ZNSt3__116allocator_traitsINS_9allocatorINS_11__hash_nodeINS_17__hash_value_typeINS_12basic_stringIcNS_11char_traitsIcEENS1_IcEEEENS_6vectorIjNS1_IjEEEEEEPvEEEEE9constructB8ue170006INS_4pairIKS8_SB_EEJRKNS_21piecewise_construct_tENS_5tupleIJOS8_EEENSO_IJEEEEvEEvRSF_PT_DpOT0_, symObjAddr: 0x13090, symBinAddr: 0x100018B60, symSize: 0x40 }
  - { offsetInCU: 0x3DD62, offset: 0x5BF25, size: 0x8, addend: 0x0, symName: __ZNSt3__19allocatorINS_11__hash_nodeINS_17__hash_value_typeINS_12basic_stringIcNS_11char_traitsIcEENS0_IcEEEENS_6vectorIjNS0_IjEEEEEEPvEEE9constructB8ue170006INS_4pairIKS7_SA_EEJRKNS_21piecewise_construct_tENS_5tupleIJOS7_EEENSM_IJEEEEEEvPT_DpOT0_, symObjAddr: 0x130D0, symBinAddr: 0x100018BA0, symSize: 0x40 }
  - { offsetInCU: 0x3DDDE, offset: 0x5BFA1, size: 0x8, addend: 0x0, symName: __ZNSt3__14pairIKNS_12basic_stringIcNS_11char_traitsIcEENS_9allocatorIcEEEENS_6vectorIjNS4_IjEEEEEC1B8ue170006IJOS6_EJEEENS_21piecewise_construct_tENS_5tupleIJDpT_EEENSF_IJDpT0_EEE, symObjAddr: 0x13110, symBinAddr: 0x100018BE0, symSize: 0x40 }
  - { offsetInCU: 0x3DE45, offset: 0x5C008, size: 0x8, addend: 0x0, symName: __ZNSt3__14pairIKNS_12basic_stringIcNS_11char_traitsIcEENS_9allocatorIcEEEENS_6vectorIjNS4_IjEEEEEC1B8ue170006IJOS6_EJEJLm0EEJEEENS_21piecewise_construct_tERNS_5tupleIJDpT_EEERNSF_IJDpT0_EEENS_15__tuple_indicesIJXspT1_EEEENSO_IJXspT2_EEEE, symObjAddr: 0x13150, symBinAddr: 0x100018C20, symSize: 0x30 }
  - { offsetInCU: 0x3DED2, offset: 0x5C095, size: 0x8, addend: 0x0, symName: __ZNSt3__14pairIKNS_12basic_stringIcNS_11char_traitsIcEENS_9allocatorIcEEEENS_6vectorIjNS4_IjEEEEEC2B8ue170006IJOS6_EJEJLm0EEJEEENS_21piecewise_construct_tERNS_5tupleIJDpT_EEERNSF_IJDpT0_EEENS_15__tuple_indicesIJXspT1_EEEENSO_IJXspT2_EEEE, symObjAddr: 0x13180, symBinAddr: 0x100018C50, symSize: 0x50 }
  - { offsetInCU: 0x3DF5F, offset: 0x5C122, size: 0x8, addend: 0x0, symName: __ZNSt3__112__tuple_leafILm0EONS_12basic_stringIcNS_11char_traitsIcEENS_9allocatorIcEEEELb0EE3getB8ue170006Ev, symObjAddr: 0x131F0, symBinAddr: 0x100018CC0, symSize: 0x20 }
  - { offsetInCU: 0x3DF85, offset: 0x5C148, size: 0x8, addend: 0x0, symName: __ZNSt3__15tupleIJONS_12basic_stringIcNS_11char_traitsIcEENS_9allocatorIcEEEEEEC1B8ue170006IJS6_ELi0EEEDpOT_, symObjAddr: 0x13210, symBinAddr: 0x100018CE0, symSize: 0x30 }
  - { offsetInCU: 0x3DFCF, offset: 0x5C192, size: 0x8, addend: 0x0, symName: __ZNSt3__15tupleIJONS_12basic_stringIcNS_11char_traitsIcEENS_9allocatorIcEEEEEEC2B8ue170006IJS6_ELi0EEEDpOT_, symObjAddr: 0x13240, symBinAddr: 0x100018D10, symSize: 0x30 }
  - { offsetInCU: 0x3E019, offset: 0x5C1DC, size: 0x8, addend: 0x0, symName: __ZNSt3__112__tuple_implINS_15__tuple_indicesIJLm0EEEEJONS_12basic_stringIcNS_11char_traitsIcEENS_9allocatorIcEEEEEEC1B8ue170006IJLm0EEJS9_EJEJEJS8_EEENS1_IJXspT_EEEENS_13__tuple_typesIJDpT0_EEENS1_IJXspT1_EEEENSD_IJDpT2_EEEDpOT3_, symObjAddr: 0x13270, symBinAddr: 0x100018D40, symSize: 0x30 }
  - { offsetInCU: 0x3E0AA, offset: 0x5C26D, size: 0x8, addend: 0x0, symName: __ZNSt3__112__tuple_implINS_15__tuple_indicesIJLm0EEEEJONS_12basic_stringIcNS_11char_traitsIcEENS_9allocatorIcEEEEEEC2B8ue170006IJLm0EEJS9_EJEJEJS8_EEENS1_IJXspT_EEEENS_13__tuple_typesIJDpT0_EEENS1_IJXspT1_EEEENSD_IJDpT2_EEEDpOT3_, symObjAddr: 0x132A0, symBinAddr: 0x100018D70, symSize: 0x30 }
  - { offsetInCU: 0x3E13B, offset: 0x5C2FE, size: 0x8, addend: 0x0, symName: __ZNSt3__112__tuple_leafILm0EONS_12basic_stringIcNS_11char_traitsIcEENS_9allocatorIcEEEELb0EEC2B8ue170006IS6_vEEOT_, symObjAddr: 0x132D0, symBinAddr: 0x100018DA0, symSize: 0x20 }
  - { offsetInCU: 0x3E17E, offset: 0x5C341, size: 0x8, addend: 0x0, symName: __ZNSt3__114pointer_traitsIPNS_4pairIKNS_12basic_stringIcNS_11char_traitsIcEENS_9allocatorIcEEEENS_6vectorIjNS5_IjEEEEEEE10pointer_toB8ue170006ERSC_, symObjAddr: 0x132F0, symBinAddr: 0x100018DC0, symSize: 0x10 }
  - { offsetInCU: 0x3E1A1, offset: 0x5C364, size: 0x8, addend: 0x0, symName: __ZNKSt3__113basic_filebufIcNS_11char_traitsIcEEE7is_openEv, symObjAddr: 0x13350, symBinAddr: 0x100018DD0, symSize: 0x20 }
  - { offsetInCU: 0x3E1C9, offset: 0x5C38C, size: 0x8, addend: 0x0, symName: __ZNSt3__16vectorINS_12basic_stringIcNS_11char_traitsIcEENS_9allocatorIcEEEENS4_IS6_EEE11__make_iterB8ue170006EPS6_, symObjAddr: 0x13370, symBinAddr: 0x100018DF0, symSize: 0x30 }
  - { offsetInCU: 0x3E1FE, offset: 0x5C3C1, size: 0x8, addend: 0x0, symName: __ZNSt3__111__wrap_iterIPNS_12basic_stringIcNS_11char_traitsIcEENS_9allocatorIcEEEEEC1B8ue170006ES7_, symObjAddr: 0x133A0, symBinAddr: 0x100018E20, symSize: 0x30 }
  - { offsetInCU: 0x3E236, offset: 0x5C3F9, size: 0x8, addend: 0x0, symName: __ZNSt3__111__wrap_iterIPNS_12basic_stringIcNS_11char_traitsIcEENS_9allocatorIcEEEEEC2B8ue170006ES7_, symObjAddr: 0x133D0, symBinAddr: 0x100018E50, symSize: 0x20 }
  - { offsetInCU: 0x3E26E, offset: 0x5C431, size: 0x8, addend: 0x0, symName: __ZNSt3__16vectorINS_12basic_stringIcNS_11char_traitsIcEENS_9allocatorIcEEEENS4_IS6_EEE22__construct_one_at_endB8ue170006IJRKS6_EEEvDpOT_, symObjAddr: 0x13430, symBinAddr: 0x100018EB0, symSize: 0x90 }
  - { offsetInCU: 0x3E2BD, offset: 0x5C480, size: 0x8, addend: 0x0, symName: __ZNSt3__16vectorINS_12basic_stringIcNS_11char_traitsIcEENS_9allocatorIcEEEENS4_IS6_EEE12__move_rangeEPS6_S9_S9_, symObjAddr: 0x134C0, symBinAddr: 0x100018F40, symSize: 0x130 }
  - { offsetInCU: 0x3E37B, offset: 0x5C53E, size: 0x8, addend: 0x0, symName: __ZNSt3__114pointer_traitsIPKNS_12basic_stringIcNS_11char_traitsIcEENS_9allocatorIcEEEEE10pointer_toB8ue170006ERS7_, symObjAddr: 0x135F0, symBinAddr: 0x100019070, symSize: 0x10 }
  - { offsetInCU: 0x3E39E, offset: 0x5C561, size: 0x8, addend: 0x0, symName: __ZNKSt3__16vectorINS_12basic_stringIcNS_11char_traitsIcEENS_9allocatorIcEEEENS4_IS6_EEE11__recommendB8ue170006Em, symObjAddr: 0x13600, symBinAddr: 0x100019080, symSize: 0xA0 }
  - { offsetInCU: 0x3E3F3, offset: 0x5C5B6, size: 0x8, addend: 0x0, symName: __ZNSt3__114__split_bufferINS_12basic_stringIcNS_11char_traitsIcEENS_9allocatorIcEEEERNS4_IS6_EEEC1EmmS8_, symObjAddr: 0x136A0, symBinAddr: 0x100019120, symSize: 0x40 }
  - { offsetInCU: 0x3E449, offset: 0x5C60C, size: 0x8, addend: 0x0, symName: __ZNSt3__114__split_bufferINS_12basic_stringIcNS_11char_traitsIcEENS_9allocatorIcEEEERNS4_IS6_EEE9push_backB8ue170006ERKS6_, symObjAddr: 0x136E0, symBinAddr: 0x100019160, symSize: 0x2A0 }
  - { offsetInCU: 0x3E4C1, offset: 0x5C684, size: 0x8, addend: 0x0, symName: __ZNSt3__114__split_bufferINS_12basic_stringIcNS_11char_traitsIcEENS_9allocatorIcEEEERNS4_IS6_EEED1Ev, symObjAddr: 0x13AE0, symBinAddr: 0x100019560, symSize: 0x20 }
  - { offsetInCU: 0x3E4ED, offset: 0x5C6B0, size: 0x8, addend: 0x0, symName: __ZNKSt3__111__wrap_iterIPKNS_12basic_stringIcNS_11char_traitsIcEENS_9allocatorIcEEEEE4baseB8ue170006Ev, symObjAddr: 0x13B00, symBinAddr: 0x100019580, symSize: 0x20 }
  - { offsetInCU: 0x3E513, offset: 0x5C6D6, size: 0x8, addend: 0x0, symName: __ZNSt3__116allocator_traitsINS_9allocatorINS_12basic_stringIcNS_11char_traitsIcEENS1_IcEEEEEEE9constructB8ue170006IS6_JRKS6_EvEEvRS7_PT_DpOT0_, symObjAddr: 0x13B20, symBinAddr: 0x1000195A0, symSize: 0x30 }
  - { offsetInCU: 0x3E56A, offset: 0x5C72D, size: 0x8, addend: 0x0, symName: __ZNSt3__19allocatorINS_12basic_stringIcNS_11char_traitsIcEENS0_IcEEEEE9constructB8ue170006IS5_JRKS5_EEEvPT_DpOT0_, symObjAddr: 0x13B50, symBinAddr: 0x1000195D0, symSize: 0x30 }
  - { offsetInCU: 0x3E5C0, offset: 0x5C783, size: 0x8, addend: 0x0, symName: __ZNSt3__116allocator_traitsINS_9allocatorINS_12basic_stringIcNS_11char_traitsIcEENS1_IcEEEEEEE9constructB8ue170006IS6_JS6_EvEEvRS7_PT_DpOT0_, symObjAddr: 0x13B80, symBinAddr: 0x100019600, symSize: 0x30 }
  - { offsetInCU: 0x3E617, offset: 0x5C7DA, size: 0x8, addend: 0x0, symName: __ZNSt3__19allocatorINS_12basic_stringIcNS_11char_traitsIcEENS0_IcEEEEE9constructB8ue170006IS5_JS5_EEEvPT_DpOT0_, symObjAddr: 0x13BF0, symBinAddr: 0x100019670, symSize: 0x30 }
  - { offsetInCU: 0x3E66D, offset: 0x5C830, size: 0x8, addend: 0x0, symName: __ZNKSt3__120__move_backward_loopINS_17_ClassicAlgPolicyEEclB8ue170006IPNS_12basic_stringIcNS_11char_traitsIcEENS_9allocatorIcEEEESA_SA_EENS_4pairIT_T1_EESC_T0_SD_, symObjAddr: 0x13D50, symBinAddr: 0x1000197D0, symSize: 0x90 }
  - { offsetInCU: 0x3E6F4, offset: 0x5C8B7, size: 0x8, addend: 0x0, symName: __ZNSt3__18_IterOpsINS_17_ClassicAlgPolicyEE4nextB8ue170006IPNS_12basic_stringIcNS_11char_traitsIcEENS_9allocatorIcEEEEEET_SB_SB_, symObjAddr: 0x13E10, symBinAddr: 0x100019890, symSize: 0x20 }
  - { offsetInCU: 0x3E72F, offset: 0x5C8F2, size: 0x8, addend: 0x0, symName: __ZNSt3__18_IterOpsINS_17_ClassicAlgPolicyEE11__iter_moveB8ue170006IRPNS_12basic_stringIcNS_11char_traitsIcEENS_9allocatorIcEEEEEENS_9enable_ifIXsr12is_referenceIDTdeclsr3stdE7declvalIRT_EEEEE5valueEDTclsr3stdE4movedeclsr3stdE7declvalISE_EEEEE4typeEOSD_, symObjAddr: 0x13E30, symBinAddr: 0x1000198B0, symSize: 0x20 }
  - { offsetInCU: 0x3E75B, offset: 0x5C91E, size: 0x8, addend: 0x0, symName: __ZNSt3__18_IterOpsINS_17_ClassicAlgPolicyEE25__validate_iter_referenceB8ue170006IRPNS_12basic_stringIcNS_11char_traitsIcEENS_9allocatorIcEEEEEEvv, symObjAddr: 0x13E50, symBinAddr: 0x1000198D0, symSize: 0x10 }
  - { offsetInCU: 0x3E779, offset: 0x5C93C, size: 0x8, addend: 0x0, symName: __ZNSt3__114__split_bufferINS_12basic_stringIcNS_11char_traitsIcEENS_9allocatorIcEEEERNS4_IS6_EEEC2EmmS8_, symObjAddr: 0x13E60, symBinAddr: 0x1000198E0, symSize: 0xC0 }
  - { offsetInCU: 0x3E7EC, offset: 0x5C9AF, size: 0x8, addend: 0x0, symName: __ZNSt3__117__compressed_pairIPNS_12basic_stringIcNS_11char_traitsIcEENS_9allocatorIcEEEERNS4_IS6_EEEC1B8ue170006IDnS9_EEOT_OT0_, symObjAddr: 0x13F20, symBinAddr: 0x1000199A0, symSize: 0x30 }
  - { offsetInCU: 0x3E844, offset: 0x5CA07, size: 0x8, addend: 0x0, symName: __ZNSt3__114__split_bufferINS_12basic_stringIcNS_11char_traitsIcEENS_9allocatorIcEEEERNS4_IS6_EEE7__allocB8ue170006Ev, symObjAddr: 0x13F50, symBinAddr: 0x1000199D0, symSize: 0x20 }
  - { offsetInCU: 0x3E86A, offset: 0x5CA2D, size: 0x8, addend: 0x0, symName: __ZNSt3__114__split_bufferINS_12basic_stringIcNS_11char_traitsIcEENS_9allocatorIcEEEERNS4_IS6_EEE9__end_capB8ue170006Ev, symObjAddr: 0x13F70, symBinAddr: 0x1000199F0, symSize: 0x20 }
  - { offsetInCU: 0x3E890, offset: 0x5CA53, size: 0x8, addend: 0x0, symName: __ZNSt3__117__compressed_pairIPNS_12basic_stringIcNS_11char_traitsIcEENS_9allocatorIcEEEERNS4_IS6_EEEC2B8ue170006IDnS9_EEOT_OT0_, symObjAddr: 0x13F90, symBinAddr: 0x100019A10, symSize: 0x40 }
  - { offsetInCU: 0x3E8E8, offset: 0x5CAAB, size: 0x8, addend: 0x0, symName: __ZNSt3__122__compressed_pair_elemIRNS_9allocatorINS_12basic_stringIcNS_11char_traitsIcEENS1_IcEEEEEELi1ELb0EEC2B8ue170006IS8_vEEOT_, symObjAddr: 0x13FD0, symBinAddr: 0x100019A50, symSize: 0x20 }
  - { offsetInCU: 0x3E92A, offset: 0x5CAED, size: 0x8, addend: 0x0, symName: __ZNSt3__117__compressed_pairIPNS_12basic_stringIcNS_11char_traitsIcEENS_9allocatorIcEEEERNS4_IS6_EEE6secondB8ue170006Ev, symObjAddr: 0x13FF0, symBinAddr: 0x100019A70, symSize: 0x20 }
  - { offsetInCU: 0x3E950, offset: 0x5CB13, size: 0x8, addend: 0x0, symName: __ZNSt3__122__compressed_pair_elemIRNS_9allocatorINS_12basic_stringIcNS_11char_traitsIcEENS1_IcEEEEEELi1ELb0EE5__getB8ue170006Ev, symObjAddr: 0x14010, symBinAddr: 0x100019A90, symSize: 0x20 }
  - { offsetInCU: 0x3E976, offset: 0x5CB39, size: 0x8, addend: 0x0, symName: __ZNSt3__117__compressed_pairIPNS_12basic_stringIcNS_11char_traitsIcEENS_9allocatorIcEEEERNS4_IS6_EEE5firstB8ue170006Ev, symObjAddr: 0x14030, symBinAddr: 0x100019AB0, symSize: 0x20 }
  - { offsetInCU: 0x3E99C, offset: 0x5CB5F, size: 0x8, addend: 0x0, symName: __ZNSt3__114__split_bufferINS_12basic_stringIcNS_11char_traitsIcEENS_9allocatorIcEEEERNS4_IS6_EEE18__construct_at_endINS_13move_iteratorIPS6_EEEENS_9enable_ifIXsr31__has_forward_iterator_categoryIT_EE5valueEvE4typeESF_SF_, symObjAddr: 0x14090, symBinAddr: 0x100019B10, symSize: 0x60 }
  - { offsetInCU: 0x3E9E9, offset: 0x5CBAC, size: 0x8, addend: 0x0, symName: __ZNSt3__113move_iteratorIPNS_12basic_stringIcNS_11char_traitsIcEENS_9allocatorIcEEEEEC1B8ue170006ES7_, symObjAddr: 0x140F0, symBinAddr: 0x100019B70, symSize: 0x30 }
  - { offsetInCU: 0x3EA21, offset: 0x5CBE4, size: 0x8, addend: 0x0, symName: __ZNKSt3__111__move_loopINS_17_ClassicAlgPolicyEEclB8ue170006IPNS_12basic_stringIcNS_11char_traitsIcEENS_9allocatorIcEEEESA_SA_EENS_4pairIT_T1_EESC_T0_SD_, symObjAddr: 0x14290, symBinAddr: 0x100019D10, symSize: 0x80 }
  - { offsetInCU: 0x3EA8C, offset: 0x5CC4F, size: 0x8, addend: 0x0, symName: __ZNSt3__114__split_bufferINS_12basic_stringIcNS_11char_traitsIcEENS_9allocatorIcEEEERNS4_IS6_EEE28__construct_at_end_with_sizeINS_13move_iteratorIPS6_EEEEvT_m, symObjAddr: 0x14310, symBinAddr: 0x100019D90, symSize: 0xE0 }
  - { offsetInCU: 0x3EAF2, offset: 0x5CCB5, size: 0x8, addend: 0x0, symName: __ZNSt3__114__split_bufferINS_12basic_stringIcNS_11char_traitsIcEENS_9allocatorIcEEEERNS4_IS6_EEE21_ConstructTransactionC1B8ue170006EPPS6_m, symObjAddr: 0x14430, symBinAddr: 0x100019EB0, symSize: 0x30 }
  - { offsetInCU: 0x3EB38, offset: 0x5CCFB, size: 0x8, addend: 0x0, symName: __ZNKSt3__113move_iteratorIPNS_12basic_stringIcNS_11char_traitsIcEENS_9allocatorIcEEEEEdeB8ue170006Ev, symObjAddr: 0x14460, symBinAddr: 0x100019EE0, symSize: 0x20 }
  - { offsetInCU: 0x3EB5E, offset: 0x5CD21, size: 0x8, addend: 0x0, symName: __ZNSt3__113move_iteratorIPNS_12basic_stringIcNS_11char_traitsIcEENS_9allocatorIcEEEEEppB8ue170006Ev, symObjAddr: 0x14480, symBinAddr: 0x100019F00, symSize: 0x20 }
  - { offsetInCU: 0x3EB84, offset: 0x5CD47, size: 0x8, addend: 0x0, symName: __ZNSt3__114__split_bufferINS_12basic_stringIcNS_11char_traitsIcEENS_9allocatorIcEEEERNS4_IS6_EEE21_ConstructTransactionD1B8ue170006Ev, symObjAddr: 0x144A0, symBinAddr: 0x100019F20, symSize: 0x20 }
  - { offsetInCU: 0x3EBAE, offset: 0x5CD71, size: 0x8, addend: 0x0, symName: __ZNSt3__114__split_bufferINS_12basic_stringIcNS_11char_traitsIcEENS_9allocatorIcEEEERNS4_IS6_EEE21_ConstructTransactionC2B8ue170006EPPS6_m, symObjAddr: 0x144C0, symBinAddr: 0x100019F40, symSize: 0x40 }
  - { offsetInCU: 0x3EBF4, offset: 0x5CDB7, size: 0x8, addend: 0x0, symName: __ZNSt3__114__split_bufferINS_12basic_stringIcNS_11char_traitsIcEENS_9allocatorIcEEEERNS4_IS6_EEE21_ConstructTransactionD2B8ue170006Ev, symObjAddr: 0x14500, symBinAddr: 0x100019F80, symSize: 0x20 }
  - { offsetInCU: 0x3EC1E, offset: 0x5CDE1, size: 0x8, addend: 0x0, symName: __ZNKSt3__113move_iteratorIPNS_12basic_stringIcNS_11char_traitsIcEENS_9allocatorIcEEEEE4baseB8ue170006Ev, symObjAddr: 0x14590, symBinAddr: 0x10001A010, symSize: 0x20 }
  - { offsetInCU: 0x3EC44, offset: 0x5CE07, size: 0x8, addend: 0x0, symName: __ZNSt3__113move_iteratorIPNS_12basic_stringIcNS_11char_traitsIcEENS_9allocatorIcEEEEEC2B8ue170006ES7_, symObjAddr: 0x145B0, symBinAddr: 0x10001A030, symSize: 0x20 }
  - { offsetInCU: 0x3EC7C, offset: 0x5CE3F, size: 0x8, addend: 0x0, symName: __ZNSt3__129_AllocatorDestroyRangeReverseINS_9allocatorINS_12basic_stringIcNS_11char_traitsIcEENS1_IcEEEEEENS_16reverse_iteratorIPS6_EEEC1B8ue170006ERS7_RSA_SD_, symObjAddr: 0x148A0, symBinAddr: 0x10001A320, symSize: 0x40 }
  - { offsetInCU: 0x3ECD3, offset: 0x5CE96, size: 0x8, addend: 0x0, symName: __ZNSt3__128__exception_guard_exceptionsINS_29_AllocatorDestroyRangeReverseINS_9allocatorINS_12basic_stringIcNS_11char_traitsIcEENS2_IcEEEEEENS_16reverse_iteratorIPS7_EEEEE10__completeB8ue170006Ev, symObjAddr: 0x148E0, symBinAddr: 0x10001A360, symSize: 0x20 }
  - { offsetInCU: 0x3ECF9, offset: 0x5CEBC, size: 0x8, addend: 0x0, symName: __ZNSt3__128__exception_guard_exceptionsINS_29_AllocatorDestroyRangeReverseINS_9allocatorINS_12basic_stringIcNS_11char_traitsIcEENS2_IcEEEEEENS_16reverse_iteratorIPS7_EEEEED1B8ue170006Ev, symObjAddr: 0x14900, symBinAddr: 0x10001A380, symSize: 0x20 }
  - { offsetInCU: 0x3ED23, offset: 0x5CEE6, size: 0x8, addend: 0x0, symName: __ZNSt3__128__exception_guard_exceptionsINS_29_AllocatorDestroyRangeReverseINS_9allocatorINS_12basic_stringIcNS_11char_traitsIcEENS2_IcEEEEEENS_16reverse_iteratorIPS7_EEEEEC1B8ue170006ESC_, symObjAddr: 0x14920, symBinAddr: 0x10001A3A0, symSize: 0x40 }
  - { offsetInCU: 0x3ED5B, offset: 0x5CF1E, size: 0x8, addend: 0x0, symName: __ZNSt3__128__exception_guard_exceptionsINS_29_AllocatorDestroyRangeReverseINS_9allocatorINS_12basic_stringIcNS_11char_traitsIcEENS2_IcEEEEEENS_16reverse_iteratorIPS7_EEEEEC2B8ue170006ESC_, symObjAddr: 0x14960, symBinAddr: 0x10001A3E0, symSize: 0x30 }
  - { offsetInCU: 0x3ED93, offset: 0x5CF56, size: 0x8, addend: 0x0, symName: __ZNSt3__129_AllocatorDestroyRangeReverseINS_9allocatorINS_12basic_stringIcNS_11char_traitsIcEENS1_IcEEEEEENS_16reverse_iteratorIPS6_EEEC2B8ue170006ERS7_RSA_SD_, symObjAddr: 0x14990, symBinAddr: 0x10001A410, symSize: 0x40 }
  - { offsetInCU: 0x3EDEA, offset: 0x5CFAD, size: 0x8, addend: 0x0, symName: __ZNSt3__128__exception_guard_exceptionsINS_29_AllocatorDestroyRangeReverseINS_9allocatorINS_12basic_stringIcNS_11char_traitsIcEENS2_IcEEEEEENS_16reverse_iteratorIPS7_EEEEED2B8ue170006Ev, symObjAddr: 0x149D0, symBinAddr: 0x10001A450, symSize: 0x40 }
  - { offsetInCU: 0x3EE14, offset: 0x5CFD7, size: 0x8, addend: 0x0, symName: __ZNKSt3__129_AllocatorDestroyRangeReverseINS_9allocatorINS_12basic_stringIcNS_11char_traitsIcEENS1_IcEEEEEENS_16reverse_iteratorIPS6_EEEclB8ue170006Ev, symObjAddr: 0x14A10, symBinAddr: 0x10001A490, symSize: 0xF0 }
  - { offsetInCU: 0x3EE3B, offset: 0x5CFFE, size: 0x8, addend: 0x0, symName: __ZNSt3__116reverse_iteratorINS0_IPNS_12basic_stringIcNS_11char_traitsIcEENS_9allocatorIcEEEEEEEC1B8ue170006ES8_, symObjAddr: 0x14B70, symBinAddr: 0x10001A5F0, symSize: 0x30 }
  - { offsetInCU: 0x3EE73, offset: 0x5D036, size: 0x8, addend: 0x0, symName: __ZNSt3__116reverse_iteratorINS0_IPNS_12basic_stringIcNS_11char_traitsIcEENS_9allocatorIcEEEEEEEppB8ue170006Ev, symObjAddr: 0x14C10, symBinAddr: 0x10001A690, symSize: 0x30 }
  - { offsetInCU: 0x3EE99, offset: 0x5D05C, size: 0x8, addend: 0x0, symName: __ZNKSt3__116reverse_iteratorINS0_IPNS_12basic_stringIcNS_11char_traitsIcEENS_9allocatorIcEEEEEEE4baseB8ue170006Ev, symObjAddr: 0x14C40, symBinAddr: 0x10001A6C0, symSize: 0x20 }
  - { offsetInCU: 0x3EEC4, offset: 0x5D087, size: 0x8, addend: 0x0, symName: __ZNSt3__119__to_address_helperINS_16reverse_iteratorINS1_IPNS_12basic_stringIcNS_11char_traitsIcEENS_9allocatorIcEEEEEEEEvE6__callB8ue170006ERKSA_, symObjAddr: 0x14C60, symBinAddr: 0x10001A6E0, symSize: 0x40 }
  - { offsetInCU: 0x3EEE7, offset: 0x5D0AA, size: 0x8, addend: 0x0, symName: __ZNKSt3__116reverse_iteratorINS0_IPNS_12basic_stringIcNS_11char_traitsIcEENS_9allocatorIcEEEEEEEptB8ue170006Ev, symObjAddr: 0x14CA0, symBinAddr: 0x10001A720, symSize: 0x20 }
  - { offsetInCU: 0x3EF0D, offset: 0x5D0D0, size: 0x8, addend: 0x0, symName: __ZNKSt3__116reverse_iteratorINS0_IPNS_12basic_stringIcNS_11char_traitsIcEENS_9allocatorIcEEEEEEEdeB8ue170006Ev, symObjAddr: 0x14CC0, symBinAddr: 0x10001A740, symSize: 0x40 }
  - { offsetInCU: 0x3EF41, offset: 0x5D104, size: 0x8, addend: 0x0, symName: __ZNSt3__116reverse_iteratorIPNS_12basic_stringIcNS_11char_traitsIcEENS_9allocatorIcEEEEEmmB8ue170006Ev, symObjAddr: 0x14D00, symBinAddr: 0x10001A780, symSize: 0x20 }
  - { offsetInCU: 0x3EF67, offset: 0x5D12A, size: 0x8, addend: 0x0, symName: __ZNSt3__116reverse_iteratorINS0_IPNS_12basic_stringIcNS_11char_traitsIcEENS_9allocatorIcEEEEEEEC2B8ue170006ES8_, symObjAddr: 0x14D20, symBinAddr: 0x10001A7A0, symSize: 0x40 }
  - { offsetInCU: 0x3EF9F, offset: 0x5D162, size: 0x8, addend: 0x0, symName: __ZNSt3__114__split_bufferINS_12basic_stringIcNS_11char_traitsIcEENS_9allocatorIcEEEERNS4_IS6_EEED2Ev, symObjAddr: 0x14D60, symBinAddr: 0x10001A7E0, symSize: 0x70 }
  - { offsetInCU: 0x3EFCB, offset: 0x5D18E, size: 0x8, addend: 0x0, symName: __ZNSt3__114__split_bufferINS_12basic_stringIcNS_11char_traitsIcEENS_9allocatorIcEEEERNS4_IS6_EEE5clearB8ue170006Ev, symObjAddr: 0x14DD0, symBinAddr: 0x10001A850, symSize: 0x20 }
  - { offsetInCU: 0x3EFF1, offset: 0x5D1B4, size: 0x8, addend: 0x0, symName: __ZNKSt3__114__split_bufferINS_12basic_stringIcNS_11char_traitsIcEENS_9allocatorIcEEEERNS4_IS6_EEE8capacityB8ue170006Ev, symObjAddr: 0x14DF0, symBinAddr: 0x10001A870, symSize: 0x40 }
  - { offsetInCU: 0x3F017, offset: 0x5D1DA, size: 0x8, addend: 0x0, symName: __ZNSt3__114__split_bufferINS_12basic_stringIcNS_11char_traitsIcEENS_9allocatorIcEEEERNS4_IS6_EEE17__destruct_at_endB8ue170006EPS6_, symObjAddr: 0x14E30, symBinAddr: 0x10001A8B0, symSize: 0x30 }
  - { offsetInCU: 0x3F04B, offset: 0x5D20E, size: 0x8, addend: 0x0, symName: __ZNSt3__114__split_bufferINS_12basic_stringIcNS_11char_traitsIcEENS_9allocatorIcEEEERNS4_IS6_EEE17__destruct_at_endB8ue170006EPS6_NS_17integral_constantIbLb0EEE, symObjAddr: 0x14E60, symBinAddr: 0x10001A8E0, symSize: 0x80 }
  - { offsetInCU: 0x3F08B, offset: 0x5D24E, size: 0x8, addend: 0x0, symName: __ZNKSt3__114__split_bufferINS_12basic_stringIcNS_11char_traitsIcEENS_9allocatorIcEEEERNS4_IS6_EEE9__end_capB8ue170006Ev, symObjAddr: 0x14EE0, symBinAddr: 0x10001A960, symSize: 0x20 }
  - { offsetInCU: 0x3F0B1, offset: 0x5D274, size: 0x8, addend: 0x0, symName: __ZNKSt3__117__compressed_pairIPNS_12basic_stringIcNS_11char_traitsIcEENS_9allocatorIcEEEERNS4_IS6_EEE5firstB8ue170006Ev, symObjAddr: 0x14F00, symBinAddr: 0x10001A980, symSize: 0x20 }
  - { offsetInCU: 0x3F0D7, offset: 0x5D29A, size: 0x8, addend: 0x0, symName: __ZNKSt3__16vectorINS_12basic_stringIcNS_11char_traitsIcEENS_9allocatorIcEEEENS4_IS6_EEE17__annotate_shrinkB8ue170006Em, symObjAddr: 0x14F20, symBinAddr: 0x10001A9A0, symSize: 0xA0 }
  - { offsetInCU: 0x3F10C, offset: 0x5D2CF, size: 0x8, addend: 0x0, symName: __ZNKSt3__16vectorI4FileNS_9allocatorIS1_EEE6cbeginB8ue170006Ev, symObjAddr: 0x15000, symBinAddr: 0x10001AA40, symSize: 0x30 }
  - { offsetInCU: 0x3F132, offset: 0x5D2F5, size: 0x8, addend: 0x0, symName: __ZNSt3__16vectorI4FileNS_9allocatorIS1_EEE17__destruct_at_endB8ue170006EPS1_, symObjAddr: 0x15030, symBinAddr: 0x10001AA70, symSize: 0x50 }
  - { offsetInCU: 0x3F176, offset: 0x5D339, size: 0x8, addend: 0x0, symName: __ZNKSt3__16vectorI4FileNS_9allocatorIS1_EEE17__annotate_shrinkB8ue170006Em, symObjAddr: 0x151B0, symBinAddr: 0x10001AAC0, symSize: 0xA0 }
  - { offsetInCU: 0x3F1AB, offset: 0x5D36E, size: 0x8, addend: 0x0, symName: __ZNSt3__112__hash_tableIjNS_4hashIjEENS_8equal_toIjEENS_9allocatorIjEEE15__insert_uniqueB8ue170006ERKj, symObjAddr: 0x15D20, symBinAddr: 0x10001AB60, symSize: 0x50 }
  - { offsetInCU: 0x3F1E0, offset: 0x5D3A3, size: 0x8, addend: 0x0, symName: __ZNSt3__14pairINS_21__hash_const_iteratorIPNS_11__hash_nodeIjPvEEEEbEC1B8ue170006INS_15__hash_iteratorIS5_EEbLS3_0EEEONS0_IT_T0_EE, symObjAddr: 0x15D70, symBinAddr: 0x10001ABB0, symSize: 0x30 }
  - { offsetInCU: 0x3F231, offset: 0x5D3F4, size: 0x8, addend: 0x0, symName: __ZNSt3__112__hash_tableIjNS_4hashIjEENS_8equal_toIjEENS_9allocatorIjEEE25__emplace_unique_key_argsIjJRKjEEENS_4pairINS_15__hash_iteratorIPNS_11__hash_nodeIjPvEEEEbEERKT_DpOT0_, symObjAddr: 0x15DA0, symBinAddr: 0x10001ABE0, symSize: 0x5F0 }
  - { offsetInCU: 0x3F30F, offset: 0x5D4D2, size: 0x8, addend: 0x0, symName: __ZNSt3__122__hash_key_value_typesIjE9__get_keyB8ue170006ERKj, symObjAddr: 0x16390, symBinAddr: 0x10001B1D0, symSize: 0x10 }
  - { offsetInCU: 0x3F332, offset: 0x5D4F5, size: 0x8, addend: 0x0, symName: __ZNSt3__112__hash_tableIjNS_4hashIjEENS_8equal_toIjEENS_9allocatorIjEEE13hash_functionB8ue170006Ev, symObjAddr: 0x163A0, symBinAddr: 0x10001B1E0, symSize: 0x20 }
  - { offsetInCU: 0x3F358, offset: 0x5D51B, size: 0x8, addend: 0x0, symName: __ZNKSt3__14hashIjEclB8ue170006Ej, symObjAddr: 0x163C0, symBinAddr: 0x10001B200, symSize: 0x10 }
  - { offsetInCU: 0x3F38D, offset: 0x5D550, size: 0x8, addend: 0x0, symName: __ZNKSt3__116__hash_node_baseIPNS_11__hash_nodeIjPvEEE6__hashB8ue170006Ev, symObjAddr: 0x16430, symBinAddr: 0x10001B210, symSize: 0x20 }
  - { offsetInCU: 0x3F3B3, offset: 0x5D576, size: 0x8, addend: 0x0, symName: __ZNSt3__112__hash_tableIjNS_4hashIjEENS_8equal_toIjEENS_9allocatorIjEEE6key_eqB8ue170006Ev, symObjAddr: 0x16450, symBinAddr: 0x10001B230, symSize: 0x20 }
  - { offsetInCU: 0x3F3D9, offset: 0x5D59C, size: 0x8, addend: 0x0, symName: __ZNKSt3__18equal_toIjEclB8ue170006ERKjS3_, symObjAddr: 0x16470, symBinAddr: 0x10001B250, symSize: 0x30 }
  - { offsetInCU: 0x3F41D, offset: 0x5D5E0, size: 0x8, addend: 0x0, symName: __ZNSt3__112__hash_tableIjNS_4hashIjEENS_8equal_toIjEENS_9allocatorIjEEE21__construct_node_hashIRKjJEEENS_10unique_ptrINS_11__hash_nodeIjPvEENS_22__hash_node_destructorINS5_ISE_EEEEEEmOT_DpOT0_, symObjAddr: 0x164A0, symBinAddr: 0x10001B280, symSize: 0x130 }
  - { offsetInCU: 0x3F490, offset: 0x5D653, size: 0x8, addend: 0x0, symName: __ZNSt3__112__hash_tableIjNS_4hashIjEENS_8equal_toIjEENS_9allocatorIjEEE15max_load_factorB8ue170006Ev, symObjAddr: 0x165F0, symBinAddr: 0x10001B3B0, symSize: 0x20 }
  - { offsetInCU: 0x3F4B6, offset: 0x5D679, size: 0x8, addend: 0x0, symName: __ZNSt3__112__hash_tableIjNS_4hashIjEENS_8equal_toIjEENS_9allocatorIjEEE15__rehash_uniqueB8ue170006Em, symObjAddr: 0x16610, symBinAddr: 0x10001B3D0, symSize: 0x30 }
  - { offsetInCU: 0x3F4EB, offset: 0x5D6AE, size: 0x8, addend: 0x0, symName: __ZNSt3__116__hash_node_baseIPNS_11__hash_nodeIjPvEEE5__ptrB8ue170006Ev, symObjAddr: 0x16640, symBinAddr: 0x10001B400, symSize: 0x20 }
  - { offsetInCU: 0x3F511, offset: 0x5D6D4, size: 0x8, addend: 0x0, symName: __ZNKSt3__110unique_ptrINS_11__hash_nodeIjPvEENS_22__hash_node_destructorINS_9allocatorIS3_EEEEEptB8ue170006Ev, symObjAddr: 0x16660, symBinAddr: 0x10001B420, symSize: 0x20 }
  - { offsetInCU: 0x3F537, offset: 0x5D6FA, size: 0x8, addend: 0x0, symName: __ZNKSt3__110unique_ptrINS_11__hash_nodeIjPvEENS_22__hash_node_destructorINS_9allocatorIS3_EEEEE3getB8ue170006Ev, symObjAddr: 0x16680, symBinAddr: 0x10001B440, symSize: 0x20 }
  - { offsetInCU: 0x3F55D, offset: 0x5D720, size: 0x8, addend: 0x0, symName: __ZNSt3__110unique_ptrINS_11__hash_nodeIjPvEENS_22__hash_node_destructorINS_9allocatorIS3_EEEEE7releaseB8ue170006Ev, symObjAddr: 0x166A0, symBinAddr: 0x10001B460, symSize: 0x40 }
  - { offsetInCU: 0x3F592, offset: 0x5D755, size: 0x8, addend: 0x0, symName: __ZNSt3__110unique_ptrINS_11__hash_nodeIjPvEENS_22__hash_node_destructorINS_9allocatorIS3_EEEEED1B8ue170006Ev, symObjAddr: 0x166E0, symBinAddr: 0x10001B4A0, symSize: 0x20 }
  - { offsetInCU: 0x3F5C2, offset: 0x5D785, size: 0x8, addend: 0x0, symName: __ZNSt3__14pairINS_15__hash_iteratorIPNS_11__hash_nodeIjPvEEEEbEC1B8ue170006IS6_RbLS3_0EEEOT_OT0_, symObjAddr: 0x16700, symBinAddr: 0x10001B4C0, symSize: 0x30 }
  - { offsetInCU: 0x3F620, offset: 0x5D7E3, size: 0x8, addend: 0x0, symName: __ZNSt3__117__compressed_pairImNS_4hashIjEEE6secondB8ue170006Ev, symObjAddr: 0x16730, symBinAddr: 0x10001B4F0, symSize: 0x20 }
  - { offsetInCU: 0x3F646, offset: 0x5D809, size: 0x8, addend: 0x0, symName: __ZNSt3__122__compressed_pair_elemINS_4hashIjEELi1ELb1EE5__getB8ue170006Ev, symObjAddr: 0x16750, symBinAddr: 0x10001B510, symSize: 0x10 }
  - { offsetInCU: 0x3F66C, offset: 0x5D82F, size: 0x8, addend: 0x0, symName: __ZNSt3__117__compressed_pairIfNS_8equal_toIjEEE6secondB8ue170006Ev, symObjAddr: 0x16820, symBinAddr: 0x10001B520, symSize: 0x20 }
  - { offsetInCU: 0x3F692, offset: 0x5D855, size: 0x8, addend: 0x0, symName: __ZNSt3__122__compressed_pair_elemINS_8equal_toIjEELi1ELb1EE5__getB8ue170006Ev, symObjAddr: 0x16840, symBinAddr: 0x10001B540, symSize: 0x10 }
  - { offsetInCU: 0x3F6B8, offset: 0x5D87B, size: 0x8, addend: 0x0, symName: __ZNSt3__116allocator_traitsINS_9allocatorINS_11__hash_nodeIjPvEEEEE8allocateB8ue170006ERS5_m, symObjAddr: 0x16850, symBinAddr: 0x10001B550, symSize: 0x30 }
  - { offsetInCU: 0x3F6EB, offset: 0x5D8AE, size: 0x8, addend: 0x0, symName: __ZNSt3__122__hash_node_destructorINS_9allocatorINS_11__hash_nodeIjPvEEEEEC1B8ue170006ERS5_b, symObjAddr: 0x16880, symBinAddr: 0x10001B580, symSize: 0x40 }
  - { offsetInCU: 0x3F739, offset: 0x5D8FC, size: 0x8, addend: 0x0, symName: __ZNSt3__110unique_ptrINS_11__hash_nodeIjPvEENS_22__hash_node_destructorINS_9allocatorIS3_EEEEEC1B8ue170006ILb1EvEEPS3_NS_16__dependent_typeINS_27__unique_ptr_deleter_sfinaeIS7_EEXT_EE20__good_rval_ref_typeE, symObjAddr: 0x168C0, symBinAddr: 0x10001B5C0, symSize: 0x30 }
  - { offsetInCU: 0x3F78A, offset: 0x5D94D, size: 0x8, addend: 0x0, symName: __ZNSt3__116allocator_traitsINS_9allocatorINS_11__hash_nodeIjPvEEEEE9constructB8ue170006IjJRKjEvEEvRS5_PT_DpOT0_, symObjAddr: 0x168F0, symBinAddr: 0x10001B5F0, symSize: 0x30 }
  - { offsetInCU: 0x3F7E1, offset: 0x5D9A4, size: 0x8, addend: 0x0, symName: __ZNSt3__110unique_ptrINS_11__hash_nodeIjPvEENS_22__hash_node_destructorINS_9allocatorIS3_EEEEE11get_deleterB8ue170006Ev, symObjAddr: 0x16920, symBinAddr: 0x10001B620, symSize: 0x20 }
  - { offsetInCU: 0x3F807, offset: 0x5D9CA, size: 0x8, addend: 0x0, symName: __ZNSt3__19allocatorINS_11__hash_nodeIjPvEEE8allocateB8ue170006Em, symObjAddr: 0x16940, symBinAddr: 0x10001B640, symSize: 0x50 }
  - { offsetInCU: 0x3F845, offset: 0x5DA08, size: 0x8, addend: 0x0, symName: __ZNSt3__116allocator_traitsINS_9allocatorINS_11__hash_nodeIjPvEEEEE8max_sizeB8ue170006IS5_vEEmRKS5_, symObjAddr: 0x16990, symBinAddr: 0x10001B690, symSize: 0x20 }
  - { offsetInCU: 0x3F873, offset: 0x5DA36, size: 0x8, addend: 0x0, symName: __ZNKSt3__19allocatorINS_11__hash_nodeIjPvEEE8max_sizeB8ue170006Ev, symObjAddr: 0x169B0, symBinAddr: 0x10001B6B0, symSize: 0x20 }
  - { offsetInCU: 0x3F899, offset: 0x5DA5C, size: 0x8, addend: 0x0, symName: __ZNSt3__122__hash_node_destructorINS_9allocatorINS_11__hash_nodeIjPvEEEEEC2B8ue170006ERS5_b, symObjAddr: 0x169D0, symBinAddr: 0x10001B6D0, symSize: 0x30 }
  - { offsetInCU: 0x3F8E1, offset: 0x5DAA4, size: 0x8, addend: 0x0, symName: __ZNSt3__110unique_ptrINS_11__hash_nodeIjPvEENS_22__hash_node_destructorINS_9allocatorIS3_EEEEEC2B8ue170006ILb1EvEEPS3_NS_16__dependent_typeINS_27__unique_ptr_deleter_sfinaeIS7_EEXT_EE20__good_rval_ref_typeE, symObjAddr: 0x16A00, symBinAddr: 0x10001B700, symSize: 0x40 }
  - { offsetInCU: 0x3F932, offset: 0x5DAF5, size: 0x8, addend: 0x0, symName: __ZNSt3__117__compressed_pairIPNS_11__hash_nodeIjPvEENS_22__hash_node_destructorINS_9allocatorIS3_EEEEEC1B8ue170006IRS4_S8_EEOT_OT0_, symObjAddr: 0x16A40, symBinAddr: 0x10001B740, symSize: 0x30 }
  - { offsetInCU: 0x3F98A, offset: 0x5DB4D, size: 0x8, addend: 0x0, symName: __ZNSt3__117__compressed_pairIPNS_11__hash_nodeIjPvEENS_22__hash_node_destructorINS_9allocatorIS3_EEEEEC2B8ue170006IRS4_S8_EEOT_OT0_, symObjAddr: 0x16A70, symBinAddr: 0x10001B770, symSize: 0x40 }
  - { offsetInCU: 0x3F9E2, offset: 0x5DBA5, size: 0x8, addend: 0x0, symName: __ZNSt3__122__compressed_pair_elemIPNS_11__hash_nodeIjPvEELi0ELb0EEC2B8ue170006IRS4_vEEOT_, symObjAddr: 0x16AB0, symBinAddr: 0x10001B7B0, symSize: 0x20 }
  - { offsetInCU: 0x3FA24, offset: 0x5DBE7, size: 0x8, addend: 0x0, symName: __ZNSt3__122__compressed_pair_elemINS_22__hash_node_destructorINS_9allocatorINS_11__hash_nodeIjPvEEEEEELi1ELb0EEC2B8ue170006IS7_vEEOT_, symObjAddr: 0x16AD0, symBinAddr: 0x10001B7D0, symSize: 0x30 }
  - { offsetInCU: 0x3FA66, offset: 0x5DC29, size: 0x8, addend: 0x0, symName: __ZNSt3__19allocatorINS_11__hash_nodeIjPvEEE9constructB8ue170006IjJRKjEEEvPT_DpOT0_, symObjAddr: 0x16B00, symBinAddr: 0x10001B800, symSize: 0x20 }
  - { offsetInCU: 0x3FABC, offset: 0x5DC7F, size: 0x8, addend: 0x0, symName: __ZNSt3__117__compressed_pairIPNS_11__hash_nodeIjPvEENS_22__hash_node_destructorINS_9allocatorIS3_EEEEE6secondB8ue170006Ev, symObjAddr: 0x16B20, symBinAddr: 0x10001B820, symSize: 0x20 }
  - { offsetInCU: 0x3FAE2, offset: 0x5DCA5, size: 0x8, addend: 0x0, symName: __ZNSt3__122__compressed_pair_elemINS_22__hash_node_destructorINS_9allocatorINS_11__hash_nodeIjPvEEEEEELi1ELb0EE5__getB8ue170006Ev, symObjAddr: 0x16B40, symBinAddr: 0x10001B840, symSize: 0x10 }
  - { offsetInCU: 0x3FB08, offset: 0x5DCCB, size: 0x8, addend: 0x0, symName: __ZNSt3__117__compressed_pairIfNS_8equal_toIjEEE5firstB8ue170006Ev, symObjAddr: 0x16B70, symBinAddr: 0x10001B850, symSize: 0x20 }
  - { offsetInCU: 0x3FB2E, offset: 0x5DCF1, size: 0x8, addend: 0x0, symName: __ZNSt3__112__hash_tableIjNS_4hashIjEENS_8equal_toIjEENS_9allocatorIjEEE8__rehashILb1EEEvm, symObjAddr: 0x16B90, symBinAddr: 0x10001B870, symSize: 0x230 }
  - { offsetInCU: 0x3FB7E, offset: 0x5DD41, size: 0x8, addend: 0x0, symName: __ZNSt3__112__hash_tableIjNS_4hashIjEENS_8equal_toIjEENS_9allocatorIjEEE11__do_rehashILb1EEEvm, symObjAddr: 0x16DC0, symBinAddr: 0x10001BAA0, symSize: 0x250 }
  - { offsetInCU: 0x3FC61, offset: 0x5DE24, size: 0x8, addend: 0x0, symName: __ZNSt3__110unique_ptrIA_PNS_16__hash_node_baseIPNS_11__hash_nodeIjPvEEEENS_25__bucket_list_deallocatorINS_9allocatorIS7_EEEEE11get_deleterB8ue170006Ev, symObjAddr: 0x17010, symBinAddr: 0x10001BCF0, symSize: 0x20 }
  - { offsetInCU: 0x3FC87, offset: 0x5DE4A, size: 0x8, addend: 0x0, symName: __ZNSt3__110unique_ptrIA_PNS_16__hash_node_baseIPNS_11__hash_nodeIjPvEEEENS_25__bucket_list_deallocatorINS_9allocatorIS7_EEEEE5resetB8ue170006IPS7_EENS_9enable_ifIXsr28_CheckArrayPointerConversionIT_EE5valueEvE4typeESH_, symObjAddr: 0x17030, symBinAddr: 0x10001BD10, symSize: 0x70 }
  - { offsetInCU: 0x3FCD4, offset: 0x5DE97, size: 0x8, addend: 0x0, symName: __ZNSt3__116allocator_traitsINS_9allocatorIPNS_16__hash_node_baseIPNS_11__hash_nodeIjPvEEEEEEE8allocateB8ue170006ERS9_m, symObjAddr: 0x170A0, symBinAddr: 0x10001BD80, symSize: 0x30 }
  - { offsetInCU: 0x3FD07, offset: 0x5DECA, size: 0x8, addend: 0x0, symName: __ZNSt3__19allocatorIPNS_16__hash_node_baseIPNS_11__hash_nodeIjPvEEEEE8allocateB8ue170006Em, symObjAddr: 0x170D0, symBinAddr: 0x10001BDB0, symSize: 0x50 }
  - { offsetInCU: 0x3FD45, offset: 0x5DF08, size: 0x8, addend: 0x0, symName: __ZNSt3__116allocator_traitsINS_9allocatorIPNS_16__hash_node_baseIPNS_11__hash_nodeIjPvEEEEEEE8max_sizeB8ue170006IS9_vEEmRKS9_, symObjAddr: 0x17120, symBinAddr: 0x10001BE00, symSize: 0x20 }
  - { offsetInCU: 0x3FD73, offset: 0x5DF36, size: 0x8, addend: 0x0, symName: __ZNKSt3__19allocatorIPNS_16__hash_node_baseIPNS_11__hash_nodeIjPvEEEEE8max_sizeB8ue170006Ev, symObjAddr: 0x17140, symBinAddr: 0x10001BE20, symSize: 0x20 }
  - { offsetInCU: 0x3FD99, offset: 0x5DF5C, size: 0x8, addend: 0x0, symName: __ZNKSt3__117__compressed_pairIPNS_11__hash_nodeIjPvEENS_22__hash_node_destructorINS_9allocatorIS3_EEEEE5firstB8ue170006Ev, symObjAddr: 0x17160, symBinAddr: 0x10001BE40, symSize: 0x20 }
  - { offsetInCU: 0x3FDBF, offset: 0x5DF82, size: 0x8, addend: 0x0, symName: __ZNKSt3__122__compressed_pair_elemIPNS_11__hash_nodeIjPvEELi0ELb0EE5__getB8ue170006Ev, symObjAddr: 0x17180, symBinAddr: 0x10001BE60, symSize: 0x10 }
  - { offsetInCU: 0x3FDE5, offset: 0x5DFA8, size: 0x8, addend: 0x0, symName: __ZNSt3__117__compressed_pairIPNS_11__hash_nodeIjPvEENS_22__hash_node_destructorINS_9allocatorIS3_EEEEE5firstB8ue170006Ev, symObjAddr: 0x17190, symBinAddr: 0x10001BE70, symSize: 0x20 }
  - { offsetInCU: 0x3FE0B, offset: 0x5DFCE, size: 0x8, addend: 0x0, symName: __ZNSt3__122__compressed_pair_elemIPNS_11__hash_nodeIjPvEELi0ELb0EE5__getB8ue170006Ev, symObjAddr: 0x171B0, symBinAddr: 0x10001BE90, symSize: 0x10 }
  - { offsetInCU: 0x3FE31, offset: 0x5DFF4, size: 0x8, addend: 0x0, symName: __ZNSt3__110unique_ptrINS_11__hash_nodeIjPvEENS_22__hash_node_destructorINS_9allocatorIS3_EEEEED2B8ue170006Ev, symObjAddr: 0x171C0, symBinAddr: 0x10001BEA0, symSize: 0x20 }
  - { offsetInCU: 0x3FE5B, offset: 0x5E01E, size: 0x8, addend: 0x0, symName: __ZNSt3__110unique_ptrINS_11__hash_nodeIjPvEENS_22__hash_node_destructorINS_9allocatorIS3_EEEEE5resetB8ue170006EPS3_, symObjAddr: 0x171E0, symBinAddr: 0x10001BEC0, symSize: 0x70 }
  - { offsetInCU: 0x3FE9F, offset: 0x5E062, size: 0x8, addend: 0x0, symName: __ZNSt3__122__hash_node_destructorINS_9allocatorINS_11__hash_nodeIjPvEEEEEclB8ue170006EPS4_, symObjAddr: 0x17250, symBinAddr: 0x10001BF30, symSize: 0x70 }
  - { offsetInCU: 0x3FED4, offset: 0x5E097, size: 0x8, addend: 0x0, symName: __ZNSt3__14pairINS_15__hash_iteratorIPNS_11__hash_nodeIjPvEEEEbEC2B8ue170006IS6_RbLS3_0EEEOT_OT0_, symObjAddr: 0x172C0, symBinAddr: 0x10001BFA0, symSize: 0x30 }
  - { offsetInCU: 0x3FF32, offset: 0x5E0F5, size: 0x8, addend: 0x0, symName: __ZNSt3__14pairINS_21__hash_const_iteratorIPNS_11__hash_nodeIjPvEEEEbEC2B8ue170006INS_15__hash_iteratorIS5_EEbLS3_0EEEONS0_IT_T0_EE, symObjAddr: 0x172F0, symBinAddr: 0x10001BFD0, symSize: 0x40 }
  - { offsetInCU: 0x3FF83, offset: 0x5E146, size: 0x8, addend: 0x0, symName: __ZNSt3__111basic_regexIcNS_12regex_traitsIcEEEC2B8ue170006EPKcNS_15regex_constants18syntax_option_typeE, symObjAddr: 0x17380, symBinAddr: 0x10001C010, symSize: 0xD0 }
  - { offsetInCU: 0x3FFCB, offset: 0x5E18E, size: 0x8, addend: 0x0, symName: __ZNSt3__112regex_traitsIcEC1Ev, symObjAddr: 0x17450, symBinAddr: 0x10001C0E0, symSize: 0x20 }
  - { offsetInCU: 0x3FFF7, offset: 0x5E1BA, size: 0x8, addend: 0x0, symName: __ZNSt3__110shared_ptrINS_13__empty_stateIcEEEC1B8ue170006Ev, symObjAddr: 0x17470, symBinAddr: 0x10001C100, symSize: 0x20 }
  - { offsetInCU: 0x40021, offset: 0x5E1E4, size: 0x8, addend: 0x0, symName: __ZNSt3__111basic_regexIcNS_12regex_traitsIcEEE6__initIPKcEEvT_S7_, symObjAddr: 0x17490, symBinAddr: 0x10001C120, symSize: 0x70 }
  - { offsetInCU: 0x4007F, offset: 0x5E242, size: 0x8, addend: 0x0, symName: __ZNSt3__112regex_traitsIcE6lengthB8ue170006EPKc, symObjAddr: 0x17500, symBinAddr: 0x10001C190, symSize: 0x20 }
  - { offsetInCU: 0x400A3, offset: 0x5E266, size: 0x8, addend: 0x0, symName: __ZNSt3__112regex_traitsIcEC2Ev, symObjAddr: 0x17520, symBinAddr: 0x10001C1B0, symSize: 0x50 }
  - { offsetInCU: 0x400CF, offset: 0x5E292, size: 0x8, addend: 0x0, symName: __ZNSt3__112regex_traitsIcE6__initEv, symObjAddr: 0x17570, symBinAddr: 0x10001C200, symSize: 0x40 }
  - { offsetInCU: 0x400F7, offset: 0x5E2BA, size: 0x8, addend: 0x0, symName: __ZNSt3__110shared_ptrINS_13__empty_stateIcEEEC2B8ue170006Ev, symObjAddr: 0x175E0, symBinAddr: 0x10001C270, symSize: 0x20 }
  - { offsetInCU: 0x40121, offset: 0x5E2E4, size: 0x8, addend: 0x0, symName: __ZNSt3__111basic_regexIcNS_12regex_traitsIcEEE7__parseIPKcEET_S7_S7_, symObjAddr: 0x17650, symBinAddr: 0x10001C2E0, symSize: 0x220 }
  - { offsetInCU: 0x40199, offset: 0x5E35C, size: 0x8, addend: 0x0, symName: __ZNSt3__111__end_stateIcEC1B8ue170006Ev, symObjAddr: 0x178F0, symBinAddr: 0x10001C580, symSize: 0x20 }
  - { offsetInCU: 0x40250, offset: 0x5E413, size: 0x8, addend: 0x0, symName: __ZNSt3__110unique_ptrINS_6__nodeIcEENS_14default_deleteIS2_EEEC1B8ue170006ILb1EvEEPS2_, symObjAddr: 0x17910, symBinAddr: 0x10001C5A0, symSize: 0x30 }
  - { offsetInCU: 0x40298, offset: 0x5E45B, size: 0x8, addend: 0x0, symName: __ZNSt3__110shared_ptrINS_13__empty_stateIcEEE5resetB8ue170006IS2_vEEvPT_, symObjAddr: 0x17940, symBinAddr: 0x10001C5D0, symSize: 0x50 }
  - { offsetInCU: 0x402D7, offset: 0x5E49A, size: 0x8, addend: 0x0, symName: __ZNKSt3__110unique_ptrINS_6__nodeIcEENS_14default_deleteIS2_EEE3getB8ue170006Ev, symObjAddr: 0x17990, symBinAddr: 0x10001C620, symSize: 0x20 }
  - { offsetInCU: 0x402FD, offset: 0x5E4C0, size: 0x8, addend: 0x0, symName: __ZNSt3__113__empty_stateIcEC1B8ue170006EPNS_6__nodeIcEE, symObjAddr: 0x179B0, symBinAddr: 0x10001C640, symSize: 0x30 }
  - { offsetInCU: 0x40336, offset: 0x5E4F9, size: 0x8, addend: 0x0, symName: __ZNSt3__110unique_ptrINS_6__nodeIcEENS_14default_deleteIS2_EEE7releaseB8ue170006Ev, symObjAddr: 0x179E0, symBinAddr: 0x10001C670, symSize: 0x40 }
  - { offsetInCU: 0x4036B, offset: 0x5E52E, size: 0x8, addend: 0x0, symName: __ZNKSt3__110shared_ptrINS_13__empty_stateIcEEE3getB8ue170006Ev, symObjAddr: 0x17A20, symBinAddr: 0x10001C6B0, symSize: 0x20 }
  - { offsetInCU: 0x40391, offset: 0x5E554, size: 0x8, addend: 0x0, symName: __ZNSt3__110unique_ptrINS_6__nodeIcEENS_14default_deleteIS2_EEED1B8ue170006Ev, symObjAddr: 0x17A40, symBinAddr: 0x10001C6D0, symSize: 0x20 }
  - { offsetInCU: 0x403BB, offset: 0x5E57E, size: 0x8, addend: 0x0, symName: __ZNSt3__111basic_regexIcNS_12regex_traitsIcEEE16__parse_ecma_expIPKcEET_S7_S7_, symObjAddr: 0x17A60, symBinAddr: 0x10001C6F0, symSize: 0xF0 }
  - { offsetInCU: 0x40445, offset: 0x5E608, size: 0x8, addend: 0x0, symName: __ZNSt3__111basic_regexIcNS_12regex_traitsIcEEE21__parse_basic_reg_expIPKcEET_S7_S7_, symObjAddr: 0x17B50, symBinAddr: 0x10001C7E0, symSize: 0x100 }
  - { offsetInCU: 0x404B1, offset: 0x5E674, size: 0x8, addend: 0x0, symName: __ZNSt3__111basic_regexIcNS_12regex_traitsIcEEE24__parse_extended_reg_expIPKcEET_S7_S7_, symObjAddr: 0x17C50, symBinAddr: 0x10001C8E0, symSize: 0xF0 }
  - { offsetInCU: 0x4053B, offset: 0x5E6FE, size: 0x8, addend: 0x0, symName: __ZNSt3__111basic_regexIcNS_12regex_traitsIcEEE12__parse_grepIPKcEET_S7_S7_, symObjAddr: 0x17D40, symBinAddr: 0x10001C9D0, symSize: 0x140 }
  - { offsetInCU: 0x405C5, offset: 0x5E788, size: 0x8, addend: 0x0, symName: __ZNSt3__111basic_regexIcNS_12regex_traitsIcEEE13__parse_egrepIPKcEET_S7_S7_, symObjAddr: 0x17E80, symBinAddr: 0x10001CB10, symSize: 0x140 }
  - { offsetInCU: 0x4064F, offset: 0x5E812, size: 0x8, addend: 0x0, symName: __ZNSt3__111__end_stateIcEC2B8ue170006Ev, symObjAddr: 0x18020, symBinAddr: 0x10001CCB0, symSize: 0x40 }
  - { offsetInCU: 0x40679, offset: 0x5E83C, size: 0x8, addend: 0x0, symName: __ZNSt3__16__nodeIcEC2B8ue170006Ev, symObjAddr: 0x18060, symBinAddr: 0x10001CCF0, symSize: 0x20 }
  - { offsetInCU: 0x406A3, offset: 0x5E866, size: 0x8, addend: 0x0, symName: __ZNSt3__111__end_stateIcED1Ev, symObjAddr: 0x18080, symBinAddr: 0x10001CD10, symSize: 0x20 }
  - { offsetInCU: 0x406D0, offset: 0x5E893, size: 0x8, addend: 0x0, symName: __ZNSt3__111__end_stateIcED0Ev, symObjAddr: 0x180A0, symBinAddr: 0x10001CD30, symSize: 0x30 }
  - { offsetInCU: 0x406FD, offset: 0x5E8C0, size: 0x8, addend: 0x0, symName: __ZNKSt3__111__end_stateIcE6__execERNS_7__stateIcEE, symObjAddr: 0x180D0, symBinAddr: 0x10001CD60, symSize: 0x20 }
  - { offsetInCU: 0x40734, offset: 0x5E8F7, size: 0x8, addend: 0x0, symName: __ZNKSt3__16__nodeIcE12__exec_splitEbRNS_7__stateIcEE, symObjAddr: 0x180F0, symBinAddr: 0x10001CD80, symSize: 0x20 }
  - { offsetInCU: 0x40770, offset: 0x5E933, size: 0x8, addend: 0x0, symName: __ZNSt3__16__nodeIcED1Ev, symObjAddr: 0x18110, symBinAddr: 0x10001CDA0, symSize: 0x20 }
  - { offsetInCU: 0x4079A, offset: 0x5E95D, size: 0x8, addend: 0x0, symName: __ZNSt3__16__nodeIcED0Ev, symObjAddr: 0x18130, symBinAddr: 0x10001CDC0, symSize: 0x30 }
  - { offsetInCU: 0x407C4, offset: 0x5E987, size: 0x8, addend: 0x0, symName: __ZNKSt3__16__nodeIcE6__execERNS_7__stateIcEE, symObjAddr: 0x18160, symBinAddr: 0x10001CDF0, symSize: 0x10 }
  - { offsetInCU: 0x407F5, offset: 0x5E9B8, size: 0x8, addend: 0x0, symName: __ZNSt3__16__nodeIcED2Ev, symObjAddr: 0x18170, symBinAddr: 0x10001CE00, symSize: 0x10 }
  - { offsetInCU: 0x4081F, offset: 0x5E9E2, size: 0x8, addend: 0x0, symName: __ZNSt3__111__end_stateIcED2Ev, symObjAddr: 0x18180, symBinAddr: 0x10001CE10, symSize: 0x20 }
  - { offsetInCU: 0x4084C, offset: 0x5EA0F, size: 0x8, addend: 0x0, symName: __ZNSt3__110unique_ptrINS_6__nodeIcEENS_14default_deleteIS2_EEEC2B8ue170006ILb1EvEEPS2_, symObjAddr: 0x181A0, symBinAddr: 0x10001CE30, symSize: 0x40 }
  - { offsetInCU: 0x4088F, offset: 0x5EA52, size: 0x8, addend: 0x0, symName: __ZNSt3__117__compressed_pairIPNS_6__nodeIcEENS_14default_deleteIS2_EEEC1B8ue170006IRS3_NS_16__value_init_tagEEEOT_OT0_, symObjAddr: 0x181E0, symBinAddr: 0x10001CE70, symSize: 0x30 }
  - { offsetInCU: 0x408E7, offset: 0x5EAAA, size: 0x8, addend: 0x0, symName: __ZNSt3__117__compressed_pairIPNS_6__nodeIcEENS_14default_deleteIS2_EEEC2B8ue170006IRS3_NS_16__value_init_tagEEEOT_OT0_, symObjAddr: 0x18210, symBinAddr: 0x10001CEA0, symSize: 0x40 }
  - { offsetInCU: 0x4093F, offset: 0x5EB02, size: 0x8, addend: 0x0, symName: __ZNSt3__122__compressed_pair_elemIPNS_6__nodeIcEELi0ELb0EEC2B8ue170006IRS3_vEEOT_, symObjAddr: 0x18250, symBinAddr: 0x10001CEE0, symSize: 0x20 }
  - { offsetInCU: 0x40981, offset: 0x5EB44, size: 0x8, addend: 0x0, symName: __ZNSt3__122__compressed_pair_elemINS_14default_deleteINS_6__nodeIcEEEELi1ELb1EEC2B8ue170006ENS_16__value_init_tagE, symObjAddr: 0x18270, symBinAddr: 0x10001CF00, symSize: 0x10 }
  - { offsetInCU: 0x409B5, offset: 0x5EB78, size: 0x8, addend: 0x0, symName: __ZNSt3__110shared_ptrINS_13__empty_stateIcEEEC1B8ue170006IS2_vEEPT_, symObjAddr: 0x18280, symBinAddr: 0x10001CF10, symSize: 0x30 }
  - { offsetInCU: 0x409F8, offset: 0x5EBBB, size: 0x8, addend: 0x0, symName: __ZNSt3__110shared_ptrINS_13__empty_stateIcEEE4swapB8ue170006ERS3_, symObjAddr: 0x182B0, symBinAddr: 0x10001CF40, symSize: 0x40 }
  - { offsetInCU: 0x40A2D, offset: 0x5EBF0, size: 0x8, addend: 0x0, symName: __ZNSt3__110shared_ptrINS_13__empty_stateIcEEEC2B8ue170006IS2_vEEPT_, symObjAddr: 0x182F0, symBinAddr: 0x10001CF80, symSize: 0xE0 }
  - { offsetInCU: 0x40B17, offset: 0x5ECDA, size: 0x8, addend: 0x0, symName: __ZNSt3__110unique_ptrINS_13__empty_stateIcEENS_14default_deleteIS2_EEEC1B8ue170006ILb1EvEEPS2_, symObjAddr: 0x183D0, symBinAddr: 0x10001D060, symSize: 0x30 }
  - { offsetInCU: 0x40B78, offset: 0x5ED3B, size: 0x8, addend: 0x0, symName: __ZNSt3__19allocatorINS_13__empty_stateIcEEEC1B8ue170006Ev, symObjAddr: 0x18400, symBinAddr: 0x10001D090, symSize: 0x20 }
  - { offsetInCU: 0x40C3D, offset: 0x5EE00, size: 0x8, addend: 0x0, symName: __ZNSt3__120__shared_ptr_pointerIPNS_13__empty_stateIcEENS_10shared_ptrIS2_E27__shared_ptr_default_deleteIS2_S2_EENS_9allocatorIS2_EEEC1B8ue170006ES3_S7_S9_, symObjAddr: 0x18420, symBinAddr: 0x10001D0B0, symSize: 0x30 }
  - { offsetInCU: 0x40C91, offset: 0x5EE54, size: 0x8, addend: 0x0, symName: __ZNSt3__110unique_ptrINS_13__empty_stateIcEENS_14default_deleteIS2_EEE7releaseB8ue170006Ev, symObjAddr: 0x18450, symBinAddr: 0x10001D0E0, symSize: 0x40 }
  - { offsetInCU: 0x40CC6, offset: 0x5EE89, size: 0x8, addend: 0x0, symName: __ZNSt3__110shared_ptrINS_13__empty_stateIcEEE18__enable_weak_thisB8ue170006Ez, symObjAddr: 0x18490, symBinAddr: 0x10001D120, symSize: 0x10 }
  - { offsetInCU: 0x40CEE, offset: 0x5EEB1, size: 0x8, addend: 0x0, symName: __ZNSt3__110unique_ptrINS_13__empty_stateIcEENS_14default_deleteIS2_EEED1B8ue170006Ev, symObjAddr: 0x184A0, symBinAddr: 0x10001D130, symSize: 0x20 }
  - { offsetInCU: 0x40D18, offset: 0x5EEDB, size: 0x8, addend: 0x0, symName: __ZNSt3__110unique_ptrINS_13__empty_stateIcEENS_14default_deleteIS2_EEEC2B8ue170006ILb1EvEEPS2_, symObjAddr: 0x184C0, symBinAddr: 0x10001D150, symSize: 0x40 }
  - { offsetInCU: 0x40D5B, offset: 0x5EF1E, size: 0x8, addend: 0x0, symName: __ZNSt3__117__compressed_pairIPNS_13__empty_stateIcEENS_14default_deleteIS2_EEEC1B8ue170006IRS3_NS_16__value_init_tagEEEOT_OT0_, symObjAddr: 0x18500, symBinAddr: 0x10001D190, symSize: 0x30 }
  - { offsetInCU: 0x40DB3, offset: 0x5EF76, size: 0x8, addend: 0x0, symName: __ZNSt3__117__compressed_pairIPNS_13__empty_stateIcEENS_14default_deleteIS2_EEEC2B8ue170006IRS3_NS_16__value_init_tagEEEOT_OT0_, symObjAddr: 0x18530, symBinAddr: 0x10001D1C0, symSize: 0x40 }
  - { offsetInCU: 0x40E0B, offset: 0x5EFCE, size: 0x8, addend: 0x0, symName: __ZNSt3__122__compressed_pair_elemIPNS_13__empty_stateIcEELi0ELb0EEC2B8ue170006IRS3_vEEOT_, symObjAddr: 0x18570, symBinAddr: 0x10001D200, symSize: 0x20 }
  - { offsetInCU: 0x40E4D, offset: 0x5F010, size: 0x8, addend: 0x0, symName: __ZNSt3__122__compressed_pair_elemINS_14default_deleteINS_13__empty_stateIcEEEELi1ELb1EEC2B8ue170006ENS_16__value_init_tagE, symObjAddr: 0x18590, symBinAddr: 0x10001D220, symSize: 0x10 }
  - { offsetInCU: 0x40E81, offset: 0x5F044, size: 0x8, addend: 0x0, symName: __ZNSt3__19allocatorINS_13__empty_stateIcEEEC2B8ue170006Ev, symObjAddr: 0x185A0, symBinAddr: 0x10001D230, symSize: 0x20 }
  - { offsetInCU: 0x40EAB, offset: 0x5F06E, size: 0x8, addend: 0x0, symName: __ZNSt3__116__non_trivial_ifILb1ENS_9allocatorINS_13__empty_stateIcEEEEEC2B8ue170006Ev, symObjAddr: 0x185C0, symBinAddr: 0x10001D250, symSize: 0x10 }
  - { offsetInCU: 0x40ED5, offset: 0x5F098, size: 0x8, addend: 0x0, symName: __ZNSt3__120__shared_ptr_pointerIPNS_13__empty_stateIcEENS_10shared_ptrIS2_E27__shared_ptr_default_deleteIS2_S2_EENS_9allocatorIS2_EEEC2B8ue170006ES3_S7_S9_, symObjAddr: 0x185D0, symBinAddr: 0x10001D260, symSize: 0x90 }
  - { offsetInCU: 0x40F29, offset: 0x5F0EC, size: 0x8, addend: 0x0, symName: __ZNSt3__119__shared_weak_countC2B8ue170006El, symObjAddr: 0x18660, symBinAddr: 0x10001D2F0, symSize: 0x50 }
  - { offsetInCU: 0x40F67, offset: 0x5F12A, size: 0x8, addend: 0x0, symName: __ZNSt3__117__compressed_pairIPNS_13__empty_stateIcEENS_10shared_ptrIS2_E27__shared_ptr_default_deleteIS2_S2_EEEC1B8ue170006IRS3_S7_EEOT_OT0_, symObjAddr: 0x186B0, symBinAddr: 0x10001D340, symSize: 0x30 }
  - { offsetInCU: 0x40FCB, offset: 0x5F18E, size: 0x8, addend: 0x0, symName: __ZNSt3__117__compressed_pairINS0_IPNS_13__empty_stateIcEENS_10shared_ptrIS2_E27__shared_ptr_default_deleteIS2_S2_EEEENS_9allocatorIS2_EEEC1B8ue170006IS8_SA_EEOT_OT0_, symObjAddr: 0x186E0, symBinAddr: 0x10001D370, symSize: 0x30 }
  - { offsetInCU: 0x41023, offset: 0x5F1E6, size: 0x8, addend: 0x0, symName: __ZNSt3__120__shared_ptr_pointerIPNS_13__empty_stateIcEENS_10shared_ptrIS2_E27__shared_ptr_default_deleteIS2_S2_EENS_9allocatorIS2_EEED1Ev, symObjAddr: 0x18710, symBinAddr: 0x10001D3A0, symSize: 0x20 }
  - { offsetInCU: 0x4104F, offset: 0x5F212, size: 0x8, addend: 0x0, symName: __ZNSt3__120__shared_ptr_pointerIPNS_13__empty_stateIcEENS_10shared_ptrIS2_E27__shared_ptr_default_deleteIS2_S2_EENS_9allocatorIS2_EEED0Ev, symObjAddr: 0x18730, symBinAddr: 0x10001D3C0, symSize: 0x30 }
  - { offsetInCU: 0x4107B, offset: 0x5F23E, size: 0x8, addend: 0x0, symName: __ZNSt3__120__shared_ptr_pointerIPNS_13__empty_stateIcEENS_10shared_ptrIS2_E27__shared_ptr_default_deleteIS2_S2_EENS_9allocatorIS2_EEE16__on_zero_sharedEv, symObjAddr: 0x18760, symBinAddr: 0x10001D3F0, symSize: 0x70 }
  - { offsetInCU: 0x410A3, offset: 0x5F266, size: 0x8, addend: 0x0, symName: __ZNKSt3__120__shared_ptr_pointerIPNS_13__empty_stateIcEENS_10shared_ptrIS2_E27__shared_ptr_default_deleteIS2_S2_EENS_9allocatorIS2_EEE13__get_deleterERKSt9type_info, symObjAddr: 0x187D0, symBinAddr: 0x10001D460, symSize: 0x70 }
  - { offsetInCU: 0x410D8, offset: 0x5F29B, size: 0x8, addend: 0x0, symName: __ZNSt3__120__shared_ptr_pointerIPNS_13__empty_stateIcEENS_10shared_ptrIS2_E27__shared_ptr_default_deleteIS2_S2_EENS_9allocatorIS2_EEE21__on_zero_shared_weakEv, symObjAddr: 0x18840, symBinAddr: 0x10001D4D0, symSize: 0x60 }
  - { offsetInCU: 0x4111B, offset: 0x5F2DE, size: 0x8, addend: 0x0, symName: __ZNSt3__114__shared_countC2B8ue170006El, symObjAddr: 0x188A0, symBinAddr: 0x10001D530, symSize: 0x30 }
  - { offsetInCU: 0x41153, offset: 0x5F316, size: 0x8, addend: 0x0, symName: __ZNSt3__117__compressed_pairIPNS_13__empty_stateIcEENS_10shared_ptrIS2_E27__shared_ptr_default_deleteIS2_S2_EEEC2B8ue170006IRS3_S7_EEOT_OT0_, symObjAddr: 0x188D0, symBinAddr: 0x10001D560, symSize: 0x40 }
  - { offsetInCU: 0x411AB, offset: 0x5F36E, size: 0x8, addend: 0x0, symName: __ZNSt3__122__compressed_pair_elemINS_10shared_ptrINS_13__empty_stateIcEEE27__shared_ptr_default_deleteIS3_S3_EELi1ELb1EEC2B8ue170006IS6_vEEOT_, symObjAddr: 0x18910, symBinAddr: 0x10001D5A0, symSize: 0x10 }
  - { offsetInCU: 0x411ED, offset: 0x5F3B0, size: 0x8, addend: 0x0, symName: __ZNSt3__117__compressed_pairINS0_IPNS_13__empty_stateIcEENS_10shared_ptrIS2_E27__shared_ptr_default_deleteIS2_S2_EEEENS_9allocatorIS2_EEEC2B8ue170006IS8_SA_EEOT_OT0_, symObjAddr: 0x18920, symBinAddr: 0x10001D5B0, symSize: 0x40 }
  - { offsetInCU: 0x41245, offset: 0x5F408, size: 0x8, addend: 0x0, symName: __ZNSt3__122__compressed_pair_elemINS_17__compressed_pairIPNS_13__empty_stateIcEENS_10shared_ptrIS3_E27__shared_ptr_default_deleteIS3_S3_EEEELi0ELb0EEC2B8ue170006IS9_vEEOT_, symObjAddr: 0x18960, symBinAddr: 0x10001D5F0, symSize: 0x20 }
  - { offsetInCU: 0x41287, offset: 0x5F44A, size: 0x8, addend: 0x0, symName: __ZNSt3__122__compressed_pair_elemINS_9allocatorINS_13__empty_stateIcEEEELi1ELb1EEC2B8ue170006IS4_vEEOT_, symObjAddr: 0x18980, symBinAddr: 0x10001D610, symSize: 0x10 }
  - { offsetInCU: 0x412C9, offset: 0x5F48C, size: 0x8, addend: 0x0, symName: __ZNSt3__120__shared_ptr_pointerIPNS_13__empty_stateIcEENS_10shared_ptrIS2_E27__shared_ptr_default_deleteIS2_S2_EENS_9allocatorIS2_EEED2Ev, symObjAddr: 0x18990, symBinAddr: 0x10001D620, symSize: 0x20 }
  - { offsetInCU: 0x412F5, offset: 0x5F4B8, size: 0x8, addend: 0x0, symName: __ZNSt3__117__compressed_pairINS0_IPNS_13__empty_stateIcEENS_10shared_ptrIS2_E27__shared_ptr_default_deleteIS2_S2_EEEENS_9allocatorIS2_EEE5firstB8ue170006Ev, symObjAddr: 0x189B0, symBinAddr: 0x10001D640, symSize: 0x20 }
  - { offsetInCU: 0x4131B, offset: 0x5F4DE, size: 0x8, addend: 0x0, symName: __ZNSt3__117__compressed_pairIPNS_13__empty_stateIcEENS_10shared_ptrIS2_E27__shared_ptr_default_deleteIS2_S2_EEE6secondB8ue170006Ev, symObjAddr: 0x189D0, symBinAddr: 0x10001D660, symSize: 0x20 }
  - { offsetInCU: 0x41341, offset: 0x5F504, size: 0x8, addend: 0x0, symName: __ZNKSt3__114default_deleteINS_13__empty_stateIcEEEclB8ue170006EPS2_, symObjAddr: 0x189F0, symBinAddr: 0x10001D680, symSize: 0x40 }
  - { offsetInCU: 0x41375, offset: 0x5F538, size: 0x8, addend: 0x0, symName: __ZNSt3__117__compressed_pairIPNS_13__empty_stateIcEENS_10shared_ptrIS2_E27__shared_ptr_default_deleteIS2_S2_EEE5firstB8ue170006Ev, symObjAddr: 0x18A30, symBinAddr: 0x10001D6C0, symSize: 0x20 }
  - { offsetInCU: 0x4139B, offset: 0x5F55E, size: 0x8, addend: 0x0, symName: __ZNSt3__122__compressed_pair_elemINS_17__compressed_pairIPNS_13__empty_stateIcEENS_10shared_ptrIS3_E27__shared_ptr_default_deleteIS3_S3_EEEELi0ELb0EE5__getB8ue170006Ev, symObjAddr: 0x18A50, symBinAddr: 0x10001D6E0, symSize: 0x10 }
  - { offsetInCU: 0x413C1, offset: 0x5F584, size: 0x8, addend: 0x0, symName: __ZNSt3__122__compressed_pair_elemINS_10shared_ptrINS_13__empty_stateIcEEE27__shared_ptr_default_deleteIS3_S3_EELi1ELb1EE5__getB8ue170006Ev, symObjAddr: 0x18A60, symBinAddr: 0x10001D6F0, symSize: 0x10 }
  - { offsetInCU: 0x413E7, offset: 0x5F5AA, size: 0x8, addend: 0x0, symName: __ZNSt3__122__compressed_pair_elemIPNS_13__empty_stateIcEELi0ELb0EE5__getB8ue170006Ev, symObjAddr: 0x18A70, symBinAddr: 0x10001D700, symSize: 0x10 }
  - { offsetInCU: 0x4142D, offset: 0x5F5F0, size: 0x8, addend: 0x0, symName: __ZNKSt9type_infoeqB8ue170006ERKS_, symObjAddr: 0x18A80, symBinAddr: 0x10001D710, symSize: 0x40 }
  - { offsetInCU: 0x4148B, offset: 0x5F64E, size: 0x8, addend: 0x0, symName: __ZNKSt3__117__compressed_pairINS0_IPNS_13__empty_stateIcEENS_10shared_ptrIS2_E27__shared_ptr_default_deleteIS2_S2_EEEENS_9allocatorIS2_EEE5firstB8ue170006Ev, symObjAddr: 0x18AC0, symBinAddr: 0x10001D750, symSize: 0x20 }
  - { offsetInCU: 0x414B1, offset: 0x5F674, size: 0x8, addend: 0x0, symName: __ZNKSt3__117__compressed_pairIPNS_13__empty_stateIcEENS_10shared_ptrIS2_E27__shared_ptr_default_deleteIS2_S2_EEE6secondB8ue170006Ev, symObjAddr: 0x18AE0, symBinAddr: 0x10001D770, symSize: 0x20 }
  - { offsetInCU: 0x414D7, offset: 0x5F69A, size: 0x8, addend: 0x0, symName: __ZNKSt3__122__compressed_pair_elemINS_17__compressed_pairIPNS_13__empty_stateIcEENS_10shared_ptrIS3_E27__shared_ptr_default_deleteIS3_S3_EEEELi0ELb0EE5__getB8ue170006Ev, symObjAddr: 0x18B00, symBinAddr: 0x10001D790, symSize: 0x10 }
  - { offsetInCU: 0x414FD, offset: 0x5F6C0, size: 0x8, addend: 0x0, symName: __ZNKSt3__122__compressed_pair_elemINS_10shared_ptrINS_13__empty_stateIcEEE27__shared_ptr_default_deleteIS3_S3_EELi1ELb1EE5__getB8ue170006Ev, symObjAddr: 0x18B10, symBinAddr: 0x10001D7A0, symSize: 0x10 }
  - { offsetInCU: 0x41523, offset: 0x5F6E6, size: 0x8, addend: 0x0, symName: __ZNSt3__117__compressed_pairINS0_IPNS_13__empty_stateIcEENS_10shared_ptrIS2_E27__shared_ptr_default_deleteIS2_S2_EEEENS_9allocatorIS2_EEE6secondB8ue170006Ev, symObjAddr: 0x18B20, symBinAddr: 0x10001D7B0, symSize: 0x20 }
  - { offsetInCU: 0x41571, offset: 0x5F734, size: 0x8, addend: 0x0, symName: __ZNSt3__19allocatorINS_20__shared_ptr_pointerIPNS_13__empty_stateIcEENS_10shared_ptrIS3_E27__shared_ptr_default_deleteIS3_S3_EENS0_IS3_EEEEEC1B8ue170006IS3_EERKNS0_IT_EE, symObjAddr: 0x18B40, symBinAddr: 0x10001D7D0, symSize: 0x30 }
  - { offsetInCU: 0x415AE, offset: 0x5F771, size: 0x8, addend: 0x0, symName: __ZNSt3__19allocatorINS_20__shared_ptr_pointerIPNS_13__empty_stateIcEENS_10shared_ptrIS3_E27__shared_ptr_default_deleteIS3_S3_EENS0_IS3_EEEEE10deallocateB8ue170006EPSA_m, symObjAddr: 0x18B70, symBinAddr: 0x10001D800, symSize: 0x40 }
  - { offsetInCU: 0x415F0, offset: 0x5F7B3, size: 0x8, addend: 0x0, symName: __ZNSt3__114pointer_traitsIPNS_20__shared_ptr_pointerIPNS_13__empty_stateIcEENS_10shared_ptrIS3_E27__shared_ptr_default_deleteIS3_S3_EENS_9allocatorIS3_EEEEE10pointer_toB8ue170006ERSB_, symObjAddr: 0x18BB0, symBinAddr: 0x10001D840, symSize: 0x10 }
  - { offsetInCU: 0x41613, offset: 0x5F7D6, size: 0x8, addend: 0x0, symName: __ZNSt3__122__compressed_pair_elemINS_9allocatorINS_13__empty_stateIcEEEELi1ELb1EE5__getB8ue170006Ev, symObjAddr: 0x18BC0, symBinAddr: 0x10001D850, symSize: 0x10 }
  - { offsetInCU: 0x41639, offset: 0x5F7FC, size: 0x8, addend: 0x0, symName: __ZNSt3__19allocatorINS_20__shared_ptr_pointerIPNS_13__empty_stateIcEENS_10shared_ptrIS3_E27__shared_ptr_default_deleteIS3_S3_EENS0_IS3_EEEEEC2B8ue170006IS3_EERKNS0_IT_EE, symObjAddr: 0x18BD0, symBinAddr: 0x10001D860, symSize: 0x20 }
  - { offsetInCU: 0x41676, offset: 0x5F839, size: 0x8, addend: 0x0, symName: __ZNSt3__116__non_trivial_ifILb1ENS_9allocatorINS_20__shared_ptr_pointerIPNS_13__empty_stateIcEENS_10shared_ptrIS4_E27__shared_ptr_default_deleteIS4_S4_EENS1_IS4_EEEEEEEC2B8ue170006Ev, symObjAddr: 0x18BF0, symBinAddr: 0x10001D880, symSize: 0x10 }
  - { offsetInCU: 0x416A0, offset: 0x5F863, size: 0x8, addend: 0x0, symName: __ZNSt3__117__compressed_pairIPNS_13__empty_stateIcEENS_14default_deleteIS2_EEE5firstB8ue170006Ev, symObjAddr: 0x18C00, symBinAddr: 0x10001D890, symSize: 0x20 }
  - { offsetInCU: 0x416C6, offset: 0x5F889, size: 0x8, addend: 0x0, symName: __ZNSt3__110unique_ptrINS_13__empty_stateIcEENS_14default_deleteIS2_EEED2B8ue170006Ev, symObjAddr: 0x18C20, symBinAddr: 0x10001D8B0, symSize: 0x20 }
  - { offsetInCU: 0x416F0, offset: 0x5F8B3, size: 0x8, addend: 0x0, symName: __ZNSt3__110unique_ptrINS_13__empty_stateIcEENS_14default_deleteIS2_EEE5resetB8ue170006EPS2_, symObjAddr: 0x18C40, symBinAddr: 0x10001D8D0, symSize: 0x70 }
  - { offsetInCU: 0x41734, offset: 0x5F8F7, size: 0x8, addend: 0x0, symName: __ZNSt3__117__compressed_pairIPNS_13__empty_stateIcEENS_14default_deleteIS2_EEE6secondB8ue170006Ev, symObjAddr: 0x18CB0, symBinAddr: 0x10001D940, symSize: 0x20 }
  - { offsetInCU: 0x4175A, offset: 0x5F91D, size: 0x8, addend: 0x0, symName: __ZNSt3__122__compressed_pair_elemINS_14default_deleteINS_13__empty_stateIcEEEELi1ELb1EE5__getB8ue170006Ev, symObjAddr: 0x18CD0, symBinAddr: 0x10001D960, symSize: 0x10 }
  - { offsetInCU: 0x41780, offset: 0x5F943, size: 0x8, addend: 0x0, symName: __ZNKSt3__117__compressed_pairIPNS_6__nodeIcEENS_14default_deleteIS2_EEE5firstB8ue170006Ev, symObjAddr: 0x18D60, symBinAddr: 0x10001D9F0, symSize: 0x20 }
  - { offsetInCU: 0x417A6, offset: 0x5F969, size: 0x8, addend: 0x0, symName: __ZNKSt3__122__compressed_pair_elemIPNS_6__nodeIcEELi0ELb0EE5__getB8ue170006Ev, symObjAddr: 0x18D80, symBinAddr: 0x10001DA10, symSize: 0x10 }
  - { offsetInCU: 0x417CC, offset: 0x5F98F, size: 0x8, addend: 0x0, symName: __ZNSt3__113__empty_stateIcEC2B8ue170006EPNS_6__nodeIcEE, symObjAddr: 0x18D90, symBinAddr: 0x10001DA20, symSize: 0x40 }
  - { offsetInCU: 0x41805, offset: 0x5F9C8, size: 0x8, addend: 0x0, symName: __ZNSt3__116__owns_one_stateIcEC2B8ue170006EPNS_6__nodeIcEE, symObjAddr: 0x18DD0, symBinAddr: 0x10001DA60, symSize: 0x40 }
  - { offsetInCU: 0x4183E, offset: 0x5FA01, size: 0x8, addend: 0x0, symName: __ZNSt3__113__empty_stateIcED1Ev, symObjAddr: 0x18E10, symBinAddr: 0x10001DAA0, symSize: 0x20 }
  - { offsetInCU: 0x4186B, offset: 0x5FA2E, size: 0x8, addend: 0x0, symName: __ZNSt3__113__empty_stateIcED0Ev, symObjAddr: 0x18E30, symBinAddr: 0x10001DAC0, symSize: 0x30 }
  - { offsetInCU: 0x41898, offset: 0x5FA5B, size: 0x8, addend: 0x0, symName: __ZNKSt3__113__empty_stateIcE6__execERNS_7__stateIcEE, symObjAddr: 0x18E60, symBinAddr: 0x10001DAF0, symSize: 0x40 }
  - { offsetInCU: 0x418CF, offset: 0x5FA92, size: 0x8, addend: 0x0, symName: __ZNSt3__115__has_one_stateIcEC2B8ue170006EPNS_6__nodeIcEE, symObjAddr: 0x18EA0, symBinAddr: 0x10001DB30, symSize: 0x40 }
  - { offsetInCU: 0x41908, offset: 0x5FACB, size: 0x8, addend: 0x0, symName: __ZNSt3__116__owns_one_stateIcED1Ev, symObjAddr: 0x18EE0, symBinAddr: 0x10001DB70, symSize: 0x20 }
  - { offsetInCU: 0x41934, offset: 0x5FAF7, size: 0x8, addend: 0x0, symName: __ZNSt3__116__owns_one_stateIcED0Ev, symObjAddr: 0x18F00, symBinAddr: 0x10001DB90, symSize: 0x30 }
  - { offsetInCU: 0x41960, offset: 0x5FB23, size: 0x8, addend: 0x0, symName: __ZNSt3__115__has_one_stateIcED1Ev, symObjAddr: 0x18F30, symBinAddr: 0x10001DBC0, symSize: 0x20 }
  - { offsetInCU: 0x4198D, offset: 0x5FB50, size: 0x8, addend: 0x0, symName: __ZNSt3__115__has_one_stateIcED0Ev, symObjAddr: 0x18F50, symBinAddr: 0x10001DBE0, symSize: 0x30 }
  - { offsetInCU: 0x419BA, offset: 0x5FB7D, size: 0x8, addend: 0x0, symName: __ZNSt3__115__has_one_stateIcED2Ev, symObjAddr: 0x18F80, symBinAddr: 0x10001DC10, symSize: 0x20 }
  - { offsetInCU: 0x419E7, offset: 0x5FBAA, size: 0x8, addend: 0x0, symName: __ZNSt3__116__owns_one_stateIcED2Ev, symObjAddr: 0x18FA0, symBinAddr: 0x10001DC30, symSize: 0x70 }
  - { offsetInCU: 0x41A13, offset: 0x5FBD6, size: 0x8, addend: 0x0, symName: __ZNSt3__115__has_one_stateIcE5firstB8ue170006Ev, symObjAddr: 0x19010, symBinAddr: 0x10001DCA0, symSize: 0x20 }
  - { offsetInCU: 0x41A39, offset: 0x5FBFC, size: 0x8, addend: 0x0, symName: __ZNSt3__113__empty_stateIcED2Ev, symObjAddr: 0x19030, symBinAddr: 0x10001DCC0, symSize: 0x20 }
  - { offsetInCU: 0x41A66, offset: 0x5FC29, size: 0x8, addend: 0x0, symName: __ZNKSt3__115__has_one_stateIcE5firstB8ue170006Ev, symObjAddr: 0x19050, symBinAddr: 0x10001DCE0, symSize: 0x20 }
  - { offsetInCU: 0x41A8C, offset: 0x5FC4F, size: 0x8, addend: 0x0, symName: __ZNSt3__117__compressed_pairIPNS_6__nodeIcEENS_14default_deleteIS2_EEE5firstB8ue170006Ev, symObjAddr: 0x19070, symBinAddr: 0x10001DD00, symSize: 0x20 }
  - { offsetInCU: 0x41AB2, offset: 0x5FC75, size: 0x8, addend: 0x0, symName: __ZNSt3__122__compressed_pair_elemIPNS_6__nodeIcEELi0ELb0EE5__getB8ue170006Ev, symObjAddr: 0x19090, symBinAddr: 0x10001DD20, symSize: 0x10 }
  - { offsetInCU: 0x41AD8, offset: 0x5FC9B, size: 0x8, addend: 0x0, symName: __ZNSt3__110unique_ptrINS_6__nodeIcEENS_14default_deleteIS2_EEED2B8ue170006Ev, symObjAddr: 0x190A0, symBinAddr: 0x10001DD30, symSize: 0x20 }
  - { offsetInCU: 0x41B02, offset: 0x5FCC5, size: 0x8, addend: 0x0, symName: __ZNSt3__110unique_ptrINS_6__nodeIcEENS_14default_deleteIS2_EEE5resetB8ue170006EPS2_, symObjAddr: 0x190C0, symBinAddr: 0x10001DD50, symSize: 0x70 }
  - { offsetInCU: 0x41B46, offset: 0x5FD09, size: 0x8, addend: 0x0, symName: __ZNSt3__117__compressed_pairIPNS_6__nodeIcEENS_14default_deleteIS2_EEE6secondB8ue170006Ev, symObjAddr: 0x19130, symBinAddr: 0x10001DDC0, symSize: 0x20 }
  - { offsetInCU: 0x41B6C, offset: 0x5FD2F, size: 0x8, addend: 0x0, symName: __ZNKSt3__114default_deleteINS_6__nodeIcEEEclB8ue170006EPS2_, symObjAddr: 0x19150, symBinAddr: 0x10001DDE0, symSize: 0x40 }
  - { offsetInCU: 0x41BA0, offset: 0x5FD63, size: 0x8, addend: 0x0, symName: __ZNSt3__122__compressed_pair_elemINS_14default_deleteINS_6__nodeIcEEEELi1ELb1EE5__getB8ue170006Ev, symObjAddr: 0x19190, symBinAddr: 0x10001DE20, symSize: 0x10 }
  - { offsetInCU: 0x41BC6, offset: 0x5FD89, size: 0x8, addend: 0x0, symName: __ZNSt3__111basic_regexIcNS_12regex_traitsIcEEE19__parse_alternativeIPKcEET_S7_S7_, symObjAddr: 0x191A0, symBinAddr: 0x10001DE30, symSize: 0x60 }
  - { offsetInCU: 0x41C32, offset: 0x5FDF5, size: 0x8, addend: 0x0, symName: __ZNSt3__111basic_regexIcNS_12regex_traitsIcEEE12__push_emptyEv, symObjAddr: 0x19200, symBinAddr: 0x10001DE90, symSize: 0xA0 }
  - { offsetInCU: 0x41C5A, offset: 0x5FE1D, size: 0x8, addend: 0x0, symName: __ZNSt3__111basic_regexIcNS_12regex_traitsIcEEE18__push_alternationEPNS_16__owns_one_stateIcEES6_, symObjAddr: 0x192A0, symBinAddr: 0x10001DF30, symSize: 0x190 }
  - { offsetInCU: 0x41CA0, offset: 0x5FE63, size: 0x8, addend: 0x0, symName: __ZNSt3__111basic_regexIcNS_12regex_traitsIcEEE12__parse_termIPKcEET_S7_S7_, symObjAddr: 0x19430, symBinAddr: 0x10001E0C0, symSize: 0xB0 }
  - { offsetInCU: 0x41D2A, offset: 0x5FEED, size: 0x8, addend: 0x0, symName: __ZNSt3__111basic_regexIcNS_12regex_traitsIcEEE17__parse_assertionIPKcEET_S7_S7_, symObjAddr: 0x194E0, symBinAddr: 0x10001E170, symSize: 0x3D0 }
  - { offsetInCU: 0x41DF7, offset: 0x5FFBA, size: 0x8, addend: 0x0, symName: __ZNSt3__111basic_regexIcNS_12regex_traitsIcEEE12__parse_atomIPKcEET_S7_S7_, symObjAddr: 0x198B0, symBinAddr: 0x10001E540, symSize: 0x270 }
  - { offsetInCU: 0x41E80, offset: 0x60043, size: 0x8, addend: 0x0, symName: __ZNSt3__111basic_regexIcNS_12regex_traitsIcEEE23__parse_ERE_dupl_symbolIPKcEET_S7_S7_PNS_16__owns_one_stateIcEEjj, symObjAddr: 0x19B20, symBinAddr: 0x10001E7B0, symSize: 0x510 }
  - { offsetInCU: 0x41F62, offset: 0x60125, size: 0x8, addend: 0x0, symName: __ZNSt3__111basic_regexIcNS_12regex_traitsIcEEE15__push_l_anchorEv, symObjAddr: 0x1A030, symBinAddr: 0x10001ECC0, symSize: 0xC0 }
  - { offsetInCU: 0x41F8A, offset: 0x6014D, size: 0x8, addend: 0x0, symName: __ZNSt3__111basic_regexIcNS_12regex_traitsIcEEE15__push_r_anchorEv, symObjAddr: 0x1A0F0, symBinAddr: 0x10001ED80, symSize: 0xC0 }
  - { offsetInCU: 0x41FB2, offset: 0x60175, size: 0x8, addend: 0x0, symName: __ZNSt3__111basic_regexIcNS_12regex_traitsIcEEE20__push_word_boundaryEb, symObjAddr: 0x1A1E0, symBinAddr: 0x10001EE70, symSize: 0xC0 }
  - { offsetInCU: 0x41FE9, offset: 0x601AC, size: 0x8, addend: 0x0, symName: __ZNSt3__111basic_regexIcNS_12regex_traitsIcEEEC1B8ue170006Ev, symObjAddr: 0x1A2A0, symBinAddr: 0x10001EF30, symSize: 0x20 }
  - { offsetInCU: 0x42013, offset: 0x601D6, size: 0x8, addend: 0x0, symName: __ZNSt3__111basic_regexIcNS_12regex_traitsIcEEE16__push_lookaheadERKS3_bj, symObjAddr: 0x1A2C0, symBinAddr: 0x10001EF50, symSize: 0xD0 }
  - { offsetInCU: 0x42068, offset: 0x6022B, size: 0x8, addend: 0x0, symName: __ZNKSt3__111basic_regexIcNS_12regex_traitsIcEEE15__use_multilineB8ue170006Ev, symObjAddr: 0x1A3F0, symBinAddr: 0x10001F080, symSize: 0x60 }
  - { offsetInCU: 0x420A2, offset: 0x60265, size: 0x8, addend: 0x0, symName: __ZNSt3__120__l_anchor_multilineIcEC1B8ue170006EbPNS_6__nodeIcEE, symObjAddr: 0x1A450, symBinAddr: 0x10001F0E0, symSize: 0x40 }
  - { offsetInCU: 0x420EA, offset: 0x602AD, size: 0x8, addend: 0x0, symName: __ZNSt3__120__l_anchor_multilineIcEC2B8ue170006EbPNS_6__nodeIcEE, symObjAddr: 0x1A4B0, symBinAddr: 0x10001F140, symSize: 0x50 }
  - { offsetInCU: 0x42132, offset: 0x602F5, size: 0x8, addend: 0x0, symName: __ZNSt3__120__l_anchor_multilineIcED1Ev, symObjAddr: 0x1A500, symBinAddr: 0x10001F190, symSize: 0x20 }
  - { offsetInCU: 0x4215F, offset: 0x60322, size: 0x8, addend: 0x0, symName: __ZNSt3__120__l_anchor_multilineIcED0Ev, symObjAddr: 0x1A520, symBinAddr: 0x10001F1B0, symSize: 0x30 }
  - { offsetInCU: 0x4218C, offset: 0x6034F, size: 0x8, addend: 0x0, symName: __ZNKSt3__120__l_anchor_multilineIcE6__execERNS_7__stateIcEE, symObjAddr: 0x1A550, symBinAddr: 0x10001F1E0, symSize: 0x100 }
  - { offsetInCU: 0x421C3, offset: 0x60386, size: 0x8, addend: 0x0, symName: __ZNSt3__120__l_anchor_multilineIcED2Ev, symObjAddr: 0x1A650, symBinAddr: 0x10001F2E0, symSize: 0x20 }
  - { offsetInCU: 0x42204, offset: 0x603C7, size: 0x8, addend: 0x0, symName: __ZNSt3__120__r_anchor_multilineIcEC1B8ue170006EbPNS_6__nodeIcEE, symObjAddr: 0x1A750, symBinAddr: 0x10001F3E0, symSize: 0x40 }
  - { offsetInCU: 0x4224C, offset: 0x6040F, size: 0x8, addend: 0x0, symName: __ZNSt3__120__r_anchor_multilineIcEC2B8ue170006EbPNS_6__nodeIcEE, symObjAddr: 0x1A790, symBinAddr: 0x10001F420, symSize: 0x50 }
  - { offsetInCU: 0x42294, offset: 0x60457, size: 0x8, addend: 0x0, symName: __ZNSt3__120__r_anchor_multilineIcED1Ev, symObjAddr: 0x1A7E0, symBinAddr: 0x10001F470, symSize: 0x20 }
  - { offsetInCU: 0x422C1, offset: 0x60484, size: 0x8, addend: 0x0, symName: __ZNSt3__120__r_anchor_multilineIcED0Ev, symObjAddr: 0x1A800, symBinAddr: 0x10001F490, symSize: 0x30 }
  - { offsetInCU: 0x422EE, offset: 0x604B1, size: 0x8, addend: 0x0, symName: __ZNKSt3__120__r_anchor_multilineIcE6__execERNS_7__stateIcEE, symObjAddr: 0x1A830, symBinAddr: 0x10001F4C0, symSize: 0xE0 }
  - { offsetInCU: 0x42325, offset: 0x604E8, size: 0x8, addend: 0x0, symName: __ZNSt3__120__r_anchor_multilineIcED2Ev, symObjAddr: 0x1A910, symBinAddr: 0x10001F5A0, symSize: 0x20 }
  - { offsetInCU: 0x42366, offset: 0x60529, size: 0x8, addend: 0x0, symName: __ZNSt3__115__word_boundaryIcNS_12regex_traitsIcEEEC1B8ue170006ERKS2_bPNS_6__nodeIcEE, symObjAddr: 0x1A930, symBinAddr: 0x10001F5C0, symSize: 0x40 }
  - { offsetInCU: 0x423BD, offset: 0x60580, size: 0x8, addend: 0x0, symName: __ZNSt3__115__word_boundaryIcNS_12regex_traitsIcEEEC2B8ue170006ERKS2_bPNS_6__nodeIcEE, symObjAddr: 0x1A970, symBinAddr: 0x10001F600, symSize: 0x60 }
  - { offsetInCU: 0x42414, offset: 0x605D7, size: 0x8, addend: 0x0, symName: __ZNSt3__112regex_traitsIcEC1ERKS1_, symObjAddr: 0x1A9D0, symBinAddr: 0x10001F660, symSize: 0x30 }
  - { offsetInCU: 0x4244A, offset: 0x6060D, size: 0x8, addend: 0x0, symName: __ZNSt3__115__word_boundaryIcNS_12regex_traitsIcEEED1Ev, symObjAddr: 0x1AA00, symBinAddr: 0x10001F690, symSize: 0x20 }
  - { offsetInCU: 0x42477, offset: 0x6063A, size: 0x8, addend: 0x0, symName: __ZNSt3__115__word_boundaryIcNS_12regex_traitsIcEEED0Ev, symObjAddr: 0x1AA20, symBinAddr: 0x10001F6B0, symSize: 0x30 }
  - { offsetInCU: 0x424A4, offset: 0x60667, size: 0x8, addend: 0x0, symName: __ZNKSt3__115__word_boundaryIcNS_12regex_traitsIcEEE6__execERNS_7__stateIcEE, symObjAddr: 0x1AA50, symBinAddr: 0x10001F6E0, symSize: 0x240 }
  - { offsetInCU: 0x4256E, offset: 0x60731, size: 0x8, addend: 0x0, symName: __ZNSt3__112regex_traitsIcEC2ERKS1_, symObjAddr: 0x1AC90, symBinAddr: 0x10001F920, symSize: 0x40 }
  - { offsetInCU: 0x425A4, offset: 0x60767, size: 0x8, addend: 0x0, symName: __ZNSt3__115__word_boundaryIcNS_12regex_traitsIcEEED2Ev, symObjAddr: 0x1ACD0, symBinAddr: 0x10001F960, symSize: 0x40 }
  - { offsetInCU: 0x425D1, offset: 0x60794, size: 0x8, addend: 0x0, symName: __ZNKSt3__112regex_traitsIcE7isctypeEcj, symObjAddr: 0x1AD10, symBinAddr: 0x10001F9A0, symSize: 0x80 }
  - { offsetInCU: 0x42617, offset: 0x607DA, size: 0x8, addend: 0x0, symName: __ZNSt3__111basic_regexIcNS_12regex_traitsIcEEEC2B8ue170006Ev, symObjAddr: 0x1AD90, symBinAddr: 0x10001FA20, symSize: 0x60 }
  - { offsetInCU: 0x4265F, offset: 0x60822, size: 0x8, addend: 0x0, symName: __ZNSt3__111__lookaheadIcNS_12regex_traitsIcEEEC1B8ue170006ERKNS_11basic_regexIcS2_EEbPNS_6__nodeIcEEj, symObjAddr: 0x1ADF0, symBinAddr: 0x10001FA80, symSize: 0x50 }
  - { offsetInCU: 0x426C5, offset: 0x60888, size: 0x8, addend: 0x0, symName: __ZNSt3__111__lookaheadIcNS_12regex_traitsIcEEEC2B8ue170006ERKNS_11basic_regexIcS2_EEbPNS_6__nodeIcEEj, symObjAddr: 0x1AE40, symBinAddr: 0x10001FAD0, symSize: 0x70 }
  - { offsetInCU: 0x4272B, offset: 0x608EE, size: 0x8, addend: 0x0, symName: __ZNSt3__111basic_regexIcNS_12regex_traitsIcEEEC1ERKS3_, symObjAddr: 0x1AEB0, symBinAddr: 0x10001FB40, symSize: 0x30 }
  - { offsetInCU: 0x42761, offset: 0x60924, size: 0x8, addend: 0x0, symName: __ZNSt3__111__lookaheadIcNS_12regex_traitsIcEEED1Ev, symObjAddr: 0x1AEE0, symBinAddr: 0x10001FB70, symSize: 0x20 }
  - { offsetInCU: 0x4278E, offset: 0x60951, size: 0x8, addend: 0x0, symName: __ZNSt3__111__lookaheadIcNS_12regex_traitsIcEEED0Ev, symObjAddr: 0x1AF00, symBinAddr: 0x10001FB90, symSize: 0x30 }
  - { offsetInCU: 0x427BB, offset: 0x6097E, size: 0x8, addend: 0x0, symName: __ZNKSt3__111__lookaheadIcNS_12regex_traitsIcEEE6__execERNS_7__stateIcEE, symObjAddr: 0x1AF30, symBinAddr: 0x10001FBC0, symSize: 0x290 }
  - { offsetInCU: 0x42830, offset: 0x609F3, size: 0x8, addend: 0x0, symName: __ZNSt3__111basic_regexIcNS_12regex_traitsIcEEEC2ERKS3_, symObjAddr: 0x1B1C0, symBinAddr: 0x10001FE50, symSize: 0x60 }
  - { offsetInCU: 0x42866, offset: 0x60A29, size: 0x8, addend: 0x0, symName: __ZNSt3__110shared_ptrINS_13__empty_stateIcEEEC1B8ue170006ERKS3_, symObjAddr: 0x1B220, symBinAddr: 0x10001FEB0, symSize: 0x30 }
  - { offsetInCU: 0x4289F, offset: 0x60A62, size: 0x8, addend: 0x0, symName: __ZNSt3__110shared_ptrINS_13__empty_stateIcEEEC2B8ue170006ERKS3_, symObjAddr: 0x1B250, symBinAddr: 0x10001FEE0, symSize: 0x50 }
  - { offsetInCU: 0x428D8, offset: 0x60A9B, size: 0x8, addend: 0x0, symName: __ZNSt3__119__shared_weak_count12__add_sharedB8ue170006Ev, symObjAddr: 0x1B2A0, symBinAddr: 0x10001FF30, symSize: 0x20 }
  - { offsetInCU: 0x428FE, offset: 0x60AC1, size: 0x8, addend: 0x0, symName: __ZNSt3__114__shared_count12__add_sharedB8ue170006Ev, symObjAddr: 0x1B2C0, symBinAddr: 0x10001FF50, symSize: 0x20 }
  - { offsetInCU: 0x42924, offset: 0x60AE7, size: 0x8, addend: 0x0, symName: __ZNSt3__111__lookaheadIcNS_12regex_traitsIcEEED2Ev, symObjAddr: 0x1B310, symBinAddr: 0x10001FFA0, symSize: 0x40 }
  - { offsetInCU: 0x42983, offset: 0x60B46, size: 0x8, addend: 0x0, symName: __ZNSt3__113match_resultsIPKcNS_9allocatorINS_9sub_matchIS2_EEEEEC1Ev, symObjAddr: 0x1B350, symBinAddr: 0x10001FFE0, symSize: 0x30 }
  - { offsetInCU: 0x429AD, offset: 0x60B70, size: 0x8, addend: 0x0, symName: __ZNSt3__113match_resultsIPKcNS_9allocatorINS_9sub_matchIS2_EEEEE6__initEjS2_S2_b, symObjAddr: 0x1B380, symBinAddr: 0x100020010, symSize: 0xA0 }
  - { offsetInCU: 0x42A11, offset: 0x60BD4, size: 0x8, addend: 0x0, symName: __ZNKSt3__111basic_regexIcNS_12regex_traitsIcEEE10mark_countB8ue170006Ev, symObjAddr: 0x1B420, symBinAddr: 0x1000200B0, symSize: 0x20 }
  - { offsetInCU: 0x42A3C, offset: 0x60BFF, size: 0x8, addend: 0x0, symName: __ZNKSt3__111basic_regexIcNS_12regex_traitsIcEEE21__match_at_start_ecmaINS_9allocatorINS_9sub_matchIPKcEEEEEEbS8_S8_RNS_13match_resultsIS8_T_EENS_15regex_constants15match_flag_typeEb, symObjAddr: 0x1B440, symBinAddr: 0x1000200D0, symSize: 0x5E0 }
  - { offsetInCU: 0x42B60, offset: 0x60D23, size: 0x8, addend: 0x0, symName: __ZNKSt3__113match_resultsIPKcNS_9allocatorINS_9sub_matchIS2_EEEEE4sizeB8ue170006Ev, symObjAddr: 0x1BA60, symBinAddr: 0x1000206F0, symSize: 0x20 }
  - { offsetInCU: 0x42B86, offset: 0x60D49, size: 0x8, addend: 0x0, symName: __ZNSt3__16vectorINS_9sub_matchIPKcEENS_9allocatorIS4_EEEixB8ue170006Em, symObjAddr: 0x1BA80, symBinAddr: 0x100020710, symSize: 0x20 }
  - { offsetInCU: 0x42BBD, offset: 0x60D80, size: 0x8, addend: 0x0, symName: __ZNSt3__19sub_matchIPKcEaSERKS3_, symObjAddr: 0x1BAA0, symBinAddr: 0x100020730, symSize: 0x40 }
  - { offsetInCU: 0x42BF4, offset: 0x60DB7, size: 0x8, addend: 0x0, symName: __ZNSt3__113match_resultsIPKcNS_9allocatorINS_9sub_matchIS2_EEEEED1Ev, symObjAddr: 0x1BAE0, symBinAddr: 0x100020770, symSize: 0x20 }
  - { offsetInCU: 0x42C21, offset: 0x60DE4, size: 0x8, addend: 0x0, symName: __ZNSt3__19allocatorINS_9sub_matchIPKcEEEC1B8ue170006Ev, symObjAddr: 0x1BB00, symBinAddr: 0x100020790, symSize: 0x20 }
  - { offsetInCU: 0x42C4B, offset: 0x60E0E, size: 0x8, addend: 0x0, symName: __ZNSt3__113match_resultsIPKcNS_9allocatorINS_9sub_matchIS2_EEEEEC1ERKS6_, symObjAddr: 0x1BB20, symBinAddr: 0x1000207B0, symSize: 0x30 }
  - { offsetInCU: 0x42C86, offset: 0x60E49, size: 0x8, addend: 0x0, symName: __ZNSt3__19allocatorINS_9sub_matchIPKcEEEC2B8ue170006Ev, symObjAddr: 0x1BB50, symBinAddr: 0x1000207E0, symSize: 0x20 }
  - { offsetInCU: 0x42CB0, offset: 0x60E73, size: 0x8, addend: 0x0, symName: __ZNSt3__116__non_trivial_ifILb1ENS_9allocatorINS_9sub_matchIPKcEEEEEC2B8ue170006Ev, symObjAddr: 0x1BB70, symBinAddr: 0x100020800, symSize: 0x10 }
  - { offsetInCU: 0x42CDA, offset: 0x60E9D, size: 0x8, addend: 0x0, symName: __ZNSt3__113match_resultsIPKcNS_9allocatorINS_9sub_matchIS2_EEEEEC2ERKS6_, symObjAddr: 0x1BB80, symBinAddr: 0x100020810, symSize: 0xA0 }
  - { offsetInCU: 0x42D15, offset: 0x60ED8, size: 0x8, addend: 0x0, symName: __ZNSt3__16vectorINS_9sub_matchIPKcEENS_9allocatorIS4_EEEC1B8ue170006ERKS6_, symObjAddr: 0x1BC20, symBinAddr: 0x1000208B0, symSize: 0x30 }
  - { offsetInCU: 0x42D4E, offset: 0x60F11, size: 0x8, addend: 0x0, symName: __ZNSt3__19sub_matchIPKcEC1B8ue170006Ev, symObjAddr: 0x1BC50, symBinAddr: 0x1000208E0, symSize: 0x20 }
  - { offsetInCU: 0x42D78, offset: 0x60F3B, size: 0x8, addend: 0x0, symName: __ZNSt3__16vectorINS_9sub_matchIPKcEENS_9allocatorIS4_EEED1B8ue170006Ev, symObjAddr: 0x1BC70, symBinAddr: 0x100020900, symSize: 0x20 }
  - { offsetInCU: 0x42DA2, offset: 0x60F65, size: 0x8, addend: 0x0, symName: __ZNSt3__16vectorINS_9sub_matchIPKcEENS_9allocatorIS4_EEEC2B8ue170006ERKS6_, symObjAddr: 0x1BC90, symBinAddr: 0x100020920, symSize: 0x50 }
  - { offsetInCU: 0x42DDB, offset: 0x60F9E, size: 0x8, addend: 0x0, symName: __ZNSt3__117__compressed_pairIPNS_9sub_matchIPKcEENS_9allocatorIS4_EEEC1B8ue170006IDnRKS7_EEOT_OT0_, symObjAddr: 0x1BCE0, symBinAddr: 0x100020970, symSize: 0x30 }
  - { offsetInCU: 0x42E33, offset: 0x60FF6, size: 0x8, addend: 0x0, symName: __ZNSt3__117__compressed_pairIPNS_9sub_matchIPKcEENS_9allocatorIS4_EEEC2B8ue170006IDnRKS7_EEOT_OT0_, symObjAddr: 0x1BD10, symBinAddr: 0x1000209A0, symSize: 0x40 }
  - { offsetInCU: 0x42E8B, offset: 0x6104E, size: 0x8, addend: 0x0, symName: __ZNSt3__122__compressed_pair_elemIPNS_9sub_matchIPKcEELi0ELb0EEC2B8ue170006IDnvEEOT_, symObjAddr: 0x1BD50, symBinAddr: 0x1000209E0, symSize: 0x20 }
  - { offsetInCU: 0x42ECD, offset: 0x61090, size: 0x8, addend: 0x0, symName: __ZNSt3__122__compressed_pair_elemINS_9allocatorINS_9sub_matchIPKcEEEELi1ELb1EEC2B8ue170006IRKS6_vEEOT_, symObjAddr: 0x1BD70, symBinAddr: 0x100020A00, symSize: 0x10 }
  - { offsetInCU: 0x42F0F, offset: 0x610D2, size: 0x8, addend: 0x0, symName: __ZNSt3__19sub_matchIPKcEC2B8ue170006Ev, symObjAddr: 0x1BD80, symBinAddr: 0x100020A10, symSize: 0x30 }
  - { offsetInCU: 0x42F39, offset: 0x610FC, size: 0x8, addend: 0x0, symName: __ZNSt3__14pairIPKcS2_EC2B8ue170006ILb1ELPv0EEEv, symObjAddr: 0x1BDB0, symBinAddr: 0x100020A40, symSize: 0x20 }
  - { offsetInCU: 0x42F73, offset: 0x61136, size: 0x8, addend: 0x0, symName: __ZNSt3__16vectorINS_9sub_matchIPKcEENS_9allocatorIS4_EEED2B8ue170006Ev, symObjAddr: 0x1BDD0, symBinAddr: 0x100020A60, symSize: 0x40 }
  - { offsetInCU: 0x42F9D, offset: 0x61160, size: 0x8, addend: 0x0, symName: __ZNSt3__16vectorINS_9sub_matchIPKcEENS_9allocatorIS4_EEE16__destroy_vectorC1B8ue170006ERS7_, symObjAddr: 0x1BE10, symBinAddr: 0x100020AA0, symSize: 0x30 }
  - { offsetInCU: 0x42FD6, offset: 0x61199, size: 0x8, addend: 0x0, symName: __ZNSt3__16vectorINS_9sub_matchIPKcEENS_9allocatorIS4_EEE16__destroy_vectorclB8ue170006Ev, symObjAddr: 0x1BE40, symBinAddr: 0x100020AD0, symSize: 0x80 }
  - { offsetInCU: 0x42FFC, offset: 0x611BF, size: 0x8, addend: 0x0, symName: __ZNSt3__16vectorINS_9sub_matchIPKcEENS_9allocatorIS4_EEE16__destroy_vectorC2B8ue170006ERS7_, symObjAddr: 0x1BEC0, symBinAddr: 0x100020B50, symSize: 0x20 }
  - { offsetInCU: 0x43035, offset: 0x611F8, size: 0x8, addend: 0x0, symName: __ZNSt3__16vectorINS_9sub_matchIPKcEENS_9allocatorIS4_EEE7__clearB8ue170006Ev, symObjAddr: 0x1BEE0, symBinAddr: 0x100020B70, symSize: 0x20 }
  - { offsetInCU: 0x4305B, offset: 0x6121E, size: 0x8, addend: 0x0, symName: __ZNKSt3__16vectorINS_9sub_matchIPKcEENS_9allocatorIS4_EEE17__annotate_deleteB8ue170006Ev, symObjAddr: 0x1BF00, symBinAddr: 0x100020B90, symSize: 0xB0 }
  - { offsetInCU: 0x43081, offset: 0x61244, size: 0x8, addend: 0x0, symName: __ZNSt3__116allocator_traitsINS_9allocatorINS_9sub_matchIPKcEEEEE10deallocateB8ue170006ERS6_PS5_m, symObjAddr: 0x1BFB0, symBinAddr: 0x100020C40, symSize: 0x30 }
  - { offsetInCU: 0x430C3, offset: 0x61286, size: 0x8, addend: 0x0, symName: __ZNSt3__16vectorINS_9sub_matchIPKcEENS_9allocatorIS4_EEE7__allocB8ue170006Ev, symObjAddr: 0x1BFE0, symBinAddr: 0x100020C70, symSize: 0x20 }
  - { offsetInCU: 0x430E9, offset: 0x612AC, size: 0x8, addend: 0x0, symName: __ZNKSt3__16vectorINS_9sub_matchIPKcEENS_9allocatorIS4_EEE8capacityB8ue170006Ev, symObjAddr: 0x1C000, symBinAddr: 0x100020C90, symSize: 0x40 }
  - { offsetInCU: 0x4310F, offset: 0x612D2, size: 0x8, addend: 0x0, symName: __ZNSt3__16vectorINS_9sub_matchIPKcEENS_9allocatorIS4_EEE22__base_destruct_at_endB8ue170006EPS4_, symObjAddr: 0x1C040, symBinAddr: 0x100020CD0, symSize: 0x80 }
  - { offsetInCU: 0x43153, offset: 0x61316, size: 0x8, addend: 0x0, symName: __ZNSt3__116allocator_traitsINS_9allocatorINS_9sub_matchIPKcEEEEE7destroyB8ue170006IS5_vEEvRS6_PT_, symObjAddr: 0x1C0C0, symBinAddr: 0x100020D50, symSize: 0x30 }
  - { offsetInCU: 0x43190, offset: 0x61353, size: 0x8, addend: 0x0, symName: __ZNSt3__19allocatorINS_9sub_matchIPKcEEE7destroyB8ue170006EPS4_, symObjAddr: 0x1C100, symBinAddr: 0x100020D90, symSize: 0x10 }
  - { offsetInCU: 0x431C4, offset: 0x61387, size: 0x8, addend: 0x0, symName: __ZNKSt3__16vectorINS_9sub_matchIPKcEENS_9allocatorIS4_EEE31__annotate_contiguous_containerB8ue170006EPKvS9_S9_S9_, symObjAddr: 0x1C110, symBinAddr: 0x100020DA0, symSize: 0x20 }
  - { offsetInCU: 0x43216, offset: 0x613D9, size: 0x8, addend: 0x0, symName: __ZNKSt3__16vectorINS_9sub_matchIPKcEENS_9allocatorIS4_EEE4dataB8ue170006Ev, symObjAddr: 0x1C130, symBinAddr: 0x100020DC0, symSize: 0x20 }
  - { offsetInCU: 0x4323C, offset: 0x613FF, size: 0x8, addend: 0x0, symName: __ZNKSt3__16vectorINS_9sub_matchIPKcEENS_9allocatorIS4_EEE4sizeB8ue170006Ev, symObjAddr: 0x1C150, symBinAddr: 0x100020DE0, symSize: 0x30 }
  - { offsetInCU: 0x43262, offset: 0x61425, size: 0x8, addend: 0x0, symName: __ZNSt3__19allocatorINS_9sub_matchIPKcEEE10deallocateB8ue170006EPS4_m, symObjAddr: 0x1C180, symBinAddr: 0x100020E10, symSize: 0x50 }
  - { offsetInCU: 0x432A4, offset: 0x61467, size: 0x8, addend: 0x0, symName: __ZNSt3__117__compressed_pairIPNS_9sub_matchIPKcEENS_9allocatorIS4_EEE6secondB8ue170006Ev, symObjAddr: 0x1C1D0, symBinAddr: 0x100020E60, symSize: 0x20 }
  - { offsetInCU: 0x432CA, offset: 0x6148D, size: 0x8, addend: 0x0, symName: __ZNSt3__122__compressed_pair_elemINS_9allocatorINS_9sub_matchIPKcEEEELi1ELb1EE5__getB8ue170006Ev, symObjAddr: 0x1C1F0, symBinAddr: 0x100020E80, symSize: 0x10 }
  - { offsetInCU: 0x432F0, offset: 0x614B3, size: 0x8, addend: 0x0, symName: __ZNKSt3__16vectorINS_9sub_matchIPKcEENS_9allocatorIS4_EEE9__end_capB8ue170006Ev, symObjAddr: 0x1C200, symBinAddr: 0x100020E90, symSize: 0x20 }
  - { offsetInCU: 0x43316, offset: 0x614D9, size: 0x8, addend: 0x0, symName: __ZNKSt3__117__compressed_pairIPNS_9sub_matchIPKcEENS_9allocatorIS4_EEE5firstB8ue170006Ev, symObjAddr: 0x1C220, symBinAddr: 0x100020EB0, symSize: 0x20 }
  - { offsetInCU: 0x4333C, offset: 0x614FF, size: 0x8, addend: 0x0, symName: __ZNKSt3__122__compressed_pair_elemIPNS_9sub_matchIPKcEELi0ELb0EE5__getB8ue170006Ev, symObjAddr: 0x1C240, symBinAddr: 0x100020ED0, symSize: 0x10 }
  - { offsetInCU: 0x43362, offset: 0x61525, size: 0x8, addend: 0x0, symName: __ZNSt3__16vectorINS_9sub_matchIPKcEENS_9allocatorIS4_EEE6assignEmRKS4_, symObjAddr: 0x1C250, symBinAddr: 0x100020EE0, symSize: 0xF0 }
  - { offsetInCU: 0x433C5, offset: 0x61588, size: 0x8, addend: 0x0, symName: __ZNSt3__16vectorINS_9sub_matchIPKcEENS_9allocatorIS4_EEE18__construct_at_endEmRKS4_, symObjAddr: 0x1C380, symBinAddr: 0x100021010, symSize: 0xC0 }
  - { offsetInCU: 0x43446, offset: 0x61609, size: 0x8, addend: 0x0, symName: __ZNSt3__16vectorINS_9sub_matchIPKcEENS_9allocatorIS4_EEE17__destruct_at_endB8ue170006EPS4_, symObjAddr: 0x1C440, symBinAddr: 0x1000210D0, symSize: 0x50 }
  - { offsetInCU: 0x4348A, offset: 0x6164D, size: 0x8, addend: 0x0, symName: __ZNSt3__16vectorINS_9sub_matchIPKcEENS_9allocatorIS4_EEE13__vdeallocateEv, symObjAddr: 0x1C490, symBinAddr: 0x100021120, symSize: 0x90 }
  - { offsetInCU: 0x434B2, offset: 0x61675, size: 0x8, addend: 0x0, symName: __ZNSt3__16vectorINS_9sub_matchIPKcEENS_9allocatorIS4_EEE11__vallocateB8ue170006Em, symObjAddr: 0x1C520, symBinAddr: 0x1000211B0, symSize: 0xA0 }
  - { offsetInCU: 0x434F6, offset: 0x616B9, size: 0x8, addend: 0x0, symName: __ZNKSt3__16vectorINS_9sub_matchIPKcEENS_9allocatorIS4_EEE11__recommendB8ue170006Em, symObjAddr: 0x1C5C0, symBinAddr: 0x100021250, symSize: 0xA0 }
  - { offsetInCU: 0x43564, offset: 0x61727, size: 0x8, addend: 0x0, symName: __ZNSt3__16vectorINS_9sub_matchIPKcEENS_9allocatorIS4_EEE21_ConstructTransactionC1B8ue170006ERS7_m, symObjAddr: 0x1C6C0, symBinAddr: 0x100021350, symSize: 0x30 }
  - { offsetInCU: 0x435AC, offset: 0x6176F, size: 0x8, addend: 0x0, symName: __ZNSt3__116allocator_traitsINS_9allocatorINS_9sub_matchIPKcEEEEE9constructB8ue170006IS5_JRKS5_EvEEvRS6_PT_DpOT0_, symObjAddr: 0x1C6F0, symBinAddr: 0x100021380, symSize: 0x30 }
  - { offsetInCU: 0x43603, offset: 0x617C6, size: 0x8, addend: 0x0, symName: __ZNSt3__16vectorINS_9sub_matchIPKcEENS_9allocatorIS4_EEE21_ConstructTransactionD1B8ue170006Ev, symObjAddr: 0x1C720, symBinAddr: 0x1000213B0, symSize: 0x20 }
  - { offsetInCU: 0x4362D, offset: 0x617F0, size: 0x8, addend: 0x0, symName: __ZNSt3__16vectorINS_9sub_matchIPKcEENS_9allocatorIS4_EEE21_ConstructTransactionC2B8ue170006ERS7_m, symObjAddr: 0x1C740, symBinAddr: 0x1000213D0, symSize: 0x40 }
  - { offsetInCU: 0x43675, offset: 0x61838, size: 0x8, addend: 0x0, symName: __ZNSt3__19allocatorINS_9sub_matchIPKcEEE9constructB8ue170006IS4_JRKS4_EEEvPT_DpOT0_, symObjAddr: 0x1C780, symBinAddr: 0x100021410, symSize: 0x30 }
  - { offsetInCU: 0x436CB, offset: 0x6188E, size: 0x8, addend: 0x0, symName: __ZNSt3__16vectorINS_9sub_matchIPKcEENS_9allocatorIS4_EEE21_ConstructTransactionD2B8ue170006Ev, symObjAddr: 0x1C7B0, symBinAddr: 0x100021440, symSize: 0x20 }
  - { offsetInCU: 0x436F5, offset: 0x618B8, size: 0x8, addend: 0x0, symName: __ZNKSt3__16vectorINS_9sub_matchIPKcEENS_9allocatorIS4_EEE17__annotate_shrinkB8ue170006Em, symObjAddr: 0x1C7D0, symBinAddr: 0x100021460, symSize: 0xA0 }
  - { offsetInCU: 0x4372A, offset: 0x618ED, size: 0x8, addend: 0x0, symName: __ZNSt3__16vectorINS_9sub_matchIPKcEENS_9allocatorIS4_EEE5clearB8ue170006Ev, symObjAddr: 0x1C870, symBinAddr: 0x100021500, symSize: 0x40 }
  - { offsetInCU: 0x4375F, offset: 0x61922, size: 0x8, addend: 0x0, symName: __ZNSt3__16vectorINS_9sub_matchIPKcEENS_9allocatorIS4_EEE9__end_capB8ue170006Ev, symObjAddr: 0x1C8B0, symBinAddr: 0x100021540, symSize: 0x20 }
  - { offsetInCU: 0x43785, offset: 0x61948, size: 0x8, addend: 0x0, symName: __ZNSt3__117__compressed_pairIPNS_9sub_matchIPKcEENS_9allocatorIS4_EEE5firstB8ue170006Ev, symObjAddr: 0x1C8D0, symBinAddr: 0x100021560, symSize: 0x20 }
  - { offsetInCU: 0x437AB, offset: 0x6196E, size: 0x8, addend: 0x0, symName: __ZNSt3__122__compressed_pair_elemIPNS_9sub_matchIPKcEELi0ELb0EE5__getB8ue170006Ev, symObjAddr: 0x1C8F0, symBinAddr: 0x100021580, symSize: 0x10 }
  - { offsetInCU: 0x437D1, offset: 0x61994, size: 0x8, addend: 0x0, symName: __ZNKSt3__16vectorINS_9sub_matchIPKcEENS_9allocatorIS4_EEE8max_sizeEv, symObjAddr: 0x1C900, symBinAddr: 0x100021590, symSize: 0x60 }
  - { offsetInCU: 0x437F9, offset: 0x619BC, size: 0x8, addend: 0x0, symName: __ZNKSt3__16vectorINS_9sub_matchIPKcEENS_9allocatorIS4_EEE20__throw_length_errorB8ue170006Ev, symObjAddr: 0x1C960, symBinAddr: 0x1000215F0, symSize: 0x20 }
  - { offsetInCU: 0x4381F, offset: 0x619E2, size: 0x8, addend: 0x0, symName: __ZNKSt3__16vectorINS_9sub_matchIPKcEENS_9allocatorIS4_EEE14__annotate_newB8ue170006Em, symObjAddr: 0x1C9C0, symBinAddr: 0x100021650, symSize: 0xA0 }
  - { offsetInCU: 0x4385E, offset: 0x61A21, size: 0x8, addend: 0x0, symName: __ZNSt3__116allocator_traitsINS_9allocatorINS_9sub_matchIPKcEEEEE8max_sizeB8ue170006IS6_vEEmRKS6_, symObjAddr: 0x1CA60, symBinAddr: 0x1000216F0, symSize: 0x20 }
  - { offsetInCU: 0x4388C, offset: 0x61A4F, size: 0x8, addend: 0x0, symName: __ZNKSt3__16vectorINS_9sub_matchIPKcEENS_9allocatorIS4_EEE7__allocB8ue170006Ev, symObjAddr: 0x1CA80, symBinAddr: 0x100021710, symSize: 0x20 }
  - { offsetInCU: 0x438B2, offset: 0x61A75, size: 0x8, addend: 0x0, symName: __ZNKSt3__19allocatorINS_9sub_matchIPKcEEE8max_sizeB8ue170006Ev, symObjAddr: 0x1CAA0, symBinAddr: 0x100021730, symSize: 0x20 }
  - { offsetInCU: 0x438D8, offset: 0x61A9B, size: 0x8, addend: 0x0, symName: __ZNKSt3__117__compressed_pairIPNS_9sub_matchIPKcEENS_9allocatorIS4_EEE6secondB8ue170006Ev, symObjAddr: 0x1CAC0, symBinAddr: 0x100021750, symSize: 0x20 }
  - { offsetInCU: 0x438FE, offset: 0x61AC1, size: 0x8, addend: 0x0, symName: __ZNKSt3__122__compressed_pair_elemINS_9allocatorINS_9sub_matchIPKcEEEELi1ELb1EE5__getB8ue170006Ev, symObjAddr: 0x1CAE0, symBinAddr: 0x100021770, symSize: 0x10 }
  - { offsetInCU: 0x43924, offset: 0x61AE7, size: 0x8, addend: 0x0, symName: __ZNSt3__19allocatorINS_9sub_matchIPKcEEE8allocateB8ue170006Em, symObjAddr: 0x1CAF0, symBinAddr: 0x100021780, symSize: 0x50 }
  - { offsetInCU: 0x43958, offset: 0x61B1B, size: 0x8, addend: 0x0, symName: __ZNSt3__16vectorINS_7__stateIcEENS_9allocatorIS2_EEEC1B8ue170006Ev, symObjAddr: 0x1CB40, symBinAddr: 0x1000217D0, symSize: 0x20 }
  - { offsetInCU: 0x43982, offset: 0x61B45, size: 0x8, addend: 0x0, symName: __ZNSt3__16vectorINS_7__stateIcEENS_9allocatorIS2_EEE9push_backB8ue170006EOS2_, symObjAddr: 0x1CB60, symBinAddr: 0x1000217F0, symSize: 0x60 }
  - { offsetInCU: 0x439B9, offset: 0x61B7C, size: 0x8, addend: 0x0, symName: __ZNSt3__17__stateIcEC1B8ue170006Ev, symObjAddr: 0x1CBC0, symBinAddr: 0x100021850, symSize: 0x20 }
  - { offsetInCU: 0x439E3, offset: 0x61BA6, size: 0x8, addend: 0x0, symName: __ZNSt3__17__stateIcED1Ev, symObjAddr: 0x1CBE0, symBinAddr: 0x100021870, symSize: 0x20 }
  - { offsetInCU: 0x43A10, offset: 0x61BD3, size: 0x8, addend: 0x0, symName: __ZNSt3__16vectorINS_7__stateIcEENS_9allocatorIS2_EEE4backB8ue170006Ev, symObjAddr: 0x1CC00, symBinAddr: 0x100021890, symSize: 0x20 }
  - { offsetInCU: 0x43A36, offset: 0x61BF9, size: 0x8, addend: 0x0, symName: __ZNSt3__16vectorINS_9sub_matchIPKcEENS_9allocatorIS4_EEE6resizeEmRKS4_, symObjAddr: 0x1CC20, symBinAddr: 0x1000218B0, symSize: 0x80 }
  - { offsetInCU: 0x43A8B, offset: 0x61C4E, size: 0x8, addend: 0x0, symName: __ZNSt3__16vectorINS_4pairImPKcEENS_9allocatorIS4_EEE6resizeEm, symObjAddr: 0x1CCA0, symBinAddr: 0x100021930, symSize: 0x80 }
  - { offsetInCU: 0x43AD1, offset: 0x61C94, size: 0x8, addend: 0x0, symName: __ZNKSt3__111basic_regexIcNS_12regex_traitsIcEEE12__loop_countB8ue170006Ev, symObjAddr: 0x1CD20, symBinAddr: 0x1000219B0, symSize: 0x20 }
  - { offsetInCU: 0x43AF7, offset: 0x61CBA, size: 0x8, addend: 0x0, symName: __ZNSt3__16vectorINS_7__stateIcEENS_9allocatorIS2_EEE8pop_backEv, symObjAddr: 0x1CDA0, symBinAddr: 0x100021A30, symSize: 0x30 }
  - { offsetInCU: 0x43B1F, offset: 0x61CE2, size: 0x8, addend: 0x0, symName: __ZNSt3__17__stateIcEC1ERKS1_, symObjAddr: 0x1CDD0, symBinAddr: 0x100021A60, symSize: 0x30 }
  - { offsetInCU: 0x43B55, offset: 0x61D18, size: 0x8, addend: 0x0, symName: __ZNKSt3__16vectorINS_7__stateIcEENS_9allocatorIS2_EEE5emptyB8ue170006Ev, symObjAddr: 0x1CE60, symBinAddr: 0x100021AF0, symSize: 0x20 }
  - { offsetInCU: 0x43B7B, offset: 0x61D3E, size: 0x8, addend: 0x0, symName: __ZNSt3__16vectorINS_7__stateIcEENS_9allocatorIS2_EEED1B8ue170006Ev, symObjAddr: 0x1CE80, symBinAddr: 0x100021B10, symSize: 0x20 }
  - { offsetInCU: 0x43BA5, offset: 0x61D68, size: 0x8, addend: 0x0, symName: __ZNSt3__16vectorINS_7__stateIcEENS_9allocatorIS2_EEEC2B8ue170006Ev, symObjAddr: 0x1CEA0, symBinAddr: 0x100021B30, symSize: 0x50 }
  - { offsetInCU: 0x43BCF, offset: 0x61D92, size: 0x8, addend: 0x0, symName: __ZNSt3__117__compressed_pairIPNS_7__stateIcEENS_9allocatorIS2_EEEC1B8ue170006IDnNS_18__default_init_tagEEEOT_OT0_, symObjAddr: 0x1CEF0, symBinAddr: 0x100021B80, symSize: 0x30 }
  - { offsetInCU: 0x43C27, offset: 0x61DEA, size: 0x8, addend: 0x0, symName: __ZNSt3__117__compressed_pairIPNS_7__stateIcEENS_9allocatorIS2_EEEC2B8ue170006IDnNS_18__default_init_tagEEEOT_OT0_, symObjAddr: 0x1CF20, symBinAddr: 0x100021BB0, symSize: 0x40 }
  - { offsetInCU: 0x43C7F, offset: 0x61E42, size: 0x8, addend: 0x0, symName: __ZNSt3__122__compressed_pair_elemIPNS_7__stateIcEELi0ELb0EEC2B8ue170006IDnvEEOT_, symObjAddr: 0x1CF60, symBinAddr: 0x100021BF0, symSize: 0x20 }
  - { offsetInCU: 0x43CC1, offset: 0x61E84, size: 0x8, addend: 0x0, symName: __ZNSt3__122__compressed_pair_elemINS_9allocatorINS_7__stateIcEEEELi1ELb1EEC2B8ue170006ENS_18__default_init_tagE, symObjAddr: 0x1CF80, symBinAddr: 0x100021C10, symSize: 0x20 }
  - { offsetInCU: 0x43CF5, offset: 0x61EB8, size: 0x8, addend: 0x0, symName: __ZNSt3__19allocatorINS_7__stateIcEEEC2B8ue170006Ev, symObjAddr: 0x1CFA0, symBinAddr: 0x100021C30, symSize: 0x20 }
  - { offsetInCU: 0x43D1F, offset: 0x61EE2, size: 0x8, addend: 0x0, symName: __ZNSt3__116__non_trivial_ifILb1ENS_9allocatorINS_7__stateIcEEEEEC2B8ue170006Ev, symObjAddr: 0x1CFC0, symBinAddr: 0x100021C50, symSize: 0x10 }
  - { offsetInCU: 0x43D49, offset: 0x61F0C, size: 0x8, addend: 0x0, symName: __ZNSt3__16vectorINS_7__stateIcEENS_9allocatorIS2_EEE9__end_capB8ue170006Ev, symObjAddr: 0x1CFD0, symBinAddr: 0x100021C60, symSize: 0x20 }
  - { offsetInCU: 0x43D75, offset: 0x61F38, size: 0x8, addend: 0x0, symName: __ZNSt3__16vectorINS_7__stateIcEENS_9allocatorIS2_EEE22__construct_one_at_endB8ue170006IJS2_EEEvDpOT_, symObjAddr: 0x1CFF0, symBinAddr: 0x100021C80, symSize: 0x90 }
  - { offsetInCU: 0x43DC4, offset: 0x61F87, size: 0x8, addend: 0x0, symName: __ZNSt3__16vectorINS_7__stateIcEENS_9allocatorIS2_EEE21__push_back_slow_pathIS2_EEvOT_, symObjAddr: 0x1D080, symBinAddr: 0x100021D10, symSize: 0xD0 }
  - { offsetInCU: 0x43E22, offset: 0x61FE5, size: 0x8, addend: 0x0, symName: __ZNSt3__117__compressed_pairIPNS_7__stateIcEENS_9allocatorIS2_EEE5firstB8ue170006Ev, symObjAddr: 0x1D150, symBinAddr: 0x100021DE0, symSize: 0x20 }
  - { offsetInCU: 0x43E48, offset: 0x6200B, size: 0x8, addend: 0x0, symName: __ZNSt3__122__compressed_pair_elemIPNS_7__stateIcEELi0ELb0EE5__getB8ue170006Ev, symObjAddr: 0x1D170, symBinAddr: 0x100021E00, symSize: 0x10 }
  - { offsetInCU: 0x43E87, offset: 0x6204A, size: 0x8, addend: 0x0, symName: __ZNSt3__16vectorINS_7__stateIcEENS_9allocatorIS2_EEE21_ConstructTransactionC1B8ue170006ERS5_m, symObjAddr: 0x1D180, symBinAddr: 0x100021E10, symSize: 0x30 }
  - { offsetInCU: 0x43ECF, offset: 0x62092, size: 0x8, addend: 0x0, symName: __ZNSt3__116allocator_traitsINS_9allocatorINS_7__stateIcEEEEE9constructB8ue170006IS3_JS3_EvEEvRS4_PT_DpOT0_, symObjAddr: 0x1D1B0, symBinAddr: 0x100021E40, symSize: 0x30 }
  - { offsetInCU: 0x43F26, offset: 0x620E9, size: 0x8, addend: 0x0, symName: __ZNSt3__16vectorINS_7__stateIcEENS_9allocatorIS2_EEE7__allocB8ue170006Ev, symObjAddr: 0x1D1E0, symBinAddr: 0x100021E70, symSize: 0x20 }
  - { offsetInCU: 0x43F4C, offset: 0x6210F, size: 0x8, addend: 0x0, symName: __ZNSt3__16vectorINS_7__stateIcEENS_9allocatorIS2_EEE21_ConstructTransactionD1B8ue170006Ev, symObjAddr: 0x1D210, symBinAddr: 0x100021EA0, symSize: 0x20 }
  - { offsetInCU: 0x43F76, offset: 0x62139, size: 0x8, addend: 0x0, symName: __ZNSt3__16vectorINS_7__stateIcEENS_9allocatorIS2_EEE21_ConstructTransactionC2B8ue170006ERS5_m, symObjAddr: 0x1D230, symBinAddr: 0x100021EC0, symSize: 0x40 }
  - { offsetInCU: 0x43FBE, offset: 0x62181, size: 0x8, addend: 0x0, symName: __ZNSt3__19allocatorINS_7__stateIcEEE9constructB8ue170006IS2_JS2_EEEvPT_DpOT0_, symObjAddr: 0x1D270, symBinAddr: 0x100021F00, symSize: 0x30 }
  - { offsetInCU: 0x44014, offset: 0x621D7, size: 0x8, addend: 0x0, symName: __ZNSt3__17__stateIcEC1EOS1_, symObjAddr: 0x1D2A0, symBinAddr: 0x100021F30, symSize: 0x30 }
  - { offsetInCU: 0x4404A, offset: 0x6220D, size: 0x8, addend: 0x0, symName: __ZNSt3__17__stateIcEC2EOS1_, symObjAddr: 0x1D2D0, symBinAddr: 0x100021F60, symSize: 0x90 }
  - { offsetInCU: 0x44080, offset: 0x62243, size: 0x8, addend: 0x0, symName: __ZNSt3__16vectorINS_9sub_matchIPKcEENS_9allocatorIS4_EEEC1B8ue170006EOS7_, symObjAddr: 0x1D360, symBinAddr: 0x100021FF0, symSize: 0x30 }
  - { offsetInCU: 0x440BB, offset: 0x6227E, size: 0x8, addend: 0x0, symName: __ZNSt3__16vectorINS_4pairImPKcEENS_9allocatorIS4_EEEC1B8ue170006EOS7_, symObjAddr: 0x1D390, symBinAddr: 0x100022020, symSize: 0x30 }
  - { offsetInCU: 0x440F6, offset: 0x622B9, size: 0x8, addend: 0x0, symName: __ZNSt3__16vectorINS_9sub_matchIPKcEENS_9allocatorIS4_EEEC2B8ue170006EOS7_, symObjAddr: 0x1D3C0, symBinAddr: 0x100022050, symSize: 0xD0 }
  - { offsetInCU: 0x44137, offset: 0x622FA, size: 0x8, addend: 0x0, symName: __ZNSt3__117__compressed_pairIPNS_9sub_matchIPKcEENS_9allocatorIS4_EEEC1B8ue170006IDnS7_EEOT_OT0_, symObjAddr: 0x1D490, symBinAddr: 0x100022120, symSize: 0x30 }
  - { offsetInCU: 0x4418F, offset: 0x62352, size: 0x8, addend: 0x0, symName: __ZNSt3__117__compressed_pairIPNS_9sub_matchIPKcEENS_9allocatorIS4_EEEC2B8ue170006IDnS7_EEOT_OT0_, symObjAddr: 0x1D4C0, symBinAddr: 0x100022150, symSize: 0x40 }
  - { offsetInCU: 0x441E7, offset: 0x623AA, size: 0x8, addend: 0x0, symName: __ZNSt3__122__compressed_pair_elemINS_9allocatorINS_9sub_matchIPKcEEEELi1ELb1EEC2B8ue170006IS6_vEEOT_, symObjAddr: 0x1D500, symBinAddr: 0x100022190, symSize: 0x10 }
  - { offsetInCU: 0x44229, offset: 0x623EC, size: 0x8, addend: 0x0, symName: __ZNSt3__16vectorINS_4pairImPKcEENS_9allocatorIS4_EEEC2B8ue170006EOS7_, symObjAddr: 0x1D510, symBinAddr: 0x1000221A0, symSize: 0xD0 }
  - { offsetInCU: 0x44264, offset: 0x62427, size: 0x8, addend: 0x0, symName: __ZNSt3__16vectorINS_4pairImPKcEENS_9allocatorIS4_EEE7__allocB8ue170006Ev, symObjAddr: 0x1D5E0, symBinAddr: 0x100022270, symSize: 0x20 }
  - { offsetInCU: 0x44290, offset: 0x62453, size: 0x8, addend: 0x0, symName: __ZNSt3__117__compressed_pairIPNS_4pairImPKcEENS_9allocatorIS4_EEEC1B8ue170006IDnS7_EEOT_OT0_, symObjAddr: 0x1D600, symBinAddr: 0x100022290, symSize: 0x30 }
  - { offsetInCU: 0x442E8, offset: 0x624AB, size: 0x8, addend: 0x0, symName: __ZNSt3__16vectorINS_4pairImPKcEENS_9allocatorIS4_EEE9__end_capB8ue170006Ev, symObjAddr: 0x1D630, symBinAddr: 0x1000222C0, symSize: 0x20 }
  - { offsetInCU: 0x4430E, offset: 0x624D1, size: 0x8, addend: 0x0, symName: __ZNSt3__117__compressed_pairIPNS_4pairImPKcEENS_9allocatorIS4_EEE6secondB8ue170006Ev, symObjAddr: 0x1D650, symBinAddr: 0x1000222E0, symSize: 0x20 }
  - { offsetInCU: 0x44334, offset: 0x624F7, size: 0x8, addend: 0x0, symName: __ZNSt3__122__compressed_pair_elemINS_9allocatorINS_4pairImPKcEEEELi1ELb1EE5__getB8ue170006Ev, symObjAddr: 0x1D670, symBinAddr: 0x100022300, symSize: 0x10 }
  - { offsetInCU: 0x4435A, offset: 0x6251D, size: 0x8, addend: 0x0, symName: __ZNSt3__117__compressed_pairIPNS_4pairImPKcEENS_9allocatorIS4_EEEC2B8ue170006IDnS7_EEOT_OT0_, symObjAddr: 0x1D680, symBinAddr: 0x100022310, symSize: 0x40 }
  - { offsetInCU: 0x443B2, offset: 0x62575, size: 0x8, addend: 0x0, symName: __ZNSt3__122__compressed_pair_elemIPNS_4pairImPKcEELi0ELb0EEC2B8ue170006IDnvEEOT_, symObjAddr: 0x1D6C0, symBinAddr: 0x100022350, symSize: 0x20 }
  - { offsetInCU: 0x443F4, offset: 0x625B7, size: 0x8, addend: 0x0, symName: __ZNSt3__122__compressed_pair_elemINS_9allocatorINS_4pairImPKcEEEELi1ELb1EEC2B8ue170006IS6_vEEOT_, symObjAddr: 0x1D6E0, symBinAddr: 0x100022370, symSize: 0x10 }
  - { offsetInCU: 0x44436, offset: 0x625F9, size: 0x8, addend: 0x0, symName: __ZNSt3__117__compressed_pairIPNS_4pairImPKcEENS_9allocatorIS4_EEE5firstB8ue170006Ev, symObjAddr: 0x1D6F0, symBinAddr: 0x100022380, symSize: 0x20 }
  - { offsetInCU: 0x4445C, offset: 0x6261F, size: 0x8, addend: 0x0, symName: __ZNSt3__122__compressed_pair_elemIPNS_4pairImPKcEELi0ELb0EE5__getB8ue170006Ev, symObjAddr: 0x1D710, symBinAddr: 0x1000223A0, symSize: 0x10 }
  - { offsetInCU: 0x44482, offset: 0x62645, size: 0x8, addend: 0x0, symName: __ZNSt3__117__compressed_pairIPNS_7__stateIcEENS_9allocatorIS2_EEE6secondB8ue170006Ev, symObjAddr: 0x1D720, symBinAddr: 0x1000223B0, symSize: 0x20 }
  - { offsetInCU: 0x444A8, offset: 0x6266B, size: 0x8, addend: 0x0, symName: __ZNSt3__122__compressed_pair_elemINS_9allocatorINS_7__stateIcEEEELi1ELb1EE5__getB8ue170006Ev, symObjAddr: 0x1D740, symBinAddr: 0x1000223D0, symSize: 0x10 }
  - { offsetInCU: 0x444CE, offset: 0x62691, size: 0x8, addend: 0x0, symName: __ZNSt3__16vectorINS_7__stateIcEENS_9allocatorIS2_EEE21_ConstructTransactionD2B8ue170006Ev, symObjAddr: 0x1D750, symBinAddr: 0x1000223E0, symSize: 0x20 }
  - { offsetInCU: 0x444F8, offset: 0x626BB, size: 0x8, addend: 0x0, symName: __ZNKSt3__16vectorINS_7__stateIcEENS_9allocatorIS2_EEE11__recommendB8ue170006Em, symObjAddr: 0x1D770, symBinAddr: 0x100022400, symSize: 0xA0 }
  - { offsetInCU: 0x4454D, offset: 0x62710, size: 0x8, addend: 0x0, symName: __ZNKSt3__16vectorINS_7__stateIcEENS_9allocatorIS2_EEE4sizeB8ue170006Ev, symObjAddr: 0x1D810, symBinAddr: 0x1000224A0, symSize: 0x30 }
  - { offsetInCU: 0x44573, offset: 0x62736, size: 0x8, addend: 0x0, symName: __ZNSt3__114__split_bufferINS_7__stateIcEERNS_9allocatorIS2_EEEC1EmmS5_, symObjAddr: 0x1D840, symBinAddr: 0x1000224D0, symSize: 0x40 }
  - { offsetInCU: 0x445C9, offset: 0x6278C, size: 0x8, addend: 0x0, symName: __ZNSt3__114__split_bufferINS_7__stateIcEERNS_9allocatorIS2_EEED1Ev, symObjAddr: 0x1D9A0, symBinAddr: 0x100022630, symSize: 0x20 }
  - { offsetInCU: 0x445F5, offset: 0x627B8, size: 0x8, addend: 0x0, symName: __ZNKSt3__16vectorINS_7__stateIcEENS_9allocatorIS2_EEE8max_sizeEv, symObjAddr: 0x1D9C0, symBinAddr: 0x100022650, symSize: 0x60 }
  - { offsetInCU: 0x4461D, offset: 0x627E0, size: 0x8, addend: 0x0, symName: __ZNKSt3__16vectorINS_7__stateIcEENS_9allocatorIS2_EEE20__throw_length_errorB8ue170006Ev, symObjAddr: 0x1DA20, symBinAddr: 0x1000226B0, symSize: 0x20 }
  - { offsetInCU: 0x44643, offset: 0x62806, size: 0x8, addend: 0x0, symName: __ZNKSt3__16vectorINS_7__stateIcEENS_9allocatorIS2_EEE8capacityB8ue170006Ev, symObjAddr: 0x1DA40, symBinAddr: 0x1000226D0, symSize: 0x40 }
  - { offsetInCU: 0x44673, offset: 0x62836, size: 0x8, addend: 0x0, symName: __ZNSt3__116allocator_traitsINS_9allocatorINS_7__stateIcEEEEE8max_sizeB8ue170006IS4_vEEmRKS4_, symObjAddr: 0x1DA80, symBinAddr: 0x100022710, symSize: 0x20 }
  - { offsetInCU: 0x446A1, offset: 0x62864, size: 0x8, addend: 0x0, symName: __ZNKSt3__16vectorINS_7__stateIcEENS_9allocatorIS2_EEE7__allocB8ue170006Ev, symObjAddr: 0x1DAA0, symBinAddr: 0x100022730, symSize: 0x20 }
  - { offsetInCU: 0x446C7, offset: 0x6288A, size: 0x8, addend: 0x0, symName: __ZNKSt3__19allocatorINS_7__stateIcEEE8max_sizeB8ue170006Ev, symObjAddr: 0x1DAC0, symBinAddr: 0x100022750, symSize: 0x20 }
  - { offsetInCU: 0x446ED, offset: 0x628B0, size: 0x8, addend: 0x0, symName: __ZNKSt3__117__compressed_pairIPNS_7__stateIcEENS_9allocatorIS2_EEE6secondB8ue170006Ev, symObjAddr: 0x1DAE0, symBinAddr: 0x100022770, symSize: 0x20 }
  - { offsetInCU: 0x44713, offset: 0x628D6, size: 0x8, addend: 0x0, symName: __ZNKSt3__122__compressed_pair_elemINS_9allocatorINS_7__stateIcEEEELi1ELb1EE5__getB8ue170006Ev, symObjAddr: 0x1DB00, symBinAddr: 0x100022790, symSize: 0x10 }
  - { offsetInCU: 0x44739, offset: 0x628FC, size: 0x8, addend: 0x0, symName: __ZNKSt3__16vectorINS_7__stateIcEENS_9allocatorIS2_EEE9__end_capB8ue170006Ev, symObjAddr: 0x1DB10, symBinAddr: 0x1000227A0, symSize: 0x20 }
  - { offsetInCU: 0x4475F, offset: 0x62922, size: 0x8, addend: 0x0, symName: __ZNKSt3__117__compressed_pairIPNS_7__stateIcEENS_9allocatorIS2_EEE5firstB8ue170006Ev, symObjAddr: 0x1DB30, symBinAddr: 0x1000227C0, symSize: 0x20 }
  - { offsetInCU: 0x44785, offset: 0x62948, size: 0x8, addend: 0x0, symName: __ZNKSt3__122__compressed_pair_elemIPNS_7__stateIcEELi0ELb0EE5__getB8ue170006Ev, symObjAddr: 0x1DB50, symBinAddr: 0x1000227E0, symSize: 0x10 }
  - { offsetInCU: 0x447AB, offset: 0x6296E, size: 0x8, addend: 0x0, symName: __ZNSt3__114__split_bufferINS_7__stateIcEERNS_9allocatorIS2_EEEC2EmmS5_, symObjAddr: 0x1DB60, symBinAddr: 0x1000227F0, symSize: 0xC0 }
  - { offsetInCU: 0x4481E, offset: 0x629E1, size: 0x8, addend: 0x0, symName: __ZNSt3__117__compressed_pairIPNS_7__stateIcEERNS_9allocatorIS2_EEEC1B8ue170006IDnS6_EEOT_OT0_, symObjAddr: 0x1DC20, symBinAddr: 0x1000228B0, symSize: 0x30 }
  - { offsetInCU: 0x44876, offset: 0x62A39, size: 0x8, addend: 0x0, symName: __ZNSt3__114__split_bufferINS_7__stateIcEERNS_9allocatorIS2_EEE7__allocB8ue170006Ev, symObjAddr: 0x1DC90, symBinAddr: 0x100022920, symSize: 0x20 }
  - { offsetInCU: 0x4489C, offset: 0x62A5F, size: 0x8, addend: 0x0, symName: __ZNSt3__114__split_bufferINS_7__stateIcEERNS_9allocatorIS2_EEE9__end_capB8ue170006Ev, symObjAddr: 0x1DCB0, symBinAddr: 0x100022940, symSize: 0x20 }
  - { offsetInCU: 0x448C2, offset: 0x62A85, size: 0x8, addend: 0x0, symName: __ZNSt3__117__compressed_pairIPNS_7__stateIcEERNS_9allocatorIS2_EEEC2B8ue170006IDnS6_EEOT_OT0_, symObjAddr: 0x1DCD0, symBinAddr: 0x100022960, symSize: 0x40 }
  - { offsetInCU: 0x4491A, offset: 0x62ADD, size: 0x8, addend: 0x0, symName: __ZNSt3__122__compressed_pair_elemIRNS_9allocatorINS_7__stateIcEEEELi1ELb0EEC2B8ue170006IS5_vEEOT_, symObjAddr: 0x1DD10, symBinAddr: 0x1000229A0, symSize: 0x20 }
  - { offsetInCU: 0x4495C, offset: 0x62B1F, size: 0x8, addend: 0x0, symName: __ZNSt3__19allocatorINS_7__stateIcEEE8allocateB8ue170006Em, symObjAddr: 0x1DD30, symBinAddr: 0x1000229C0, symSize: 0x50 }
  - { offsetInCU: 0x44990, offset: 0x62B53, size: 0x8, addend: 0x0, symName: __ZNSt3__117__compressed_pairIPNS_7__stateIcEERNS_9allocatorIS2_EEE6secondB8ue170006Ev, symObjAddr: 0x1DD80, symBinAddr: 0x100022A10, symSize: 0x20 }
  - { offsetInCU: 0x449B6, offset: 0x62B79, size: 0x8, addend: 0x0, symName: __ZNSt3__122__compressed_pair_elemIRNS_9allocatorINS_7__stateIcEEEELi1ELb0EE5__getB8ue170006Ev, symObjAddr: 0x1DDA0, symBinAddr: 0x100022A30, symSize: 0x20 }
  - { offsetInCU: 0x449DC, offset: 0x62B9F, size: 0x8, addend: 0x0, symName: __ZNSt3__117__compressed_pairIPNS_7__stateIcEERNS_9allocatorIS2_EEE5firstB8ue170006Ev, symObjAddr: 0x1DDC0, symBinAddr: 0x100022A50, symSize: 0x20 }
  - { offsetInCU: 0x44A02, offset: 0x62BC5, size: 0x8, addend: 0x0, symName: __ZNKSt3__16vectorINS_7__stateIcEENS_9allocatorIS2_EEE17__annotate_deleteB8ue170006Ev, symObjAddr: 0x1DDE0, symBinAddr: 0x100022A70, symSize: 0xB0 }
  - { offsetInCU: 0x44A28, offset: 0x62BEB, size: 0x8, addend: 0x0, symName: __ZNSt3__116reverse_iteratorIPNS_7__stateIcEEEC1B8ue170006ES3_, symObjAddr: 0x1E010, symBinAddr: 0x100022CA0, symSize: 0x30 }
  - { offsetInCU: 0x44A60, offset: 0x62C23, size: 0x8, addend: 0x0, symName: __ZNKSt3__116reverse_iteratorIPNS_7__stateIcEEE4baseB8ue170006Ev, symObjAddr: 0x1E040, symBinAddr: 0x100022CD0, symSize: 0x20 }
  - { offsetInCU: 0x44A86, offset: 0x62C49, size: 0x8, addend: 0x0, symName: __ZNKSt3__16vectorINS_7__stateIcEENS_9allocatorIS2_EEE14__annotate_newB8ue170006Em, symObjAddr: 0x1E0A0, symBinAddr: 0x100022D30, symSize: 0xA0 }
  - { offsetInCU: 0x44ABB, offset: 0x62C7E, size: 0x8, addend: 0x0, symName: __ZNKSt3__16vectorINS_7__stateIcEENS_9allocatorIS2_EEE31__annotate_contiguous_containerB8ue170006EPKvS7_S7_S7_, symObjAddr: 0x1E140, symBinAddr: 0x100022DD0, symSize: 0x20 }
  - { offsetInCU: 0x44B0D, offset: 0x62CD0, size: 0x8, addend: 0x0, symName: __ZNKSt3__16vectorINS_7__stateIcEENS_9allocatorIS2_EEE4dataB8ue170006Ev, symObjAddr: 0x1E160, symBinAddr: 0x100022DF0, symSize: 0x20 }
  - { offsetInCU: 0x44B33, offset: 0x62CF6, size: 0x8, addend: 0x0, symName: __ZNSt3__129_AllocatorDestroyRangeReverseINS_9allocatorINS_7__stateIcEEEENS_16reverse_iteratorIPS3_EEEC1B8ue170006ERS4_RS7_SA_, symObjAddr: 0x1E1E0, symBinAddr: 0x100022E70, symSize: 0x40 }
  - { offsetInCU: 0x44B8A, offset: 0x62D4D, size: 0x8, addend: 0x0, symName: __ZNKSt3__116reverse_iteratorIPNS_7__stateIcEEEdeB8ue170006Ev, symObjAddr: 0x1E280, symBinAddr: 0x100022F10, symSize: 0x30 }
  - { offsetInCU: 0x44BBE, offset: 0x62D81, size: 0x8, addend: 0x0, symName: __ZNSt3__116reverse_iteratorIPNS_7__stateIcEEEppB8ue170006Ev, symObjAddr: 0x1E2B0, symBinAddr: 0x100022F40, symSize: 0x20 }
  - { offsetInCU: 0x44BE4, offset: 0x62DA7, size: 0x8, addend: 0x0, symName: __ZNSt3__128__exception_guard_exceptionsINS_29_AllocatorDestroyRangeReverseINS_9allocatorINS_7__stateIcEEEENS_16reverse_iteratorIPS4_EEEEE10__completeB8ue170006Ev, symObjAddr: 0x1E2D0, symBinAddr: 0x100022F60, symSize: 0x20 }
  - { offsetInCU: 0x44C0A, offset: 0x62DCD, size: 0x8, addend: 0x0, symName: __ZNSt3__128__exception_guard_exceptionsINS_29_AllocatorDestroyRangeReverseINS_9allocatorINS_7__stateIcEEEENS_16reverse_iteratorIPS4_EEEEED1B8ue170006Ev, symObjAddr: 0x1E2F0, symBinAddr: 0x100022F80, symSize: 0x20 }
  - { offsetInCU: 0x44C34, offset: 0x62DF7, size: 0x8, addend: 0x0, symName: __ZNSt3__128__exception_guard_exceptionsINS_29_AllocatorDestroyRangeReverseINS_9allocatorINS_7__stateIcEEEENS_16reverse_iteratorIPS4_EEEEEC1B8ue170006ES9_, symObjAddr: 0x1E310, symBinAddr: 0x100022FA0, symSize: 0x40 }
  - { offsetInCU: 0x44C6C, offset: 0x62E2F, size: 0x8, addend: 0x0, symName: __ZNSt3__128__exception_guard_exceptionsINS_29_AllocatorDestroyRangeReverseINS_9allocatorINS_7__stateIcEEEENS_16reverse_iteratorIPS4_EEEEEC2B8ue170006ES9_, symObjAddr: 0x1E350, symBinAddr: 0x100022FE0, symSize: 0x30 }
  - { offsetInCU: 0x44CA4, offset: 0x62E67, size: 0x8, addend: 0x0, symName: __ZNSt3__129_AllocatorDestroyRangeReverseINS_9allocatorINS_7__stateIcEEEENS_16reverse_iteratorIPS3_EEEC2B8ue170006ERS4_RS7_SA_, symObjAddr: 0x1E380, symBinAddr: 0x100023010, symSize: 0x40 }
  - { offsetInCU: 0x44D00, offset: 0x62EC3, size: 0x8, addend: 0x0, symName: __ZNSt3__119__to_address_helperINS_16reverse_iteratorIPNS_7__stateIcEEEEvE6__callB8ue170006ERKS5_, symObjAddr: 0x1E3C0, symBinAddr: 0x100023050, symSize: 0x40 }
  - { offsetInCU: 0x44D23, offset: 0x62EE6, size: 0x8, addend: 0x0, symName: __ZNKSt3__116reverse_iteratorIPNS_7__stateIcEEEptB8ue170006Ev, symObjAddr: 0x1E400, symBinAddr: 0x100023090, symSize: 0x20 }
  - { offsetInCU: 0x44D49, offset: 0x62F0C, size: 0x8, addend: 0x0, symName: __ZNSt3__128__exception_guard_exceptionsINS_29_AllocatorDestroyRangeReverseINS_9allocatorINS_7__stateIcEEEENS_16reverse_iteratorIPS4_EEEEED2B8ue170006Ev, symObjAddr: 0x1E420, symBinAddr: 0x1000230B0, symSize: 0x40 }
  - { offsetInCU: 0x44D73, offset: 0x62F36, size: 0x8, addend: 0x0, symName: __ZNKSt3__129_AllocatorDestroyRangeReverseINS_9allocatorINS_7__stateIcEEEENS_16reverse_iteratorIPS3_EEEclB8ue170006Ev, symObjAddr: 0x1E460, symBinAddr: 0x1000230F0, symSize: 0xF0 }
  - { offsetInCU: 0x44D9A, offset: 0x62F5D, size: 0x8, addend: 0x0, symName: __ZNSt3__116reverse_iteratorINS0_IPNS_7__stateIcEEEEEC1B8ue170006ES4_, symObjAddr: 0x1E5C0, symBinAddr: 0x100023250, symSize: 0x30 }
  - { offsetInCU: 0x44DD2, offset: 0x62F95, size: 0x8, addend: 0x0, symName: __ZNSt3__116allocator_traitsINS_9allocatorINS_7__stateIcEEEEE7destroyB8ue170006IS3_vEEvRS4_PT_, symObjAddr: 0x1E640, symBinAddr: 0x1000232D0, symSize: 0x30 }
  - { offsetInCU: 0x44E0F, offset: 0x62FD2, size: 0x8, addend: 0x0, symName: __ZNSt3__116reverse_iteratorINS0_IPNS_7__stateIcEEEEEppB8ue170006Ev, symObjAddr: 0x1E690, symBinAddr: 0x100023320, symSize: 0x30 }
  - { offsetInCU: 0x44E35, offset: 0x62FF8, size: 0x8, addend: 0x0, symName: __ZNKSt3__116reverse_iteratorINS0_IPNS_7__stateIcEEEEE4baseB8ue170006Ev, symObjAddr: 0x1E6C0, symBinAddr: 0x100023350, symSize: 0x20 }
  - { offsetInCU: 0x44E5B, offset: 0x6301E, size: 0x8, addend: 0x0, symName: __ZNSt3__19allocatorINS_7__stateIcEEE7destroyB8ue170006EPS2_, symObjAddr: 0x1E6E0, symBinAddr: 0x100023370, symSize: 0x20 }
  - { offsetInCU: 0x44E94, offset: 0x63057, size: 0x8, addend: 0x0, symName: __ZNSt3__119__to_address_helperINS_16reverse_iteratorINS1_IPNS_7__stateIcEEEEEEvE6__callB8ue170006ERKS6_, symObjAddr: 0x1E700, symBinAddr: 0x100023390, symSize: 0x40 }
  - { offsetInCU: 0x44EB7, offset: 0x6307A, size: 0x8, addend: 0x0, symName: __ZNKSt3__116reverse_iteratorINS0_IPNS_7__stateIcEEEEEptB8ue170006Ev, symObjAddr: 0x1E740, symBinAddr: 0x1000233D0, symSize: 0x20 }
  - { offsetInCU: 0x44EDD, offset: 0x630A0, size: 0x8, addend: 0x0, symName: __ZNKSt3__116reverse_iteratorINS0_IPNS_7__stateIcEEEEEdeB8ue170006Ev, symObjAddr: 0x1E760, symBinAddr: 0x1000233F0, symSize: 0x40 }
  - { offsetInCU: 0x44F11, offset: 0x630D4, size: 0x8, addend: 0x0, symName: __ZNSt3__116reverse_iteratorIPNS_7__stateIcEEEmmB8ue170006Ev, symObjAddr: 0x1E7A0, symBinAddr: 0x100023430, symSize: 0x20 }
  - { offsetInCU: 0x44F37, offset: 0x630FA, size: 0x8, addend: 0x0, symName: __ZNSt3__116reverse_iteratorINS0_IPNS_7__stateIcEEEEEC2B8ue170006ES4_, symObjAddr: 0x1E7C0, symBinAddr: 0x100023450, symSize: 0x40 }
  - { offsetInCU: 0x44F6F, offset: 0x63132, size: 0x8, addend: 0x0, symName: __ZNSt3__116reverse_iteratorIPNS_7__stateIcEEEC2B8ue170006ES3_, symObjAddr: 0x1E800, symBinAddr: 0x100023490, symSize: 0x30 }
  - { offsetInCU: 0x44FA7, offset: 0x6316A, size: 0x8, addend: 0x0, symName: __ZNSt3__114__split_bufferINS_7__stateIcEERNS_9allocatorIS2_EEED2Ev, symObjAddr: 0x1E830, symBinAddr: 0x1000234C0, symSize: 0x70 }
  - { offsetInCU: 0x44FD3, offset: 0x63196, size: 0x8, addend: 0x0, symName: __ZNSt3__114__split_bufferINS_7__stateIcEERNS_9allocatorIS2_EEE5clearB8ue170006Ev, symObjAddr: 0x1E8A0, symBinAddr: 0x100023530, symSize: 0x20 }
  - { offsetInCU: 0x44FF9, offset: 0x631BC, size: 0x8, addend: 0x0, symName: __ZNSt3__116allocator_traitsINS_9allocatorINS_7__stateIcEEEEE10deallocateB8ue170006ERS4_PS3_m, symObjAddr: 0x1E8C0, symBinAddr: 0x100023550, symSize: 0x30 }
  - { offsetInCU: 0x4503B, offset: 0x631FE, size: 0x8, addend: 0x0, symName: __ZNKSt3__114__split_bufferINS_7__stateIcEERNS_9allocatorIS2_EEE8capacityB8ue170006Ev, symObjAddr: 0x1E8F0, symBinAddr: 0x100023580, symSize: 0x40 }
  - { offsetInCU: 0x45061, offset: 0x63224, size: 0x8, addend: 0x0, symName: __ZNSt3__114__split_bufferINS_7__stateIcEERNS_9allocatorIS2_EEE17__destruct_at_endB8ue170006EPS2_, symObjAddr: 0x1E930, symBinAddr: 0x1000235C0, symSize: 0x30 }
  - { offsetInCU: 0x45095, offset: 0x63258, size: 0x8, addend: 0x0, symName: __ZNSt3__114__split_bufferINS_7__stateIcEERNS_9allocatorIS2_EEE17__destruct_at_endB8ue170006EPS2_NS_17integral_constantIbLb0EEE, symObjAddr: 0x1E960, symBinAddr: 0x1000235F0, symSize: 0x80 }
  - { offsetInCU: 0x450D5, offset: 0x63298, size: 0x8, addend: 0x0, symName: __ZNSt3__19allocatorINS_7__stateIcEEE10deallocateB8ue170006EPS2_m, symObjAddr: 0x1E9E0, symBinAddr: 0x100023670, symSize: 0x50 }
  - { offsetInCU: 0x45117, offset: 0x632DA, size: 0x8, addend: 0x0, symName: __ZNKSt3__114__split_bufferINS_7__stateIcEERNS_9allocatorIS2_EEE9__end_capB8ue170006Ev, symObjAddr: 0x1EA30, symBinAddr: 0x1000236C0, symSize: 0x20 }
  - { offsetInCU: 0x4513D, offset: 0x63300, size: 0x8, addend: 0x0, symName: __ZNKSt3__117__compressed_pairIPNS_7__stateIcEERNS_9allocatorIS2_EEE5firstB8ue170006Ev, symObjAddr: 0x1EA50, symBinAddr: 0x1000236E0, symSize: 0x20 }
  - { offsetInCU: 0x45163, offset: 0x63326, size: 0x8, addend: 0x0, symName: __ZNSt3__17__stateIcEC2B8ue170006Ev, symObjAddr: 0x1EA70, symBinAddr: 0x100023700, symSize: 0x70 }
  - { offsetInCU: 0x4518D, offset: 0x63350, size: 0x8, addend: 0x0, symName: __ZNSt3__16vectorINS_9sub_matchIPKcEENS_9allocatorIS4_EEEC1B8ue170006Ev, symObjAddr: 0x1EAE0, symBinAddr: 0x100023770, symSize: 0x20 }
  - { offsetInCU: 0x451B7, offset: 0x6337A, size: 0x8, addend: 0x0, symName: __ZNSt3__16vectorINS_4pairImPKcEENS_9allocatorIS4_EEEC1B8ue170006Ev, symObjAddr: 0x1EB00, symBinAddr: 0x100023790, symSize: 0x20 }
  - { offsetInCU: 0x451E1, offset: 0x633A4, size: 0x8, addend: 0x0, symName: __ZNSt3__16vectorINS_9sub_matchIPKcEENS_9allocatorIS4_EEEC2B8ue170006Ev, symObjAddr: 0x1EB20, symBinAddr: 0x1000237B0, symSize: 0x50 }
  - { offsetInCU: 0x4520B, offset: 0x633CE, size: 0x8, addend: 0x0, symName: __ZNSt3__117__compressed_pairIPNS_9sub_matchIPKcEENS_9allocatorIS4_EEEC1B8ue170006IDnNS_18__default_init_tagEEEOT_OT0_, symObjAddr: 0x1EB70, symBinAddr: 0x100023800, symSize: 0x30 }
  - { offsetInCU: 0x45263, offset: 0x63426, size: 0x8, addend: 0x0, symName: __ZNSt3__117__compressed_pairIPNS_9sub_matchIPKcEENS_9allocatorIS4_EEEC2B8ue170006IDnNS_18__default_init_tagEEEOT_OT0_, symObjAddr: 0x1EBA0, symBinAddr: 0x100023830, symSize: 0x40 }
  - { offsetInCU: 0x452BB, offset: 0x6347E, size: 0x8, addend: 0x0, symName: __ZNSt3__122__compressed_pair_elemINS_9allocatorINS_9sub_matchIPKcEEEELi1ELb1EEC2B8ue170006ENS_18__default_init_tagE, symObjAddr: 0x1EBE0, symBinAddr: 0x100023870, symSize: 0x20 }
  - { offsetInCU: 0x452EF, offset: 0x634B2, size: 0x8, addend: 0x0, symName: __ZNSt3__16vectorINS_4pairImPKcEENS_9allocatorIS4_EEEC2B8ue170006Ev, symObjAddr: 0x1EC00, symBinAddr: 0x100023890, symSize: 0x50 }
  - { offsetInCU: 0x45319, offset: 0x634DC, size: 0x8, addend: 0x0, symName: __ZNSt3__117__compressed_pairIPNS_4pairImPKcEENS_9allocatorIS4_EEEC1B8ue170006IDnNS_18__default_init_tagEEEOT_OT0_, symObjAddr: 0x1EC50, symBinAddr: 0x1000238E0, symSize: 0x30 }
  - { offsetInCU: 0x45371, offset: 0x63534, size: 0x8, addend: 0x0, symName: __ZNSt3__117__compressed_pairIPNS_4pairImPKcEENS_9allocatorIS4_EEEC2B8ue170006IDnNS_18__default_init_tagEEEOT_OT0_, symObjAddr: 0x1EC80, symBinAddr: 0x100023910, symSize: 0x40 }
  - { offsetInCU: 0x453C9, offset: 0x6358C, size: 0x8, addend: 0x0, symName: __ZNSt3__122__compressed_pair_elemINS_9allocatorINS_4pairImPKcEEEELi1ELb1EEC2B8ue170006ENS_18__default_init_tagE, symObjAddr: 0x1ECC0, symBinAddr: 0x100023950, symSize: 0x20 }
  - { offsetInCU: 0x453FD, offset: 0x635C0, size: 0x8, addend: 0x0, symName: __ZNSt3__19allocatorINS_4pairImPKcEEEC2B8ue170006Ev, symObjAddr: 0x1ECE0, symBinAddr: 0x100023970, symSize: 0x20 }
  - { offsetInCU: 0x45427, offset: 0x635EA, size: 0x8, addend: 0x0, symName: __ZNSt3__116__non_trivial_ifILb1ENS_9allocatorINS_4pairImPKcEEEEEC2B8ue170006Ev, symObjAddr: 0x1ED00, symBinAddr: 0x100023990, symSize: 0x10 }
  - { offsetInCU: 0x45451, offset: 0x63614, size: 0x8, addend: 0x0, symName: __ZNSt3__17__stateIcED2Ev, symObjAddr: 0x1ED10, symBinAddr: 0x1000239A0, symSize: 0x30 }
  - { offsetInCU: 0x4547E, offset: 0x63641, size: 0x8, addend: 0x0, symName: __ZNSt3__16vectorINS_4pairImPKcEENS_9allocatorIS4_EEED1B8ue170006Ev, symObjAddr: 0x1ED40, symBinAddr: 0x1000239D0, symSize: 0x20 }
  - { offsetInCU: 0x454A8, offset: 0x6366B, size: 0x8, addend: 0x0, symName: __ZNSt3__16vectorINS_4pairImPKcEENS_9allocatorIS4_EEED2B8ue170006Ev, symObjAddr: 0x1ED60, symBinAddr: 0x1000239F0, symSize: 0x40 }
  - { offsetInCU: 0x454D2, offset: 0x63695, size: 0x8, addend: 0x0, symName: __ZNSt3__16vectorINS_4pairImPKcEENS_9allocatorIS4_EEE16__destroy_vectorC1B8ue170006ERS7_, symObjAddr: 0x1EDA0, symBinAddr: 0x100023A30, symSize: 0x30 }
  - { offsetInCU: 0x4550B, offset: 0x636CE, size: 0x8, addend: 0x0, symName: __ZNSt3__16vectorINS_4pairImPKcEENS_9allocatorIS4_EEE16__destroy_vectorclB8ue170006Ev, symObjAddr: 0x1EDD0, symBinAddr: 0x100023A60, symSize: 0x80 }
  - { offsetInCU: 0x45531, offset: 0x636F4, size: 0x8, addend: 0x0, symName: __ZNSt3__16vectorINS_4pairImPKcEENS_9allocatorIS4_EEE16__destroy_vectorC2B8ue170006ERS7_, symObjAddr: 0x1EE50, symBinAddr: 0x100023AE0, symSize: 0x20 }
  - { offsetInCU: 0x4556A, offset: 0x6372D, size: 0x8, addend: 0x0, symName: __ZNSt3__16vectorINS_4pairImPKcEENS_9allocatorIS4_EEE7__clearB8ue170006Ev, symObjAddr: 0x1EE70, symBinAddr: 0x100023B00, symSize: 0x20 }
  - { offsetInCU: 0x45590, offset: 0x63753, size: 0x8, addend: 0x0, symName: __ZNKSt3__16vectorINS_4pairImPKcEENS_9allocatorIS4_EEE17__annotate_deleteB8ue170006Ev, symObjAddr: 0x1EE90, symBinAddr: 0x100023B20, symSize: 0xB0 }
  - { offsetInCU: 0x455B6, offset: 0x63779, size: 0x8, addend: 0x0, symName: __ZNSt3__116allocator_traitsINS_9allocatorINS_4pairImPKcEEEEE10deallocateB8ue170006ERS6_PS5_m, symObjAddr: 0x1EF40, symBinAddr: 0x100023BD0, symSize: 0x30 }
  - { offsetInCU: 0x455F8, offset: 0x637BB, size: 0x8, addend: 0x0, symName: __ZNKSt3__16vectorINS_4pairImPKcEENS_9allocatorIS4_EEE8capacityB8ue170006Ev, symObjAddr: 0x1EF70, symBinAddr: 0x100023C00, symSize: 0x30 }
  - { offsetInCU: 0x4561E, offset: 0x637E1, size: 0x8, addend: 0x0, symName: __ZNSt3__16vectorINS_4pairImPKcEENS_9allocatorIS4_EEE22__base_destruct_at_endB8ue170006EPS4_, symObjAddr: 0x1EFA0, symBinAddr: 0x100023C30, symSize: 0x80 }
  - { offsetInCU: 0x45662, offset: 0x63825, size: 0x8, addend: 0x0, symName: __ZNSt3__116allocator_traitsINS_9allocatorINS_4pairImPKcEEEEE7destroyB8ue170006IS5_vEEvRS6_PT_, symObjAddr: 0x1F020, symBinAddr: 0x100023CB0, symSize: 0x30 }
  - { offsetInCU: 0x4569F, offset: 0x63862, size: 0x8, addend: 0x0, symName: __ZNSt3__19allocatorINS_4pairImPKcEEE7destroyB8ue170006EPS4_, symObjAddr: 0x1F060, symBinAddr: 0x100023CF0, symSize: 0x10 }
  - { offsetInCU: 0x456D3, offset: 0x63896, size: 0x8, addend: 0x0, symName: __ZNKSt3__16vectorINS_4pairImPKcEENS_9allocatorIS4_EEE31__annotate_contiguous_containerB8ue170006EPKvS9_S9_S9_, symObjAddr: 0x1F070, symBinAddr: 0x100023D00, symSize: 0x20 }
  - { offsetInCU: 0x45725, offset: 0x638E8, size: 0x8, addend: 0x0, symName: __ZNKSt3__16vectorINS_4pairImPKcEENS_9allocatorIS4_EEE4dataB8ue170006Ev, symObjAddr: 0x1F090, symBinAddr: 0x100023D20, symSize: 0x20 }
  - { offsetInCU: 0x4574B, offset: 0x6390E, size: 0x8, addend: 0x0, symName: __ZNKSt3__16vectorINS_4pairImPKcEENS_9allocatorIS4_EEE4sizeB8ue170006Ev, symObjAddr: 0x1F0B0, symBinAddr: 0x100023D40, symSize: 0x20 }
  - { offsetInCU: 0x45771, offset: 0x63934, size: 0x8, addend: 0x0, symName: __ZNSt3__19allocatorINS_4pairImPKcEEE10deallocateB8ue170006EPS4_m, symObjAddr: 0x1F0D0, symBinAddr: 0x100023D60, symSize: 0x40 }
  - { offsetInCU: 0x457B3, offset: 0x63976, size: 0x8, addend: 0x0, symName: __ZNKSt3__16vectorINS_4pairImPKcEENS_9allocatorIS4_EEE9__end_capB8ue170006Ev, symObjAddr: 0x1F110, symBinAddr: 0x100023DA0, symSize: 0x20 }
  - { offsetInCU: 0x457D9, offset: 0x6399C, size: 0x8, addend: 0x0, symName: __ZNKSt3__117__compressed_pairIPNS_4pairImPKcEENS_9allocatorIS4_EEE5firstB8ue170006Ev, symObjAddr: 0x1F130, symBinAddr: 0x100023DC0, symSize: 0x20 }
  - { offsetInCU: 0x457FF, offset: 0x639C2, size: 0x8, addend: 0x0, symName: __ZNKSt3__122__compressed_pair_elemIPNS_4pairImPKcEELi0ELb0EE5__getB8ue170006Ev, symObjAddr: 0x1F150, symBinAddr: 0x100023DE0, symSize: 0x10 }
  - { offsetInCU: 0x45825, offset: 0x639E8, size: 0x8, addend: 0x0, symName: __ZNSt3__16vectorINS_9sub_matchIPKcEENS_9allocatorIS4_EEE8__appendEmRKS4_, symObjAddr: 0x1F160, symBinAddr: 0x100023DF0, symSize: 0x110 }
  - { offsetInCU: 0x45890, offset: 0x63A53, size: 0x8, addend: 0x0, symName: __ZNSt3__114__split_bufferINS_9sub_matchIPKcEERNS_9allocatorIS4_EEEC1EmmS7_, symObjAddr: 0x1F270, symBinAddr: 0x100023F00, symSize: 0x40 }
  - { offsetInCU: 0x458E6, offset: 0x63AA9, size: 0x8, addend: 0x0, symName: __ZNSt3__114__split_bufferINS_9sub_matchIPKcEERNS_9allocatorIS4_EEE18__construct_at_endEmRKS4_, symObjAddr: 0x1F2B0, symBinAddr: 0x100023F40, symSize: 0xB0 }
  - { offsetInCU: 0x45939, offset: 0x63AFC, size: 0x8, addend: 0x0, symName: __ZNSt3__114__split_bufferINS_9sub_matchIPKcEERNS_9allocatorIS4_EEED1Ev, symObjAddr: 0x1F480, symBinAddr: 0x100024110, symSize: 0x20 }
  - { offsetInCU: 0x45965, offset: 0x63B28, size: 0x8, addend: 0x0, symName: __ZNSt3__114__split_bufferINS_9sub_matchIPKcEERNS_9allocatorIS4_EEEC2EmmS7_, symObjAddr: 0x1F4A0, symBinAddr: 0x100024130, symSize: 0xC0 }
  - { offsetInCU: 0x459D8, offset: 0x63B9B, size: 0x8, addend: 0x0, symName: __ZNSt3__117__compressed_pairIPNS_9sub_matchIPKcEERNS_9allocatorIS4_EEEC1B8ue170006IDnS8_EEOT_OT0_, symObjAddr: 0x1F560, symBinAddr: 0x1000241F0, symSize: 0x30 }
  - { offsetInCU: 0x45A30, offset: 0x63BF3, size: 0x8, addend: 0x0, symName: __ZNSt3__114__split_bufferINS_9sub_matchIPKcEERNS_9allocatorIS4_EEE7__allocB8ue170006Ev, symObjAddr: 0x1F590, symBinAddr: 0x100024220, symSize: 0x20 }
  - { offsetInCU: 0x45A56, offset: 0x63C19, size: 0x8, addend: 0x0, symName: __ZNSt3__114__split_bufferINS_9sub_matchIPKcEERNS_9allocatorIS4_EEE9__end_capB8ue170006Ev, symObjAddr: 0x1F5B0, symBinAddr: 0x100024240, symSize: 0x20 }
  - { offsetInCU: 0x45A7C, offset: 0x63C3F, size: 0x8, addend: 0x0, symName: __ZNSt3__117__compressed_pairIPNS_9sub_matchIPKcEERNS_9allocatorIS4_EEEC2B8ue170006IDnS8_EEOT_OT0_, symObjAddr: 0x1F5D0, symBinAddr: 0x100024260, symSize: 0x40 }
  - { offsetInCU: 0x45AD4, offset: 0x63C97, size: 0x8, addend: 0x0, symName: __ZNSt3__122__compressed_pair_elemIRNS_9allocatorINS_9sub_matchIPKcEEEELi1ELb0EEC2B8ue170006IS7_vEEOT_, symObjAddr: 0x1F610, symBinAddr: 0x1000242A0, symSize: 0x20 }
  - { offsetInCU: 0x45B16, offset: 0x63CD9, size: 0x8, addend: 0x0, symName: __ZNSt3__117__compressed_pairIPNS_9sub_matchIPKcEERNS_9allocatorIS4_EEE6secondB8ue170006Ev, symObjAddr: 0x1F630, symBinAddr: 0x1000242C0, symSize: 0x20 }
  - { offsetInCU: 0x45B3C, offset: 0x63CFF, size: 0x8, addend: 0x0, symName: __ZNSt3__122__compressed_pair_elemIRNS_9allocatorINS_9sub_matchIPKcEEEELi1ELb0EE5__getB8ue170006Ev, symObjAddr: 0x1F650, symBinAddr: 0x1000242E0, symSize: 0x20 }
  - { offsetInCU: 0x45B62, offset: 0x63D25, size: 0x8, addend: 0x0, symName: __ZNSt3__117__compressed_pairIPNS_9sub_matchIPKcEERNS_9allocatorIS4_EEE5firstB8ue170006Ev, symObjAddr: 0x1F670, symBinAddr: 0x100024300, symSize: 0x20 }
  - { offsetInCU: 0x45B92, offset: 0x63D55, size: 0x8, addend: 0x0, symName: __ZNSt3__114__split_bufferINS_9sub_matchIPKcEERNS_9allocatorIS4_EEE21_ConstructTransactionC1B8ue170006EPPS4_m, symObjAddr: 0x1F690, symBinAddr: 0x100024320, symSize: 0x30 }
  - { offsetInCU: 0x45BD8, offset: 0x63D9B, size: 0x8, addend: 0x0, symName: __ZNSt3__114__split_bufferINS_9sub_matchIPKcEERNS_9allocatorIS4_EEE21_ConstructTransactionD1B8ue170006Ev, symObjAddr: 0x1F6C0, symBinAddr: 0x100024350, symSize: 0x20 }
  - { offsetInCU: 0x45C02, offset: 0x63DC5, size: 0x8, addend: 0x0, symName: __ZNSt3__114__split_bufferINS_9sub_matchIPKcEERNS_9allocatorIS4_EEE21_ConstructTransactionC2B8ue170006EPPS4_m, symObjAddr: 0x1F6E0, symBinAddr: 0x100024370, symSize: 0x40 }
  - { offsetInCU: 0x45C48, offset: 0x63E0B, size: 0x8, addend: 0x0, symName: __ZNSt3__114__split_bufferINS_9sub_matchIPKcEERNS_9allocatorIS4_EEE21_ConstructTransactionD2B8ue170006Ev, symObjAddr: 0x1F720, symBinAddr: 0x1000243B0, symSize: 0x20 }
  - { offsetInCU: 0x45C72, offset: 0x63E35, size: 0x8, addend: 0x0, symName: __ZNSt3__116reverse_iteratorIPNS_9sub_matchIPKcEEEC1B8ue170006ES5_, symObjAddr: 0x1F8C0, symBinAddr: 0x100024550, symSize: 0x30 }
  - { offsetInCU: 0x45CAA, offset: 0x63E6D, size: 0x8, addend: 0x0, symName: __ZNKSt3__116reverse_iteratorIPNS_9sub_matchIPKcEEE4baseB8ue170006Ev, symObjAddr: 0x1F8F0, symBinAddr: 0x100024580, symSize: 0x20 }
  - { offsetInCU: 0x45CD0, offset: 0x63E93, size: 0x8, addend: 0x0, symName: __ZNSt3__129_AllocatorDestroyRangeReverseINS_9allocatorINS_9sub_matchIPKcEEEENS_16reverse_iteratorIPS5_EEEC1B8ue170006ERS6_RS9_SC_, symObjAddr: 0x1F9B0, symBinAddr: 0x100024640, symSize: 0x40 }
  - { offsetInCU: 0x45D2D, offset: 0x63EF0, size: 0x8, addend: 0x0, symName: __ZNSt3__116allocator_traitsINS_9allocatorINS_9sub_matchIPKcEEEEE9constructB8ue170006IS5_JS5_EvEEvRS6_PT_DpOT0_, symObjAddr: 0x1FA30, symBinAddr: 0x1000246C0, symSize: 0x30 }
  - { offsetInCU: 0x45D84, offset: 0x63F47, size: 0x8, addend: 0x0, symName: __ZNKSt3__116reverse_iteratorIPNS_9sub_matchIPKcEEEdeB8ue170006Ev, symObjAddr: 0x1FA80, symBinAddr: 0x100024710, symSize: 0x30 }
  - { offsetInCU: 0x45DB8, offset: 0x63F7B, size: 0x8, addend: 0x0, symName: __ZNSt3__116reverse_iteratorIPNS_9sub_matchIPKcEEEppB8ue170006Ev, symObjAddr: 0x1FAB0, symBinAddr: 0x100024740, symSize: 0x20 }
  - { offsetInCU: 0x45DDE, offset: 0x63FA1, size: 0x8, addend: 0x0, symName: __ZNSt3__128__exception_guard_exceptionsINS_29_AllocatorDestroyRangeReverseINS_9allocatorINS_9sub_matchIPKcEEEENS_16reverse_iteratorIPS6_EEEEE10__completeB8ue170006Ev, symObjAddr: 0x1FAD0, symBinAddr: 0x100024760, symSize: 0x20 }
  - { offsetInCU: 0x45E04, offset: 0x63FC7, size: 0x8, addend: 0x0, symName: __ZNSt3__128__exception_guard_exceptionsINS_29_AllocatorDestroyRangeReverseINS_9allocatorINS_9sub_matchIPKcEEEENS_16reverse_iteratorIPS6_EEEEED1B8ue170006Ev, symObjAddr: 0x1FAF0, symBinAddr: 0x100024780, symSize: 0x20 }
  - { offsetInCU: 0x45E2E, offset: 0x63FF1, size: 0x8, addend: 0x0, symName: __ZNSt3__128__exception_guard_exceptionsINS_29_AllocatorDestroyRangeReverseINS_9allocatorINS_9sub_matchIPKcEEEENS_16reverse_iteratorIPS6_EEEEEC1B8ue170006ESB_, symObjAddr: 0x1FB10, symBinAddr: 0x1000247A0, symSize: 0x40 }
  - { offsetInCU: 0x45E66, offset: 0x64029, size: 0x8, addend: 0x0, symName: __ZNSt3__128__exception_guard_exceptionsINS_29_AllocatorDestroyRangeReverseINS_9allocatorINS_9sub_matchIPKcEEEENS_16reverse_iteratorIPS6_EEEEEC2B8ue170006ESB_, symObjAddr: 0x1FB50, symBinAddr: 0x1000247E0, symSize: 0x30 }
  - { offsetInCU: 0x45E9E, offset: 0x64061, size: 0x8, addend: 0x0, symName: __ZNSt3__129_AllocatorDestroyRangeReverseINS_9allocatorINS_9sub_matchIPKcEEEENS_16reverse_iteratorIPS5_EEEC2B8ue170006ERS6_RS9_SC_, symObjAddr: 0x1FB80, symBinAddr: 0x100024810, symSize: 0x40 }
  - { offsetInCU: 0x45EF5, offset: 0x640B8, size: 0x8, addend: 0x0, symName: __ZNSt3__19allocatorINS_9sub_matchIPKcEEE9constructB8ue170006IS4_JS4_EEEvPT_DpOT0_, symObjAddr: 0x1FBC0, symBinAddr: 0x100024850, symSize: 0x30 }
  - { offsetInCU: 0x45F50, offset: 0x64113, size: 0x8, addend: 0x0, symName: __ZNSt3__119__to_address_helperINS_16reverse_iteratorIPNS_9sub_matchIPKcEEEEvE6__callB8ue170006ERKS7_, symObjAddr: 0x1FBF0, symBinAddr: 0x100024880, symSize: 0x40 }
  - { offsetInCU: 0x45F73, offset: 0x64136, size: 0x8, addend: 0x0, symName: __ZNKSt3__116reverse_iteratorIPNS_9sub_matchIPKcEEEptB8ue170006Ev, symObjAddr: 0x1FC30, symBinAddr: 0x1000248C0, symSize: 0x20 }
  - { offsetInCU: 0x45F99, offset: 0x6415C, size: 0x8, addend: 0x0, symName: __ZNSt3__128__exception_guard_exceptionsINS_29_AllocatorDestroyRangeReverseINS_9allocatorINS_9sub_matchIPKcEEEENS_16reverse_iteratorIPS6_EEEEED2B8ue170006Ev, symObjAddr: 0x1FC50, symBinAddr: 0x1000248E0, symSize: 0x40 }
  - { offsetInCU: 0x45FC3, offset: 0x64186, size: 0x8, addend: 0x0, symName: __ZNKSt3__129_AllocatorDestroyRangeReverseINS_9allocatorINS_9sub_matchIPKcEEEENS_16reverse_iteratorIPS5_EEEclB8ue170006Ev, symObjAddr: 0x1FC90, symBinAddr: 0x100024920, symSize: 0xF0 }
  - { offsetInCU: 0x45FEA, offset: 0x641AD, size: 0x8, addend: 0x0, symName: __ZNSt3__116reverse_iteratorINS0_IPNS_9sub_matchIPKcEEEEEC1B8ue170006ES6_, symObjAddr: 0x1FDF0, symBinAddr: 0x100024A80, symSize: 0x30 }
  - { offsetInCU: 0x46022, offset: 0x641E5, size: 0x8, addend: 0x0, symName: __ZNSt3__116reverse_iteratorINS0_IPNS_9sub_matchIPKcEEEEEppB8ue170006Ev, symObjAddr: 0x1FE90, symBinAddr: 0x100024B20, symSize: 0x30 }
  - { offsetInCU: 0x46048, offset: 0x6420B, size: 0x8, addend: 0x0, symName: __ZNKSt3__116reverse_iteratorINS0_IPNS_9sub_matchIPKcEEEEE4baseB8ue170006Ev, symObjAddr: 0x1FEC0, symBinAddr: 0x100024B50, symSize: 0x20 }
  - { offsetInCU: 0x46073, offset: 0x64236, size: 0x8, addend: 0x0, symName: __ZNSt3__119__to_address_helperINS_16reverse_iteratorINS1_IPNS_9sub_matchIPKcEEEEEEvE6__callB8ue170006ERKS8_, symObjAddr: 0x1FEE0, symBinAddr: 0x100024B70, symSize: 0x40 }
  - { offsetInCU: 0x46096, offset: 0x64259, size: 0x8, addend: 0x0, symName: __ZNKSt3__116reverse_iteratorINS0_IPNS_9sub_matchIPKcEEEEEptB8ue170006Ev, symObjAddr: 0x1FF20, symBinAddr: 0x100024BB0, symSize: 0x20 }
  - { offsetInCU: 0x460BC, offset: 0x6427F, size: 0x8, addend: 0x0, symName: __ZNKSt3__116reverse_iteratorINS0_IPNS_9sub_matchIPKcEEEEEdeB8ue170006Ev, symObjAddr: 0x1FF40, symBinAddr: 0x100024BD0, symSize: 0x40 }
  - { offsetInCU: 0x460F0, offset: 0x642B3, size: 0x8, addend: 0x0, symName: __ZNSt3__116reverse_iteratorIPNS_9sub_matchIPKcEEEmmB8ue170006Ev, symObjAddr: 0x1FF80, symBinAddr: 0x100024C10, symSize: 0x20 }
  - { offsetInCU: 0x46116, offset: 0x642D9, size: 0x8, addend: 0x0, symName: __ZNSt3__116reverse_iteratorINS0_IPNS_9sub_matchIPKcEEEEEC2B8ue170006ES6_, symObjAddr: 0x1FFA0, symBinAddr: 0x100024C30, symSize: 0x40 }
  - { offsetInCU: 0x4614E, offset: 0x64311, size: 0x8, addend: 0x0, symName: __ZNSt3__116reverse_iteratorIPNS_9sub_matchIPKcEEEC2B8ue170006ES5_, symObjAddr: 0x1FFE0, symBinAddr: 0x100024C70, symSize: 0x30 }
  - { offsetInCU: 0x46186, offset: 0x64349, size: 0x8, addend: 0x0, symName: __ZNSt3__114__split_bufferINS_9sub_matchIPKcEERNS_9allocatorIS4_EEED2Ev, symObjAddr: 0x20010, symBinAddr: 0x100024CA0, symSize: 0x70 }
  - { offsetInCU: 0x461B2, offset: 0x64375, size: 0x8, addend: 0x0, symName: __ZNSt3__114__split_bufferINS_9sub_matchIPKcEERNS_9allocatorIS4_EEE5clearB8ue170006Ev, symObjAddr: 0x20080, symBinAddr: 0x100024D10, symSize: 0x20 }
  - { offsetInCU: 0x461D8, offset: 0x6439B, size: 0x8, addend: 0x0, symName: __ZNKSt3__114__split_bufferINS_9sub_matchIPKcEERNS_9allocatorIS4_EEE8capacityB8ue170006Ev, symObjAddr: 0x200A0, symBinAddr: 0x100024D30, symSize: 0x40 }
  - { offsetInCU: 0x461FE, offset: 0x643C1, size: 0x8, addend: 0x0, symName: __ZNSt3__114__split_bufferINS_9sub_matchIPKcEERNS_9allocatorIS4_EEE17__destruct_at_endB8ue170006EPS4_, symObjAddr: 0x200E0, symBinAddr: 0x100024D70, symSize: 0x30 }
  - { offsetInCU: 0x46232, offset: 0x643F5, size: 0x8, addend: 0x0, symName: __ZNSt3__114__split_bufferINS_9sub_matchIPKcEERNS_9allocatorIS4_EEE17__destruct_at_endB8ue170006EPS4_NS_17integral_constantIbLb0EEE, symObjAddr: 0x20110, symBinAddr: 0x100024DA0, symSize: 0x80 }
  - { offsetInCU: 0x46272, offset: 0x64435, size: 0x8, addend: 0x0, symName: __ZNKSt3__114__split_bufferINS_9sub_matchIPKcEERNS_9allocatorIS4_EEE9__end_capB8ue170006Ev, symObjAddr: 0x20190, symBinAddr: 0x100024E20, symSize: 0x20 }
  - { offsetInCU: 0x46298, offset: 0x6445B, size: 0x8, addend: 0x0, symName: __ZNKSt3__117__compressed_pairIPNS_9sub_matchIPKcEERNS_9allocatorIS4_EEE5firstB8ue170006Ev, symObjAddr: 0x201B0, symBinAddr: 0x100024E40, symSize: 0x20 }
  - { offsetInCU: 0x462BE, offset: 0x64481, size: 0x8, addend: 0x0, symName: __ZNSt3__16vectorINS_4pairImPKcEENS_9allocatorIS4_EEE8__appendEm, symObjAddr: 0x201D0, symBinAddr: 0x100024E60, symSize: 0x100 }
  - { offsetInCU: 0x46319, offset: 0x644DC, size: 0x8, addend: 0x0, symName: __ZNSt3__16vectorINS_4pairImPKcEENS_9allocatorIS4_EEE17__destruct_at_endB8ue170006EPS4_, symObjAddr: 0x202D0, symBinAddr: 0x100024F60, symSize: 0x50 }
  - { offsetInCU: 0x4635D, offset: 0x64520, size: 0x8, addend: 0x0, symName: __ZNSt3__16vectorINS_4pairImPKcEENS_9allocatorIS4_EEE18__construct_at_endEm, symObjAddr: 0x20320, symBinAddr: 0x100024FB0, symSize: 0xC0 }
  - { offsetInCU: 0x463CF, offset: 0x64592, size: 0x8, addend: 0x0, symName: __ZNKSt3__16vectorINS_4pairImPKcEENS_9allocatorIS4_EEE11__recommendB8ue170006Em, symObjAddr: 0x203E0, symBinAddr: 0x100025070, symSize: 0xA0 }
  - { offsetInCU: 0x46424, offset: 0x645E7, size: 0x8, addend: 0x0, symName: __ZNSt3__114__split_bufferINS_4pairImPKcEERNS_9allocatorIS4_EEEC1EmmS7_, symObjAddr: 0x20480, symBinAddr: 0x100025110, symSize: 0x40 }
  - { offsetInCU: 0x4647A, offset: 0x6463D, size: 0x8, addend: 0x0, symName: __ZNSt3__114__split_bufferINS_4pairImPKcEERNS_9allocatorIS4_EEE18__construct_at_endEm, symObjAddr: 0x204C0, symBinAddr: 0x100025150, symSize: 0xB0 }
  - { offsetInCU: 0x464BF, offset: 0x64682, size: 0x8, addend: 0x0, symName: __ZNSt3__114__split_bufferINS_4pairImPKcEERNS_9allocatorIS4_EEED1Ev, symObjAddr: 0x20690, symBinAddr: 0x100025320, symSize: 0x20 }
  - { offsetInCU: 0x46504, offset: 0x646C7, size: 0x8, addend: 0x0, symName: __ZNSt3__16vectorINS_4pairImPKcEENS_9allocatorIS4_EEE21_ConstructTransactionC1B8ue170006ERS7_m, symObjAddr: 0x206B0, symBinAddr: 0x100025340, symSize: 0x30 }
  - { offsetInCU: 0x4654C, offset: 0x6470F, size: 0x8, addend: 0x0, symName: __ZNSt3__116allocator_traitsINS_9allocatorINS_4pairImPKcEEEEE9constructB8ue170006IS5_JEvEEvRS6_PT_DpOT0_, symObjAddr: 0x206E0, symBinAddr: 0x100025370, symSize: 0x30 }
  - { offsetInCU: 0x4658E, offset: 0x64751, size: 0x8, addend: 0x0, symName: __ZNSt3__16vectorINS_4pairImPKcEENS_9allocatorIS4_EEE21_ConstructTransactionD1B8ue170006Ev, symObjAddr: 0x20710, symBinAddr: 0x1000253A0, symSize: 0x20 }
  - { offsetInCU: 0x465B8, offset: 0x6477B, size: 0x8, addend: 0x0, symName: __ZNSt3__16vectorINS_4pairImPKcEENS_9allocatorIS4_EEE21_ConstructTransactionC2B8ue170006ERS7_m, symObjAddr: 0x20730, symBinAddr: 0x1000253C0, symSize: 0x40 }
  - { offsetInCU: 0x46600, offset: 0x647C3, size: 0x8, addend: 0x0, symName: __ZNSt3__19allocatorINS_4pairImPKcEEE9constructB8ue170006IS4_JEEEvPT_DpOT0_, symObjAddr: 0x20770, symBinAddr: 0x100025400, symSize: 0x20 }
  - { offsetInCU: 0x46642, offset: 0x64805, size: 0x8, addend: 0x0, symName: __ZNSt3__14pairImPKcEC1B8ue170006ILb1ELPv0EEEv, symObjAddr: 0x20790, symBinAddr: 0x100025420, symSize: 0x20 }
  - { offsetInCU: 0x4667C, offset: 0x6483F, size: 0x8, addend: 0x0, symName: __ZNSt3__14pairImPKcEC2B8ue170006ILb1ELPv0EEEv, symObjAddr: 0x207B0, symBinAddr: 0x100025440, symSize: 0x20 }
  - { offsetInCU: 0x466B6, offset: 0x64879, size: 0x8, addend: 0x0, symName: __ZNSt3__16vectorINS_4pairImPKcEENS_9allocatorIS4_EEE21_ConstructTransactionD2B8ue170006Ev, symObjAddr: 0x207D0, symBinAddr: 0x100025460, symSize: 0x20 }
  - { offsetInCU: 0x466E0, offset: 0x648A3, size: 0x8, addend: 0x0, symName: __ZNKSt3__16vectorINS_4pairImPKcEENS_9allocatorIS4_EEE8max_sizeEv, symObjAddr: 0x207F0, symBinAddr: 0x100025480, symSize: 0x60 }
  - { offsetInCU: 0x46708, offset: 0x648CB, size: 0x8, addend: 0x0, symName: __ZNKSt3__16vectorINS_4pairImPKcEENS_9allocatorIS4_EEE20__throw_length_errorB8ue170006Ev, symObjAddr: 0x20850, symBinAddr: 0x1000254E0, symSize: 0x20 }
  - { offsetInCU: 0x46738, offset: 0x648FB, size: 0x8, addend: 0x0, symName: __ZNSt3__116allocator_traitsINS_9allocatorINS_4pairImPKcEEEEE8max_sizeB8ue170006IS6_vEEmRKS6_, symObjAddr: 0x20870, symBinAddr: 0x100025500, symSize: 0x20 }
  - { offsetInCU: 0x46766, offset: 0x64929, size: 0x8, addend: 0x0, symName: __ZNKSt3__16vectorINS_4pairImPKcEENS_9allocatorIS4_EEE7__allocB8ue170006Ev, symObjAddr: 0x20890, symBinAddr: 0x100025520, symSize: 0x20 }
  - { offsetInCU: 0x4678C, offset: 0x6494F, size: 0x8, addend: 0x0, symName: __ZNKSt3__19allocatorINS_4pairImPKcEEE8max_sizeB8ue170006Ev, symObjAddr: 0x208B0, symBinAddr: 0x100025540, symSize: 0x20 }
  - { offsetInCU: 0x467B2, offset: 0x64975, size: 0x8, addend: 0x0, symName: __ZNKSt3__117__compressed_pairIPNS_4pairImPKcEENS_9allocatorIS4_EEE6secondB8ue170006Ev, symObjAddr: 0x208D0, symBinAddr: 0x100025560, symSize: 0x20 }
  - { offsetInCU: 0x467D8, offset: 0x6499B, size: 0x8, addend: 0x0, symName: __ZNKSt3__122__compressed_pair_elemINS_9allocatorINS_4pairImPKcEEEELi1ELb1EE5__getB8ue170006Ev, symObjAddr: 0x208F0, symBinAddr: 0x100025580, symSize: 0x10 }
  - { offsetInCU: 0x467FE, offset: 0x649C1, size: 0x8, addend: 0x0, symName: __ZNSt3__114__split_bufferINS_4pairImPKcEERNS_9allocatorIS4_EEEC2EmmS7_, symObjAddr: 0x20900, symBinAddr: 0x100025590, symSize: 0xD0 }
  - { offsetInCU: 0x46871, offset: 0x64A34, size: 0x8, addend: 0x0, symName: __ZNSt3__117__compressed_pairIPNS_4pairImPKcEERNS_9allocatorIS4_EEEC1B8ue170006IDnS8_EEOT_OT0_, symObjAddr: 0x209D0, symBinAddr: 0x100025660, symSize: 0x30 }
  - { offsetInCU: 0x468C9, offset: 0x64A8C, size: 0x8, addend: 0x0, symName: __ZNSt3__114__split_bufferINS_4pairImPKcEERNS_9allocatorIS4_EEE7__allocB8ue170006Ev, symObjAddr: 0x20A40, symBinAddr: 0x1000256D0, symSize: 0x20 }
  - { offsetInCU: 0x468EF, offset: 0x64AB2, size: 0x8, addend: 0x0, symName: __ZNSt3__114__split_bufferINS_4pairImPKcEERNS_9allocatorIS4_EEE9__end_capB8ue170006Ev, symObjAddr: 0x20A60, symBinAddr: 0x1000256F0, symSize: 0x20 }
  - { offsetInCU: 0x46915, offset: 0x64AD8, size: 0x8, addend: 0x0, symName: __ZNSt3__117__compressed_pairIPNS_4pairImPKcEERNS_9allocatorIS4_EEEC2B8ue170006IDnS8_EEOT_OT0_, symObjAddr: 0x20A80, symBinAddr: 0x100025710, symSize: 0x40 }
  - { offsetInCU: 0x4696D, offset: 0x64B30, size: 0x8, addend: 0x0, symName: __ZNSt3__122__compressed_pair_elemIRNS_9allocatorINS_4pairImPKcEEEELi1ELb0EEC2B8ue170006IS7_vEEOT_, symObjAddr: 0x20AC0, symBinAddr: 0x100025750, symSize: 0x20 }
  - { offsetInCU: 0x469AF, offset: 0x64B72, size: 0x8, addend: 0x0, symName: __ZNSt3__19allocatorINS_4pairImPKcEEE8allocateB8ue170006Em, symObjAddr: 0x20AE0, symBinAddr: 0x100025770, symSize: 0x50 }
  - { offsetInCU: 0x469E3, offset: 0x64BA6, size: 0x8, addend: 0x0, symName: __ZNSt3__117__compressed_pairIPNS_4pairImPKcEERNS_9allocatorIS4_EEE6secondB8ue170006Ev, symObjAddr: 0x20B30, symBinAddr: 0x1000257C0, symSize: 0x20 }
  - { offsetInCU: 0x46A09, offset: 0x64BCC, size: 0x8, addend: 0x0, symName: __ZNSt3__122__compressed_pair_elemIRNS_9allocatorINS_4pairImPKcEEEELi1ELb0EE5__getB8ue170006Ev, symObjAddr: 0x20B50, symBinAddr: 0x1000257E0, symSize: 0x20 }
  - { offsetInCU: 0x46A2F, offset: 0x64BF2, size: 0x8, addend: 0x0, symName: __ZNSt3__117__compressed_pairIPNS_4pairImPKcEERNS_9allocatorIS4_EEE5firstB8ue170006Ev, symObjAddr: 0x20B70, symBinAddr: 0x100025800, symSize: 0x20 }
  - { offsetInCU: 0x46A5F, offset: 0x64C22, size: 0x8, addend: 0x0, symName: __ZNSt3__114__split_bufferINS_4pairImPKcEERNS_9allocatorIS4_EEE21_ConstructTransactionC1B8ue170006EPPS4_m, symObjAddr: 0x20B90, symBinAddr: 0x100025820, symSize: 0x30 }
  - { offsetInCU: 0x46AA5, offset: 0x64C68, size: 0x8, addend: 0x0, symName: __ZNSt3__114__split_bufferINS_4pairImPKcEERNS_9allocatorIS4_EEE21_ConstructTransactionD1B8ue170006Ev, symObjAddr: 0x20BC0, symBinAddr: 0x100025850, symSize: 0x20 }
  - { offsetInCU: 0x46ACF, offset: 0x64C92, size: 0x8, addend: 0x0, symName: __ZNSt3__114__split_bufferINS_4pairImPKcEERNS_9allocatorIS4_EEE21_ConstructTransactionC2B8ue170006EPPS4_m, symObjAddr: 0x20BE0, symBinAddr: 0x100025870, symSize: 0x40 }
  - { offsetInCU: 0x46B15, offset: 0x64CD8, size: 0x8, addend: 0x0, symName: __ZNSt3__114__split_bufferINS_4pairImPKcEERNS_9allocatorIS4_EEE21_ConstructTransactionD2B8ue170006Ev, symObjAddr: 0x20C20, symBinAddr: 0x1000258B0, symSize: 0x20 }
  - { offsetInCU: 0x46B3F, offset: 0x64D02, size: 0x8, addend: 0x0, symName: __ZNSt3__116reverse_iteratorIPNS_4pairImPKcEEEC1B8ue170006ES5_, symObjAddr: 0x20DC0, symBinAddr: 0x100025A50, symSize: 0x30 }
  - { offsetInCU: 0x46B77, offset: 0x64D3A, size: 0x8, addend: 0x0, symName: __ZNKSt3__116reverse_iteratorIPNS_4pairImPKcEEE4baseB8ue170006Ev, symObjAddr: 0x20DF0, symBinAddr: 0x100025A80, symSize: 0x20 }
  - { offsetInCU: 0x46B9D, offset: 0x64D60, size: 0x8, addend: 0x0, symName: __ZNKSt3__16vectorINS_4pairImPKcEENS_9allocatorIS4_EEE14__annotate_newB8ue170006Em, symObjAddr: 0x20E50, symBinAddr: 0x100025AE0, symSize: 0xB0 }
  - { offsetInCU: 0x46BD2, offset: 0x64D95, size: 0x8, addend: 0x0, symName: __ZNSt3__129_AllocatorDestroyRangeReverseINS_9allocatorINS_4pairImPKcEEEENS_16reverse_iteratorIPS5_EEEC1B8ue170006ERS6_RS9_SC_, symObjAddr: 0x20F60, symBinAddr: 0x100025BF0, symSize: 0x40 }
  - { offsetInCU: 0x46C29, offset: 0x64DEC, size: 0x8, addend: 0x0, symName: __ZNSt3__116allocator_traitsINS_9allocatorINS_4pairImPKcEEEEE9constructB8ue170006IS5_JS5_EvEEvRS6_PT_DpOT0_, symObjAddr: 0x20FE0, symBinAddr: 0x100025C70, symSize: 0x30 }
  - { offsetInCU: 0x46C80, offset: 0x64E43, size: 0x8, addend: 0x0, symName: __ZNKSt3__116reverse_iteratorIPNS_4pairImPKcEEEdeB8ue170006Ev, symObjAddr: 0x21030, symBinAddr: 0x100025CC0, symSize: 0x30 }
  - { offsetInCU: 0x46CB4, offset: 0x64E77, size: 0x8, addend: 0x0, symName: __ZNSt3__116reverse_iteratorIPNS_4pairImPKcEEEppB8ue170006Ev, symObjAddr: 0x21060, symBinAddr: 0x100025CF0, symSize: 0x20 }
  - { offsetInCU: 0x46CDA, offset: 0x64E9D, size: 0x8, addend: 0x0, symName: __ZNSt3__128__exception_guard_exceptionsINS_29_AllocatorDestroyRangeReverseINS_9allocatorINS_4pairImPKcEEEENS_16reverse_iteratorIPS6_EEEEE10__completeB8ue170006Ev, symObjAddr: 0x21080, symBinAddr: 0x100025D10, symSize: 0x20 }
  - { offsetInCU: 0x46D00, offset: 0x64EC3, size: 0x8, addend: 0x0, symName: __ZNSt3__128__exception_guard_exceptionsINS_29_AllocatorDestroyRangeReverseINS_9allocatorINS_4pairImPKcEEEENS_16reverse_iteratorIPS6_EEEEED1B8ue170006Ev, symObjAddr: 0x210A0, symBinAddr: 0x100025D30, symSize: 0x20 }
  - { offsetInCU: 0x46D2A, offset: 0x64EED, size: 0x8, addend: 0x0, symName: __ZNSt3__128__exception_guard_exceptionsINS_29_AllocatorDestroyRangeReverseINS_9allocatorINS_4pairImPKcEEEENS_16reverse_iteratorIPS6_EEEEEC1B8ue170006ESB_, symObjAddr: 0x210C0, symBinAddr: 0x100025D50, symSize: 0x40 }
  - { offsetInCU: 0x46D62, offset: 0x64F25, size: 0x8, addend: 0x0, symName: __ZNSt3__128__exception_guard_exceptionsINS_29_AllocatorDestroyRangeReverseINS_9allocatorINS_4pairImPKcEEEENS_16reverse_iteratorIPS6_EEEEEC2B8ue170006ESB_, symObjAddr: 0x21100, symBinAddr: 0x100025D90, symSize: 0x30 }
  - { offsetInCU: 0x46D9A, offset: 0x64F5D, size: 0x8, addend: 0x0, symName: __ZNSt3__129_AllocatorDestroyRangeReverseINS_9allocatorINS_4pairImPKcEEEENS_16reverse_iteratorIPS5_EEEC2B8ue170006ERS6_RS9_SC_, symObjAddr: 0x21130, symBinAddr: 0x100025DC0, symSize: 0x40 }
  - { offsetInCU: 0x46DF1, offset: 0x64FB4, size: 0x8, addend: 0x0, symName: __ZNSt3__19allocatorINS_4pairImPKcEEE9constructB8ue170006IS4_JS4_EEEvPT_DpOT0_, symObjAddr: 0x21170, symBinAddr: 0x100025E00, symSize: 0x30 }
  - { offsetInCU: 0x46E4C, offset: 0x6500F, size: 0x8, addend: 0x0, symName: __ZNSt3__119__to_address_helperINS_16reverse_iteratorIPNS_4pairImPKcEEEEvE6__callB8ue170006ERKS7_, symObjAddr: 0x211A0, symBinAddr: 0x100025E30, symSize: 0x40 }
  - { offsetInCU: 0x46E6F, offset: 0x65032, size: 0x8, addend: 0x0, symName: __ZNKSt3__116reverse_iteratorIPNS_4pairImPKcEEEptB8ue170006Ev, symObjAddr: 0x211E0, symBinAddr: 0x100025E70, symSize: 0x20 }
  - { offsetInCU: 0x46E95, offset: 0x65058, size: 0x8, addend: 0x0, symName: __ZNSt3__128__exception_guard_exceptionsINS_29_AllocatorDestroyRangeReverseINS_9allocatorINS_4pairImPKcEEEENS_16reverse_iteratorIPS6_EEEEED2B8ue170006Ev, symObjAddr: 0x21200, symBinAddr: 0x100025E90, symSize: 0x40 }
  - { offsetInCU: 0x46EBF, offset: 0x65082, size: 0x8, addend: 0x0, symName: __ZNKSt3__129_AllocatorDestroyRangeReverseINS_9allocatorINS_4pairImPKcEEEENS_16reverse_iteratorIPS5_EEEclB8ue170006Ev, symObjAddr: 0x21240, symBinAddr: 0x100025ED0, symSize: 0xF0 }
  - { offsetInCU: 0x46EE6, offset: 0x650A9, size: 0x8, addend: 0x0, symName: __ZNSt3__116reverse_iteratorINS0_IPNS_4pairImPKcEEEEEC1B8ue170006ES6_, symObjAddr: 0x213A0, symBinAddr: 0x100026030, symSize: 0x30 }
  - { offsetInCU: 0x46F1E, offset: 0x650E1, size: 0x8, addend: 0x0, symName: __ZNSt3__116reverse_iteratorINS0_IPNS_4pairImPKcEEEEEppB8ue170006Ev, symObjAddr: 0x21440, symBinAddr: 0x1000260D0, symSize: 0x30 }
  - { offsetInCU: 0x46F44, offset: 0x65107, size: 0x8, addend: 0x0, symName: __ZNKSt3__116reverse_iteratorINS0_IPNS_4pairImPKcEEEEE4baseB8ue170006Ev, symObjAddr: 0x21470, symBinAddr: 0x100026100, symSize: 0x20 }
  - { offsetInCU: 0x46F6F, offset: 0x65132, size: 0x8, addend: 0x0, symName: __ZNSt3__119__to_address_helperINS_16reverse_iteratorINS1_IPNS_4pairImPKcEEEEEEvE6__callB8ue170006ERKS8_, symObjAddr: 0x21490, symBinAddr: 0x100026120, symSize: 0x40 }
  - { offsetInCU: 0x46F92, offset: 0x65155, size: 0x8, addend: 0x0, symName: __ZNKSt3__116reverse_iteratorINS0_IPNS_4pairImPKcEEEEEptB8ue170006Ev, symObjAddr: 0x214D0, symBinAddr: 0x100026160, symSize: 0x20 }
  - { offsetInCU: 0x46FB8, offset: 0x6517B, size: 0x8, addend: 0x0, symName: __ZNKSt3__116reverse_iteratorINS0_IPNS_4pairImPKcEEEEEdeB8ue170006Ev, symObjAddr: 0x214F0, symBinAddr: 0x100026180, symSize: 0x40 }
  - { offsetInCU: 0x46FEC, offset: 0x651AF, size: 0x8, addend: 0x0, symName: __ZNSt3__116reverse_iteratorIPNS_4pairImPKcEEEmmB8ue170006Ev, symObjAddr: 0x21530, symBinAddr: 0x1000261C0, symSize: 0x20 }
  - { offsetInCU: 0x47012, offset: 0x651D5, size: 0x8, addend: 0x0, symName: __ZNSt3__116reverse_iteratorINS0_IPNS_4pairImPKcEEEEEC2B8ue170006ES6_, symObjAddr: 0x21550, symBinAddr: 0x1000261E0, symSize: 0x40 }
  - { offsetInCU: 0x4704A, offset: 0x6520D, size: 0x8, addend: 0x0, symName: __ZNSt3__116reverse_iteratorIPNS_4pairImPKcEEEC2B8ue170006ES5_, symObjAddr: 0x21590, symBinAddr: 0x100026220, symSize: 0x30 }
  - { offsetInCU: 0x47082, offset: 0x65245, size: 0x8, addend: 0x0, symName: __ZNSt3__114__split_bufferINS_4pairImPKcEERNS_9allocatorIS4_EEED2Ev, symObjAddr: 0x215C0, symBinAddr: 0x100026250, symSize: 0x70 }
  - { offsetInCU: 0x470AE, offset: 0x65271, size: 0x8, addend: 0x0, symName: __ZNSt3__114__split_bufferINS_4pairImPKcEERNS_9allocatorIS4_EEE5clearB8ue170006Ev, symObjAddr: 0x21630, symBinAddr: 0x1000262C0, symSize: 0x20 }
  - { offsetInCU: 0x470D4, offset: 0x65297, size: 0x8, addend: 0x0, symName: __ZNKSt3__114__split_bufferINS_4pairImPKcEERNS_9allocatorIS4_EEE8capacityB8ue170006Ev, symObjAddr: 0x21650, symBinAddr: 0x1000262E0, symSize: 0x30 }
  - { offsetInCU: 0x470FA, offset: 0x652BD, size: 0x8, addend: 0x0, symName: __ZNSt3__114__split_bufferINS_4pairImPKcEERNS_9allocatorIS4_EEE17__destruct_at_endB8ue170006EPS4_, symObjAddr: 0x21680, symBinAddr: 0x100026310, symSize: 0x30 }
  - { offsetInCU: 0x4712E, offset: 0x652F1, size: 0x8, addend: 0x0, symName: __ZNSt3__114__split_bufferINS_4pairImPKcEERNS_9allocatorIS4_EEE17__destruct_at_endB8ue170006EPS4_NS_17integral_constantIbLb0EEE, symObjAddr: 0x216B0, symBinAddr: 0x100026340, symSize: 0x80 }
  - { offsetInCU: 0x4716E, offset: 0x65331, size: 0x8, addend: 0x0, symName: __ZNKSt3__114__split_bufferINS_4pairImPKcEERNS_9allocatorIS4_EEE9__end_capB8ue170006Ev, symObjAddr: 0x21730, symBinAddr: 0x1000263C0, symSize: 0x20 }
  - { offsetInCU: 0x47194, offset: 0x65357, size: 0x8, addend: 0x0, symName: __ZNKSt3__117__compressed_pairIPNS_4pairImPKcEERNS_9allocatorIS4_EEE5firstB8ue170006Ev, symObjAddr: 0x21750, symBinAddr: 0x1000263E0, symSize: 0x20 }
  - { offsetInCU: 0x471BA, offset: 0x6537D, size: 0x8, addend: 0x0, symName: __ZNKSt3__16vectorINS_4pairImPKcEENS_9allocatorIS4_EEE17__annotate_shrinkB8ue170006Em, symObjAddr: 0x21770, symBinAddr: 0x100026400, symSize: 0xA0 }
  - { offsetInCU: 0x471EF, offset: 0x653B2, size: 0x8, addend: 0x0, symName: __ZNSt3__16vectorINS_7__stateIcEENS_9allocatorIS2_EEE17__destruct_at_endB8ue170006EPS2_, symObjAddr: 0x21810, symBinAddr: 0x1000264A0, symSize: 0x50 }
  - { offsetInCU: 0x47233, offset: 0x653F6, size: 0x8, addend: 0x0, symName: __ZNSt3__16vectorINS_7__stateIcEENS_9allocatorIS2_EEE22__base_destruct_at_endB8ue170006EPS2_, symObjAddr: 0x21860, symBinAddr: 0x1000264F0, symSize: 0x80 }
  - { offsetInCU: 0x47277, offset: 0x6543A, size: 0x8, addend: 0x0, symName: __ZNKSt3__16vectorINS_7__stateIcEENS_9allocatorIS2_EEE17__annotate_shrinkB8ue170006Em, symObjAddr: 0x218E0, symBinAddr: 0x100026570, symSize: 0xA0 }
  - { offsetInCU: 0x472AC, offset: 0x6546F, size: 0x8, addend: 0x0, symName: __ZNSt3__17__stateIcEC2ERKS1_, symObjAddr: 0x21980, symBinAddr: 0x100026610, symSize: 0xA0 }
  - { offsetInCU: 0x472E2, offset: 0x654A5, size: 0x8, addend: 0x0, symName: __ZNSt3__16vectorINS_9sub_matchIPKcEENS_9allocatorIS4_EEEC1ERKS7_, symObjAddr: 0x21A20, symBinAddr: 0x1000266B0, symSize: 0x30 }
  - { offsetInCU: 0x4731D, offset: 0x654E0, size: 0x8, addend: 0x0, symName: __ZNSt3__16vectorINS_4pairImPKcEENS_9allocatorIS4_EEEC1ERKS7_, symObjAddr: 0x21A50, symBinAddr: 0x1000266E0, symSize: 0x30 }
  - { offsetInCU: 0x47358, offset: 0x6551B, size: 0x8, addend: 0x0, symName: __ZNSt3__16vectorINS_9sub_matchIPKcEENS_9allocatorIS4_EEEC2ERKS7_, symObjAddr: 0x21A80, symBinAddr: 0x100026710, symSize: 0xA0 }
  - { offsetInCU: 0x47393, offset: 0x65556, size: 0x8, addend: 0x0, symName: __ZNSt3__116allocator_traitsINS_9allocatorINS_9sub_matchIPKcEEEEE37select_on_container_copy_constructionB8ue170006IS6_vvEES6_RKS6_, symObjAddr: 0x21B20, symBinAddr: 0x1000267B0, symSize: 0x10 }
  - { offsetInCU: 0x473C2, offset: 0x65585, size: 0x8, addend: 0x0, symName: __ZNSt3__16vectorINS_9sub_matchIPKcEENS_9allocatorIS4_EEE16__init_with_sizeB8ue170006IPS4_S9_EEvT_T0_m, symObjAddr: 0x21B30, symBinAddr: 0x1000267C0, symSize: 0xB0 }
  - { offsetInCU: 0x47436, offset: 0x655F9, size: 0x8, addend: 0x0, symName: __ZNSt3__16vectorINS_9sub_matchIPKcEENS_9allocatorIS4_EEE18__construct_at_endIPS4_S9_EEvT_T0_m, symObjAddr: 0x21C20, symBinAddr: 0x1000268B0, symSize: 0x90 }
  - { offsetInCU: 0x474AC, offset: 0x6566F, size: 0x8, addend: 0x0, symName: __ZNSt3__128__exception_guard_exceptionsINS_6vectorINS_9sub_matchIPKcEENS_9allocatorIS5_EEE16__destroy_vectorEE10__completeB8ue170006Ev, symObjAddr: 0x21CB0, symBinAddr: 0x100026940, symSize: 0x20 }
  - { offsetInCU: 0x474D2, offset: 0x65695, size: 0x8, addend: 0x0, symName: __ZNSt3__128__exception_guard_exceptionsINS_6vectorINS_9sub_matchIPKcEENS_9allocatorIS5_EEE16__destroy_vectorEED1B8ue170006Ev, symObjAddr: 0x21CD0, symBinAddr: 0x100026960, symSize: 0x20 }
  - { offsetInCU: 0x474FC, offset: 0x656BF, size: 0x8, addend: 0x0, symName: __ZNSt3__128__exception_guard_exceptionsINS_6vectorINS_9sub_matchIPKcEENS_9allocatorIS5_EEE16__destroy_vectorEEC1B8ue170006ES9_, symObjAddr: 0x21CF0, symBinAddr: 0x100026980, symSize: 0x30 }
  - { offsetInCU: 0x47534, offset: 0x656F7, size: 0x8, addend: 0x0, symName: __ZNSt3__128__exception_guard_exceptionsINS_6vectorINS_9sub_matchIPKcEENS_9allocatorIS5_EEE16__destroy_vectorEEC2B8ue170006ES9_, symObjAddr: 0x21D20, symBinAddr: 0x1000269B0, symSize: 0x20 }
  - { offsetInCU: 0x4758C, offset: 0x6574F, size: 0x8, addend: 0x0, symName: __ZNSt3__14pairIPNS_9sub_matchIPKcEES5_EC1B8ue170006IS5_S5_LPv0EEEOT_OT0_, symObjAddr: 0x21FA0, symBinAddr: 0x100026C30, symSize: 0x30 }
  - { offsetInCU: 0x475EA, offset: 0x657AD, size: 0x8, addend: 0x0, symName: __ZNSt3__14pairIPNS_9sub_matchIPKcEES5_EC2B8ue170006IS5_S5_LPv0EEEOT_OT0_, symObjAddr: 0x21FD0, symBinAddr: 0x100026C60, symSize: 0x30 }
  - { offsetInCU: 0x47648, offset: 0x6580B, size: 0x8, addend: 0x0, symName: __ZNSt3__129_AllocatorDestroyRangeReverseINS_9allocatorINS_9sub_matchIPKcEEEEPS5_EC1B8ue170006ERS6_RS7_SA_, symObjAddr: 0x22060, symBinAddr: 0x100026CF0, symSize: 0x40 }
  - { offsetInCU: 0x4769F, offset: 0x65862, size: 0x8, addend: 0x0, symName: __ZNSt3__116allocator_traitsINS_9allocatorINS_9sub_matchIPKcEEEEE9constructB8ue170006IS5_JRS5_EvEEvRS6_PT_DpOT0_, symObjAddr: 0x220A0, symBinAddr: 0x100026D30, symSize: 0x30 }
  - { offsetInCU: 0x476F6, offset: 0x658B9, size: 0x8, addend: 0x0, symName: __ZNSt3__128__exception_guard_exceptionsINS_29_AllocatorDestroyRangeReverseINS_9allocatorINS_9sub_matchIPKcEEEEPS6_EEE10__completeB8ue170006Ev, symObjAddr: 0x220D0, symBinAddr: 0x100026D60, symSize: 0x20 }
  - { offsetInCU: 0x4771C, offset: 0x658DF, size: 0x8, addend: 0x0, symName: __ZNSt3__128__exception_guard_exceptionsINS_29_AllocatorDestroyRangeReverseINS_9allocatorINS_9sub_matchIPKcEEEEPS6_EEED1B8ue170006Ev, symObjAddr: 0x220F0, symBinAddr: 0x100026D80, symSize: 0x20 }
  - { offsetInCU: 0x47746, offset: 0x65909, size: 0x8, addend: 0x0, symName: __ZNSt3__128__exception_guard_exceptionsINS_29_AllocatorDestroyRangeReverseINS_9allocatorINS_9sub_matchIPKcEEEEPS6_EEEC1B8ue170006ES9_, symObjAddr: 0x22110, symBinAddr: 0x100026DA0, symSize: 0x40 }
  - { offsetInCU: 0x4777E, offset: 0x65941, size: 0x8, addend: 0x0, symName: __ZNSt3__128__exception_guard_exceptionsINS_29_AllocatorDestroyRangeReverseINS_9allocatorINS_9sub_matchIPKcEEEEPS6_EEEC2B8ue170006ES9_, symObjAddr: 0x22150, symBinAddr: 0x100026DE0, symSize: 0x30 }
  - { offsetInCU: 0x477B6, offset: 0x65979, size: 0x8, addend: 0x0, symName: __ZNSt3__129_AllocatorDestroyRangeReverseINS_9allocatorINS_9sub_matchIPKcEEEEPS5_EC2B8ue170006ERS6_RS7_SA_, symObjAddr: 0x22180, symBinAddr: 0x100026E10, symSize: 0x40 }
  - { offsetInCU: 0x4780D, offset: 0x659D0, size: 0x8, addend: 0x0, symName: __ZNSt3__19allocatorINS_9sub_matchIPKcEEE9constructB8ue170006IS4_JRS4_EEEvPT_DpOT0_, symObjAddr: 0x221C0, symBinAddr: 0x100026E50, symSize: 0x30 }
  - { offsetInCU: 0x47863, offset: 0x65A26, size: 0x8, addend: 0x0, symName: __ZNSt3__128__exception_guard_exceptionsINS_29_AllocatorDestroyRangeReverseINS_9allocatorINS_9sub_matchIPKcEEEEPS6_EEED2B8ue170006Ev, symObjAddr: 0x221F0, symBinAddr: 0x100026E80, symSize: 0x40 }
  - { offsetInCU: 0x4788D, offset: 0x65A50, size: 0x8, addend: 0x0, symName: __ZNKSt3__129_AllocatorDestroyRangeReverseINS_9allocatorINS_9sub_matchIPKcEEEEPS5_EclB8ue170006Ev, symObjAddr: 0x22230, symBinAddr: 0x100026EC0, symSize: 0x60 }
  - { offsetInCU: 0x478B3, offset: 0x65A76, size: 0x8, addend: 0x0, symName: __ZNSt3__118__unwrap_iter_implIPNS_9sub_matchIPKcEELb1EE8__unwrapB8ue170006ES5_, symObjAddr: 0x22300, symBinAddr: 0x100026F90, symSize: 0x20 }
  - { offsetInCU: 0x478D6, offset: 0x65A99, size: 0x8, addend: 0x0, symName: __ZNSt3__118__unwrap_iter_implIPNS_9sub_matchIPKcEELb1EE8__rewrapB8ue170006ES5_S5_, symObjAddr: 0x22320, symBinAddr: 0x100026FB0, symSize: 0x60 }
  - { offsetInCU: 0x47907, offset: 0x65ACA, size: 0x8, addend: 0x0, symName: __ZNSt3__128__exception_guard_exceptionsINS_6vectorINS_9sub_matchIPKcEENS_9allocatorIS5_EEE16__destroy_vectorEED2B8ue170006Ev, symObjAddr: 0x22380, symBinAddr: 0x100027010, symSize: 0x30 }
  - { offsetInCU: 0x47931, offset: 0x65AF4, size: 0x8, addend: 0x0, symName: __ZNSt3__16vectorINS_4pairImPKcEENS_9allocatorIS4_EEEC2ERKS7_, symObjAddr: 0x223B0, symBinAddr: 0x100027040, symSize: 0xA0 }
  - { offsetInCU: 0x4796C, offset: 0x65B2F, size: 0x8, addend: 0x0, symName: __ZNSt3__116allocator_traitsINS_9allocatorINS_4pairImPKcEEEEE37select_on_container_copy_constructionB8ue170006IS6_vvEES6_RKS6_, symObjAddr: 0x22450, symBinAddr: 0x1000270E0, symSize: 0x10 }
  - { offsetInCU: 0x4799B, offset: 0x65B5E, size: 0x8, addend: 0x0, symName: __ZNSt3__16vectorINS_4pairImPKcEENS_9allocatorIS4_EEE16__init_with_sizeB8ue170006IPS4_S9_EEvT_T0_m, symObjAddr: 0x22460, symBinAddr: 0x1000270F0, symSize: 0xB0 }
  - { offsetInCU: 0x47A0F, offset: 0x65BD2, size: 0x8, addend: 0x0, symName: __ZNSt3__16vectorINS_4pairImPKcEENS_9allocatorIS4_EEE11__vallocateB8ue170006Em, symObjAddr: 0x22550, symBinAddr: 0x1000271E0, symSize: 0xA0 }
  - { offsetInCU: 0x47A53, offset: 0x65C16, size: 0x8, addend: 0x0, symName: __ZNSt3__16vectorINS_4pairImPKcEENS_9allocatorIS4_EEE18__construct_at_endIPS4_S9_EEvT_T0_m, symObjAddr: 0x225F0, symBinAddr: 0x100027280, symSize: 0x90 }
  - { offsetInCU: 0x47AC9, offset: 0x65C8C, size: 0x8, addend: 0x0, symName: __ZNSt3__128__exception_guard_exceptionsINS_6vectorINS_4pairImPKcEENS_9allocatorIS5_EEE16__destroy_vectorEE10__completeB8ue170006Ev, symObjAddr: 0x22680, symBinAddr: 0x100027310, symSize: 0x20 }
  - { offsetInCU: 0x47AEF, offset: 0x65CB2, size: 0x8, addend: 0x0, symName: __ZNSt3__128__exception_guard_exceptionsINS_6vectorINS_4pairImPKcEENS_9allocatorIS5_EEE16__destroy_vectorEED1B8ue170006Ev, symObjAddr: 0x226A0, symBinAddr: 0x100027330, symSize: 0x20 }
  - { offsetInCU: 0x47B19, offset: 0x65CDC, size: 0x8, addend: 0x0, symName: __ZNSt3__128__exception_guard_exceptionsINS_6vectorINS_4pairImPKcEENS_9allocatorIS5_EEE16__destroy_vectorEEC1B8ue170006ES9_, symObjAddr: 0x226C0, symBinAddr: 0x100027350, symSize: 0x30 }
  - { offsetInCU: 0x47B51, offset: 0x65D14, size: 0x8, addend: 0x0, symName: __ZNSt3__128__exception_guard_exceptionsINS_6vectorINS_4pairImPKcEENS_9allocatorIS5_EEE16__destroy_vectorEEC2B8ue170006ES9_, symObjAddr: 0x226F0, symBinAddr: 0x100027380, symSize: 0x20 }
  - { offsetInCU: 0x47BA9, offset: 0x65D6C, size: 0x8, addend: 0x0, symName: __ZNSt3__14pairIPNS0_ImPKcEES4_EC1B8ue170006IS4_S4_LPv0EEEOT_OT0_, symObjAddr: 0x22970, symBinAddr: 0x100027600, symSize: 0x30 }
  - { offsetInCU: 0x47C07, offset: 0x65DCA, size: 0x8, addend: 0x0, symName: __ZNSt3__14pairIPNS0_ImPKcEES4_EC2B8ue170006IS4_S4_LPv0EEEOT_OT0_, symObjAddr: 0x229A0, symBinAddr: 0x100027630, symSize: 0x30 }
  - { offsetInCU: 0x47C65, offset: 0x65E28, size: 0x8, addend: 0x0, symName: __ZNSt3__129_AllocatorDestroyRangeReverseINS_9allocatorINS_4pairImPKcEEEEPS5_EC1B8ue170006ERS6_RS7_SA_, symObjAddr: 0x22A30, symBinAddr: 0x1000276C0, symSize: 0x40 }
  - { offsetInCU: 0x47CBC, offset: 0x65E7F, size: 0x8, addend: 0x0, symName: __ZNSt3__116allocator_traitsINS_9allocatorINS_4pairImPKcEEEEE9constructB8ue170006IS5_JRS5_EvEEvRS6_PT_DpOT0_, symObjAddr: 0x22A70, symBinAddr: 0x100027700, symSize: 0x30 }
  - { offsetInCU: 0x47D13, offset: 0x65ED6, size: 0x8, addend: 0x0, symName: __ZNSt3__128__exception_guard_exceptionsINS_29_AllocatorDestroyRangeReverseINS_9allocatorINS_4pairImPKcEEEEPS6_EEE10__completeB8ue170006Ev, symObjAddr: 0x22AA0, symBinAddr: 0x100027730, symSize: 0x20 }
  - { offsetInCU: 0x47D39, offset: 0x65EFC, size: 0x8, addend: 0x0, symName: __ZNSt3__128__exception_guard_exceptionsINS_29_AllocatorDestroyRangeReverseINS_9allocatorINS_4pairImPKcEEEEPS6_EEED1B8ue170006Ev, symObjAddr: 0x22AC0, symBinAddr: 0x100027750, symSize: 0x20 }
  - { offsetInCU: 0x47D63, offset: 0x65F26, size: 0x8, addend: 0x0, symName: __ZNSt3__128__exception_guard_exceptionsINS_29_AllocatorDestroyRangeReverseINS_9allocatorINS_4pairImPKcEEEEPS6_EEEC1B8ue170006ES9_, symObjAddr: 0x22AE0, symBinAddr: 0x100027770, symSize: 0x40 }
  - { offsetInCU: 0x47D9B, offset: 0x65F5E, size: 0x8, addend: 0x0, symName: __ZNSt3__128__exception_guard_exceptionsINS_29_AllocatorDestroyRangeReverseINS_9allocatorINS_4pairImPKcEEEEPS6_EEEC2B8ue170006ES9_, symObjAddr: 0x22B20, symBinAddr: 0x1000277B0, symSize: 0x30 }
  - { offsetInCU: 0x47DD3, offset: 0x65F96, size: 0x8, addend: 0x0, symName: __ZNSt3__129_AllocatorDestroyRangeReverseINS_9allocatorINS_4pairImPKcEEEEPS5_EC2B8ue170006ERS6_RS7_SA_, symObjAddr: 0x22B50, symBinAddr: 0x1000277E0, symSize: 0x40 }
  - { offsetInCU: 0x47E2A, offset: 0x65FED, size: 0x8, addend: 0x0, symName: __ZNSt3__19allocatorINS_4pairImPKcEEE9constructB8ue170006IS4_JRS4_EEEvPT_DpOT0_, symObjAddr: 0x22B90, symBinAddr: 0x100027820, symSize: 0x30 }
  - { offsetInCU: 0x47E80, offset: 0x66043, size: 0x8, addend: 0x0, symName: __ZNSt3__128__exception_guard_exceptionsINS_29_AllocatorDestroyRangeReverseINS_9allocatorINS_4pairImPKcEEEEPS6_EEED2B8ue170006Ev, symObjAddr: 0x22BC0, symBinAddr: 0x100027850, symSize: 0x40 }
  - { offsetInCU: 0x47EAA, offset: 0x6606D, size: 0x8, addend: 0x0, symName: __ZNKSt3__129_AllocatorDestroyRangeReverseINS_9allocatorINS_4pairImPKcEEEEPS5_EclB8ue170006Ev, symObjAddr: 0x22C00, symBinAddr: 0x100027890, symSize: 0x60 }
  - { offsetInCU: 0x47ED0, offset: 0x66093, size: 0x8, addend: 0x0, symName: __ZNSt3__118__unwrap_iter_implIPNS_4pairImPKcEELb1EE8__unwrapB8ue170006ES5_, symObjAddr: 0x22CD0, symBinAddr: 0x100027960, symSize: 0x20 }
  - { offsetInCU: 0x47EF3, offset: 0x660B6, size: 0x8, addend: 0x0, symName: __ZNSt3__118__unwrap_iter_implIPNS_4pairImPKcEELb1EE8__rewrapB8ue170006ES5_S5_, symObjAddr: 0x22CF0, symBinAddr: 0x100027980, symSize: 0x50 }
  - { offsetInCU: 0x47F24, offset: 0x660E7, size: 0x8, addend: 0x0, symName: __ZNSt3__128__exception_guard_exceptionsINS_6vectorINS_4pairImPKcEENS_9allocatorIS5_EEE16__destroy_vectorEED2B8ue170006Ev, symObjAddr: 0x22D40, symBinAddr: 0x1000279D0, symSize: 0x30 }
  - { offsetInCU: 0x47F4E, offset: 0x66111, size: 0x8, addend: 0x0, symName: __ZNSt3__16vectorINS_7__stateIcEENS_9allocatorIS2_EEED2B8ue170006Ev, symObjAddr: 0x22D70, symBinAddr: 0x100027A00, symSize: 0x40 }
